
;CodeVisionAVR C Compiler V2.04.4a Advanced
;(C) Copyright 1998-2009 Pavel Haiduc, HP InfoTech s.r.l.
;http://www.hpinfotech.com

;Chip type                : ATmega32
;Program type             : Application
;Clock frequency          : 8.000000 MHz
;Memory model             : Small
;Optimize for             : Size
;(s)printf features       : int, width
;(s)scanf features        : int, width
;External RAM size        : 0
;Data Stack size          : 512 byte(s)
;Heap size                : 0 byte(s)
;Promote 'char' to 'int'  : Yes
;'char' is unsigned       : Yes
;8 bit enums              : Yes
;global 'const' stored in FLASH: No
;Enhanced core instructions    : On
;Smart register allocation     : On
;Automatic register allocation : On

	#pragma AVRPART ADMIN PART_NAME ATmega32
	#pragma AVRPART MEMORY PROG_FLASH 32768
	#pragma AVRPART MEMORY EEPROM 1024
	#pragma AVRPART MEMORY INT_SRAM SIZE 2048
	#pragma AVRPART MEMORY INT_SRAM START_ADDR 0x60

	.LISTMAC
	.EQU UDRE=0x5
	.EQU RXC=0x7
	.EQU USR=0xB
	.EQU UDR=0xC
	.EQU SPSR=0xE
	.EQU SPDR=0xF
	.EQU EERE=0x0
	.EQU EEWE=0x1
	.EQU EEMWE=0x2
	.EQU EECR=0x1C
	.EQU EEDR=0x1D
	.EQU EEARL=0x1E
	.EQU EEARH=0x1F
	.EQU WDTCR=0x21
	.EQU MCUCR=0x35
	.EQU GICR=0x3B
	.EQU SPL=0x3D
	.EQU SPH=0x3E
	.EQU SREG=0x3F

	.DEF R0X0=R0
	.DEF R0X1=R1
	.DEF R0X2=R2
	.DEF R0X3=R3
	.DEF R0X4=R4
	.DEF R0X5=R5
	.DEF R0X6=R6
	.DEF R0X7=R7
	.DEF R0X8=R8
	.DEF R0X9=R9
	.DEF R0XA=R10
	.DEF R0XB=R11
	.DEF R0XC=R12
	.DEF R0XD=R13
	.DEF R0XE=R14
	.DEF R0XF=R15
	.DEF R0X10=R16
	.DEF R0X11=R17
	.DEF R0X12=R18
	.DEF R0X13=R19
	.DEF R0X14=R20
	.DEF R0X15=R21
	.DEF R0X16=R22
	.DEF R0X17=R23
	.DEF R0X18=R24
	.DEF R0X19=R25
	.DEF R0X1A=R26
	.DEF R0X1B=R27
	.DEF R0X1C=R28
	.DEF R0X1D=R29
	.DEF R0X1E=R30
	.DEF R0X1F=R31

	.MACRO __CPD1N
	CPI  R30,LOW(@0)
	LDI  R26,HIGH(@0)
	CPC  R31,R26
	LDI  R26,BYTE3(@0)
	CPC  R22,R26
	LDI  R26,BYTE4(@0)
	CPC  R23,R26
	.ENDM

	.MACRO __CPD2N
	CPI  R26,LOW(@0)
	LDI  R30,HIGH(@0)
	CPC  R27,R30
	LDI  R30,BYTE3(@0)
	CPC  R24,R30
	LDI  R30,BYTE4(@0)
	CPC  R25,R30
	.ENDM

	.MACRO __CPWRR
	CP   R@0,R@2
	CPC  R@1,R@3
	.ENDM

	.MACRO __CPWRN
	CPI  R@0,LOW(@2)
	LDI  R30,HIGH(@2)
	CPC  R@1,R30
	.ENDM

	.MACRO __ADDB1MN
	SUBI R30,LOW(-@0-(@1))
	.ENDM

	.MACRO __ADDB2MN
	SUBI R26,LOW(-@0-(@1))
	.ENDM

	.MACRO __ADDW1MN
	SUBI R30,LOW(-@0-(@1))
	SBCI R31,HIGH(-@0-(@1))
	.ENDM

	.MACRO __ADDW2MN
	SUBI R26,LOW(-@0-(@1))
	SBCI R27,HIGH(-@0-(@1))
	.ENDM

	.MACRO __ADDW1FN
	SUBI R30,LOW(-2*@0-(@1))
	SBCI R31,HIGH(-2*@0-(@1))
	.ENDM

	.MACRO __ADDD1FN
	SUBI R30,LOW(-2*@0-(@1))
	SBCI R31,HIGH(-2*@0-(@1))
	SBCI R22,BYTE3(-2*@0-(@1))
	.ENDM

	.MACRO __ADDD1N
	SUBI R30,LOW(-@0)
	SBCI R31,HIGH(-@0)
	SBCI R22,BYTE3(-@0)
	SBCI R23,BYTE4(-@0)
	.ENDM

	.MACRO __ADDD2N
	SUBI R26,LOW(-@0)
	SBCI R27,HIGH(-@0)
	SBCI R24,BYTE3(-@0)
	SBCI R25,BYTE4(-@0)
	.ENDM

	.MACRO __SUBD1N
	SUBI R30,LOW(@0)
	SBCI R31,HIGH(@0)
	SBCI R22,BYTE3(@0)
	SBCI R23,BYTE4(@0)
	.ENDM

	.MACRO __SUBD2N
	SUBI R26,LOW(@0)
	SBCI R27,HIGH(@0)
	SBCI R24,BYTE3(@0)
	SBCI R25,BYTE4(@0)
	.ENDM

	.MACRO __ANDBMNN
	LDS  R30,@0+(@1)
	ANDI R30,LOW(@2)
	STS  @0+(@1),R30
	.ENDM

	.MACRO __ANDWMNN
	LDS  R30,@0+(@1)
	ANDI R30,LOW(@2)
	STS  @0+(@1),R30
	LDS  R30,@0+(@1)+1
	ANDI R30,HIGH(@2)
	STS  @0+(@1)+1,R30
	.ENDM

	.MACRO __ANDD1N
	ANDI R30,LOW(@0)
	ANDI R31,HIGH(@0)
	ANDI R22,BYTE3(@0)
	ANDI R23,BYTE4(@0)
	.ENDM

	.MACRO __ANDD2N
	ANDI R26,LOW(@0)
	ANDI R27,HIGH(@0)
	ANDI R24,BYTE3(@0)
	ANDI R25,BYTE4(@0)
	.ENDM

	.MACRO __ORBMNN
	LDS  R30,@0+(@1)
	ORI  R30,LOW(@2)
	STS  @0+(@1),R30
	.ENDM

	.MACRO __ORWMNN
	LDS  R30,@0+(@1)
	ORI  R30,LOW(@2)
	STS  @0+(@1),R30
	LDS  R30,@0+(@1)+1
	ORI  R30,HIGH(@2)
	STS  @0+(@1)+1,R30
	.ENDM

	.MACRO __ORD1N
	ORI  R30,LOW(@0)
	ORI  R31,HIGH(@0)
	ORI  R22,BYTE3(@0)
	ORI  R23,BYTE4(@0)
	.ENDM

	.MACRO __ORD2N
	ORI  R26,LOW(@0)
	ORI  R27,HIGH(@0)
	ORI  R24,BYTE3(@0)
	ORI  R25,BYTE4(@0)
	.ENDM

	.MACRO __DELAY_USB
	LDI  R24,LOW(@0)
__DELAY_USB_LOOP:
	DEC  R24
	BRNE __DELAY_USB_LOOP
	.ENDM

	.MACRO __DELAY_USW
	LDI  R24,LOW(@0)
	LDI  R25,HIGH(@0)
__DELAY_USW_LOOP:
	SBIW R24,1
	BRNE __DELAY_USW_LOOP
	.ENDM

	.MACRO __GETD1S
	LDD  R30,Y+@0
	LDD  R31,Y+@0+1
	LDD  R22,Y+@0+2
	LDD  R23,Y+@0+3
	.ENDM

	.MACRO __GETD2S
	LDD  R26,Y+@0
	LDD  R27,Y+@0+1
	LDD  R24,Y+@0+2
	LDD  R25,Y+@0+3
	.ENDM

	.MACRO __PUTD1S
	STD  Y+@0,R30
	STD  Y+@0+1,R31
	STD  Y+@0+2,R22
	STD  Y+@0+3,R23
	.ENDM

	.MACRO __PUTD2S
	STD  Y+@0,R26
	STD  Y+@0+1,R27
	STD  Y+@0+2,R24
	STD  Y+@0+3,R25
	.ENDM

	.MACRO __PUTDZ2
	STD  Z+@0,R26
	STD  Z+@0+1,R27
	STD  Z+@0+2,R24
	STD  Z+@0+3,R25
	.ENDM

	.MACRO __CLRD1S
	STD  Y+@0,R30
	STD  Y+@0+1,R30
	STD  Y+@0+2,R30
	STD  Y+@0+3,R30
	.ENDM

	.MACRO __POINTB1MN
	LDI  R30,LOW(@0+(@1))
	.ENDM

	.MACRO __POINTW1MN
	LDI  R30,LOW(@0+(@1))
	LDI  R31,HIGH(@0+(@1))
	.ENDM

	.MACRO __POINTD1M
	LDI  R30,LOW(@0)
	LDI  R31,HIGH(@0)
	LDI  R22,BYTE3(@0)
	LDI  R23,BYTE4(@0)
	.ENDM

	.MACRO __POINTW1FN
	LDI  R30,LOW(2*@0+(@1))
	LDI  R31,HIGH(2*@0+(@1))
	.ENDM

	.MACRO __POINTD1FN
	LDI  R30,LOW(2*@0+(@1))
	LDI  R31,HIGH(2*@0+(@1))
	LDI  R22,BYTE3(2*@0+(@1))
	LDI  R23,BYTE4(2*@0+(@1))
	.ENDM

	.MACRO __POINTB2MN
	LDI  R26,LOW(@0+(@1))
	.ENDM

	.MACRO __POINTW2MN
	LDI  R26,LOW(@0+(@1))
	LDI  R27,HIGH(@0+(@1))
	.ENDM

	.MACRO __POINTBRM
	LDI  R@0,LOW(@1)
	.ENDM

	.MACRO __POINTWRM
	LDI  R@0,LOW(@2)
	LDI  R@1,HIGH(@2)
	.ENDM

	.MACRO __POINTBRMN
	LDI  R@0,LOW(@1+(@2))
	.ENDM

	.MACRO __POINTWRMN
	LDI  R@0,LOW(@2+(@3))
	LDI  R@1,HIGH(@2+(@3))
	.ENDM

	.MACRO __POINTWRFN
	LDI  R@0,LOW(@2*2+(@3))
	LDI  R@1,HIGH(@2*2+(@3))
	.ENDM

	.MACRO __GETD1N
	LDI  R30,LOW(@0)
	LDI  R31,HIGH(@0)
	LDI  R22,BYTE3(@0)
	LDI  R23,BYTE4(@0)
	.ENDM

	.MACRO __GETD2N
	LDI  R26,LOW(@0)
	LDI  R27,HIGH(@0)
	LDI  R24,BYTE3(@0)
	LDI  R25,BYTE4(@0)
	.ENDM

	.MACRO __GETB1MN
	LDS  R30,@0+(@1)
	.ENDM

	.MACRO __GETB1HMN
	LDS  R31,@0+(@1)
	.ENDM

	.MACRO __GETW1MN
	LDS  R30,@0+(@1)
	LDS  R31,@0+(@1)+1
	.ENDM

	.MACRO __GETD1MN
	LDS  R30,@0+(@1)
	LDS  R31,@0+(@1)+1
	LDS  R22,@0+(@1)+2
	LDS  R23,@0+(@1)+3
	.ENDM

	.MACRO __GETBRMN
	LDS  R@0,@1+(@2)
	.ENDM

	.MACRO __GETWRMN
	LDS  R@0,@2+(@3)
	LDS  R@1,@2+(@3)+1
	.ENDM

	.MACRO __GETWRZ
	LDD  R@0,Z+@2
	LDD  R@1,Z+@2+1
	.ENDM

	.MACRO __GETD2Z
	LDD  R26,Z+@0
	LDD  R27,Z+@0+1
	LDD  R24,Z+@0+2
	LDD  R25,Z+@0+3
	.ENDM

	.MACRO __GETB2MN
	LDS  R26,@0+(@1)
	.ENDM

	.MACRO __GETW2MN
	LDS  R26,@0+(@1)
	LDS  R27,@0+(@1)+1
	.ENDM

	.MACRO __GETD2MN
	LDS  R26,@0+(@1)
	LDS  R27,@0+(@1)+1
	LDS  R24,@0+(@1)+2
	LDS  R25,@0+(@1)+3
	.ENDM

	.MACRO __PUTB1MN
	STS  @0+(@1),R30
	.ENDM

	.MACRO __PUTW1MN
	STS  @0+(@1),R30
	STS  @0+(@1)+1,R31
	.ENDM

	.MACRO __PUTD1MN
	STS  @0+(@1),R30
	STS  @0+(@1)+1,R31
	STS  @0+(@1)+2,R22
	STS  @0+(@1)+3,R23
	.ENDM

	.MACRO __PUTB1EN
	LDI  R26,LOW(@0+(@1))
	LDI  R27,HIGH(@0+(@1))
	CALL __EEPROMWRB
	.ENDM

	.MACRO __PUTW1EN
	LDI  R26,LOW(@0+(@1))
	LDI  R27,HIGH(@0+(@1))
	CALL __EEPROMWRW
	.ENDM

	.MACRO __PUTD1EN
	LDI  R26,LOW(@0+(@1))
	LDI  R27,HIGH(@0+(@1))
	CALL __EEPROMWRD
	.ENDM

	.MACRO __PUTBR0MN
	STS  @0+(@1),R0
	.ENDM

	.MACRO __PUTBMRN
	STS  @0+(@1),R@2
	.ENDM

	.MACRO __PUTWMRN
	STS  @0+(@1),R@2
	STS  @0+(@1)+1,R@3
	.ENDM

	.MACRO __PUTBZR
	STD  Z+@1,R@0
	.ENDM

	.MACRO __PUTWZR
	STD  Z+@2,R@0
	STD  Z+@2+1,R@1
	.ENDM

	.MACRO __GETW1R
	MOV  R30,R@0
	MOV  R31,R@1
	.ENDM

	.MACRO __GETW2R
	MOV  R26,R@0
	MOV  R27,R@1
	.ENDM

	.MACRO __GETWRN
	LDI  R@0,LOW(@2)
	LDI  R@1,HIGH(@2)
	.ENDM

	.MACRO __PUTW1R
	MOV  R@0,R30
	MOV  R@1,R31
	.ENDM

	.MACRO __PUTW2R
	MOV  R@0,R26
	MOV  R@1,R27
	.ENDM

	.MACRO __ADDWRN
	SUBI R@0,LOW(-@2)
	SBCI R@1,HIGH(-@2)
	.ENDM

	.MACRO __ADDWRR
	ADD  R@0,R@2
	ADC  R@1,R@3
	.ENDM

	.MACRO __SUBWRN
	SUBI R@0,LOW(@2)
	SBCI R@1,HIGH(@2)
	.ENDM

	.MACRO __SUBWRR
	SUB  R@0,R@2
	SBC  R@1,R@3
	.ENDM

	.MACRO __ANDWRN
	ANDI R@0,LOW(@2)
	ANDI R@1,HIGH(@2)
	.ENDM

	.MACRO __ANDWRR
	AND  R@0,R@2
	AND  R@1,R@3
	.ENDM

	.MACRO __ORWRN
	ORI  R@0,LOW(@2)
	ORI  R@1,HIGH(@2)
	.ENDM

	.MACRO __ORWRR
	OR   R@0,R@2
	OR   R@1,R@3
	.ENDM

	.MACRO __EORWRR
	EOR  R@0,R@2
	EOR  R@1,R@3
	.ENDM

	.MACRO __GETWRS
	LDD  R@0,Y+@2
	LDD  R@1,Y+@2+1
	.ENDM

	.MACRO __PUTBSR
	STD  Y+@1,R@0
	.ENDM

	.MACRO __PUTWSR
	STD  Y+@2,R@0
	STD  Y+@2+1,R@1
	.ENDM

	.MACRO __MOVEWRR
	MOV  R@0,R@2
	MOV  R@1,R@3
	.ENDM

	.MACRO __INWR
	IN   R@0,@2
	IN   R@1,@2+1
	.ENDM

	.MACRO __OUTWR
	OUT  @2+1,R@1
	OUT  @2,R@0
	.ENDM

	.MACRO __CALL1MN
	LDS  R30,@0+(@1)
	LDS  R31,@0+(@1)+1
	ICALL
	.ENDM

	.MACRO __CALL1FN
	LDI  R30,LOW(2*@0+(@1))
	LDI  R31,HIGH(2*@0+(@1))
	CALL __GETW1PF
	ICALL
	.ENDM

	.MACRO __CALL2EN
	LDI  R26,LOW(@0+(@1))
	LDI  R27,HIGH(@0+(@1))
	CALL __EEPROMRDW
	ICALL
	.ENDM

	.MACRO __GETW1STACK
	IN   R26,SPL
	IN   R27,SPH
	ADIW R26,@0+1
	LD   R30,X+
	LD   R31,X
	.ENDM

	.MACRO __GETD1STACK
	IN   R26,SPL
	IN   R27,SPH
	ADIW R26,@0+1
	LD   R30,X+
	LD   R31,X+
	LD   R22,X
	.ENDM

	.MACRO __NBST
	BST  R@0,@1
	IN   R30,SREG
	LDI  R31,0x40
	EOR  R30,R31
	OUT  SREG,R30
	.ENDM


	.MACRO __PUTB1SN
	LDD  R26,Y+@0
	LDD  R27,Y+@0+1
	SUBI R26,LOW(-@1)
	SBCI R27,HIGH(-@1)
	ST   X,R30
	.ENDM

	.MACRO __PUTW1SN
	LDD  R26,Y+@0
	LDD  R27,Y+@0+1
	SUBI R26,LOW(-@1)
	SBCI R27,HIGH(-@1)
	ST   X+,R30
	ST   X,R31
	.ENDM

	.MACRO __PUTD1SN
	LDD  R26,Y+@0
	LDD  R27,Y+@0+1
	SUBI R26,LOW(-@1)
	SBCI R27,HIGH(-@1)
	CALL __PUTDP1
	.ENDM

	.MACRO __PUTB1SNS
	LDD  R26,Y+@0
	LDD  R27,Y+@0+1
	ADIW R26,@1
	ST   X,R30
	.ENDM

	.MACRO __PUTW1SNS
	LDD  R26,Y+@0
	LDD  R27,Y+@0+1
	ADIW R26,@1
	ST   X+,R30
	ST   X,R31
	.ENDM

	.MACRO __PUTD1SNS
	LDD  R26,Y+@0
	LDD  R27,Y+@0+1
	ADIW R26,@1
	CALL __PUTDP1
	.ENDM

	.MACRO __PUTB1PMN
	LDS  R26,@0
	LDS  R27,@0+1
	SUBI R26,LOW(-@1)
	SBCI R27,HIGH(-@1)
	ST   X,R30
	.ENDM

	.MACRO __PUTW1PMN
	LDS  R26,@0
	LDS  R27,@0+1
	SUBI R26,LOW(-@1)
	SBCI R27,HIGH(-@1)
	ST   X+,R30
	ST   X,R31
	.ENDM

	.MACRO __PUTD1PMN
	LDS  R26,@0
	LDS  R27,@0+1
	SUBI R26,LOW(-@1)
	SBCI R27,HIGH(-@1)
	CALL __PUTDP1
	.ENDM

	.MACRO __PUTB1PMNS
	LDS  R26,@0
	LDS  R27,@0+1
	ADIW R26,@1
	ST   X,R30
	.ENDM

	.MACRO __PUTW1PMNS
	LDS  R26,@0
	LDS  R27,@0+1
	ADIW R26,@1
	ST   X+,R30
	ST   X,R31
	.ENDM

	.MACRO __PUTD1PMNS
	LDS  R26,@0
	LDS  R27,@0+1
	ADIW R26,@1
	CALL __PUTDP1
	.ENDM

	.MACRO __PUTB1RN
	MOVW R26,R@0
	SUBI R26,LOW(-@1)
	SBCI R27,HIGH(-@1)
	ST   X,R30
	.ENDM

	.MACRO __PUTW1RN
	MOVW R26,R@0
	SUBI R26,LOW(-@1)
	SBCI R27,HIGH(-@1)
	ST   X+,R30
	ST   X,R31
	.ENDM

	.MACRO __PUTD1RN
	MOVW R26,R@0
	SUBI R26,LOW(-@1)
	SBCI R27,HIGH(-@1)
	CALL __PUTDP1
	.ENDM

	.MACRO __PUTB1RNS
	MOVW R26,R@0
	ADIW R26,@1
	ST   X,R30
	.ENDM

	.MACRO __PUTW1RNS
	MOVW R26,R@0
	ADIW R26,@1
	ST   X+,R30
	ST   X,R31
	.ENDM

	.MACRO __PUTD1RNS
	MOVW R26,R@0
	ADIW R26,@1
	CALL __PUTDP1
	.ENDM

	.MACRO __PUTB1RON
	MOV  R26,R@0
	MOV  R27,R@1
	SUBI R26,LOW(-@2)
	SBCI R27,HIGH(-@2)
	ST   X,R30
	.ENDM

	.MACRO __PUTW1RON
	MOV  R26,R@0
	MOV  R27,R@1
	SUBI R26,LOW(-@2)
	SBCI R27,HIGH(-@2)
	ST   X+,R30
	ST   X,R31
	.ENDM

	.MACRO __PUTD1RON
	MOV  R26,R@0
	MOV  R27,R@1
	SUBI R26,LOW(-@2)
	SBCI R27,HIGH(-@2)
	CALL __PUTDP1
	.ENDM

	.MACRO __PUTB1RONS
	MOV  R26,R@0
	MOV  R27,R@1
	ADIW R26,@2
	ST   X,R30
	.ENDM

	.MACRO __PUTW1RONS
	MOV  R26,R@0
	MOV  R27,R@1
	ADIW R26,@2
	ST   X+,R30
	ST   X,R31
	.ENDM

	.MACRO __PUTD1RONS
	MOV  R26,R@0
	MOV  R27,R@1
	ADIW R26,@2
	CALL __PUTDP1
	.ENDM


	.MACRO __GETB1SX
	MOVW R30,R28
	SUBI R30,LOW(-@0)
	SBCI R31,HIGH(-@0)
	LD   R30,Z
	.ENDM

	.MACRO __GETB1HSX
	MOVW R30,R28
	SUBI R30,LOW(-@0)
	SBCI R31,HIGH(-@0)
	LD   R31,Z
	.ENDM

	.MACRO __GETW1SX
	MOVW R30,R28
	SUBI R30,LOW(-@0)
	SBCI R31,HIGH(-@0)
	LD   R0,Z+
	LD   R31,Z
	MOV  R30,R0
	.ENDM

	.MACRO __GETD1SX
	MOVW R30,R28
	SUBI R30,LOW(-@0)
	SBCI R31,HIGH(-@0)
	LD   R0,Z+
	LD   R1,Z+
	LD   R22,Z+
	LD   R23,Z
	MOVW R30,R0
	.ENDM

	.MACRO __GETB2SX
	MOVW R26,R28
	SUBI R26,LOW(-@0)
	SBCI R27,HIGH(-@0)
	LD   R26,X
	.ENDM

	.MACRO __GETW2SX
	MOVW R26,R28
	SUBI R26,LOW(-@0)
	SBCI R27,HIGH(-@0)
	LD   R0,X+
	LD   R27,X
	MOV  R26,R0
	.ENDM

	.MACRO __GETD2SX
	MOVW R26,R28
	SUBI R26,LOW(-@0)
	SBCI R27,HIGH(-@0)
	LD   R0,X+
	LD   R1,X+
	LD   R24,X+
	LD   R25,X
	MOVW R26,R0
	.ENDM

	.MACRO __GETBRSX
	MOVW R30,R28
	SUBI R30,LOW(-@1)
	SBCI R31,HIGH(-@1)
	LD   R@0,Z
	.ENDM

	.MACRO __GETWRSX
	MOVW R30,R28
	SUBI R30,LOW(-@2)
	SBCI R31,HIGH(-@2)
	LD   R@0,Z+
	LD   R@1,Z
	.ENDM

	.MACRO __GETBRSX2
	MOVW R26,R28
	SUBI R26,LOW(-@1)
	SBCI R27,HIGH(-@1)
	LD   R@0,X
	.ENDM

	.MACRO __GETWRSX2
	MOVW R26,R28
	SUBI R26,LOW(-@2)
	SBCI R27,HIGH(-@2)
	LD   R@0,X+
	LD   R@1,X
	.ENDM

	.MACRO __LSLW8SX
	MOVW R30,R28
	SUBI R30,LOW(-@0)
	SBCI R31,HIGH(-@0)
	LD   R31,Z
	CLR  R30
	.ENDM

	.MACRO __PUTB1SX
	MOVW R26,R28
	SUBI R26,LOW(-@0)
	SBCI R27,HIGH(-@0)
	ST   X,R30
	.ENDM

	.MACRO __PUTW1SX
	MOVW R26,R28
	SUBI R26,LOW(-@0)
	SBCI R27,HIGH(-@0)
	ST   X+,R30
	ST   X,R31
	.ENDM

	.MACRO __PUTD1SX
	MOVW R26,R28
	SUBI R26,LOW(-@0)
	SBCI R27,HIGH(-@0)
	ST   X+,R30
	ST   X+,R31
	ST   X+,R22
	ST   X,R23
	.ENDM

	.MACRO __CLRW1SX
	MOVW R26,R28
	SUBI R26,LOW(-@0)
	SBCI R27,HIGH(-@0)
	ST   X+,R30
	ST   X,R30
	.ENDM

	.MACRO __CLRD1SX
	MOVW R26,R28
	SUBI R26,LOW(-@0)
	SBCI R27,HIGH(-@0)
	ST   X+,R30
	ST   X+,R30
	ST   X+,R30
	ST   X,R30
	.ENDM

	.MACRO __PUTB2SX
	MOVW R30,R28
	SUBI R30,LOW(-@0)
	SBCI R31,HIGH(-@0)
	ST   Z,R26
	.ENDM

	.MACRO __PUTW2SX
	MOVW R30,R28
	SUBI R30,LOW(-@0)
	SBCI R31,HIGH(-@0)
	ST   Z+,R26
	ST   Z,R27
	.ENDM

	.MACRO __PUTD2SX
	MOVW R30,R28
	SUBI R30,LOW(-@0)
	SBCI R31,HIGH(-@0)
	ST   Z+,R26
	ST   Z+,R27
	ST   Z+,R24
	ST   Z,R25
	.ENDM

	.MACRO __PUTBSRX
	MOVW R30,R28
	SUBI R30,LOW(-@1)
	SBCI R31,HIGH(-@1)
	ST   Z,R@0
	.ENDM

	.MACRO __PUTWSRX
	MOVW R30,R28
	SUBI R30,LOW(-@2)
	SBCI R31,HIGH(-@2)
	ST   Z+,R@0
	ST   Z,R@1
	.ENDM

	.MACRO __PUTB1SNX
	MOVW R26,R28
	SUBI R26,LOW(-@0)
	SBCI R27,HIGH(-@0)
	LD   R0,X+
	LD   R27,X
	MOV  R26,R0
	SUBI R26,LOW(-@1)
	SBCI R27,HIGH(-@1)
	ST   X,R30
	.ENDM

	.MACRO __PUTW1SNX
	MOVW R26,R28
	SUBI R26,LOW(-@0)
	SBCI R27,HIGH(-@0)
	LD   R0,X+
	LD   R27,X
	MOV  R26,R0
	SUBI R26,LOW(-@1)
	SBCI R27,HIGH(-@1)
	ST   X+,R30
	ST   X,R31
	.ENDM

	.MACRO __PUTD1SNX
	MOVW R26,R28
	SUBI R26,LOW(-@0)
	SBCI R27,HIGH(-@0)
	LD   R0,X+
	LD   R27,X
	MOV  R26,R0
	SUBI R26,LOW(-@1)
	SBCI R27,HIGH(-@1)
	ST   X+,R30
	ST   X+,R31
	ST   X+,R22
	ST   X,R23
	.ENDM

	.MACRO __MULBRR
	MULS R@0,R@1
	MOVW R30,R0
	.ENDM

	.MACRO __MULBRRU
	MUL  R@0,R@1
	MOVW R30,R0
	.ENDM

	.MACRO __MULBRR0
	MULS R@0,R@1
	.ENDM

	.MACRO __MULBRRU0
	MUL  R@0,R@1
	.ENDM

	.MACRO __MULBNWRU
	LDI  R26,@2
	MUL  R26,R@0
	MOVW R30,R0
	MUL  R26,R@1
	ADD  R31,R0
	.ENDM

;NAME DEFINITIONS FOR GLOBAL VARIABLES ALLOCATED TO REGISTERS
	.DEF _viena_sekunde1=R4
	.DEF _viena_sekunde2=R6
	.DEF _viena_sekunde4=R8
	.DEF _penkios_minutes=R10
	.DEF _viena_sekunde5=R12

	.CSEG
	.ORG 0x00

;INTERRUPT VECTORS
	JMP  __RESET
	JMP  0x00
	JMP  0x00
	JMP  0x00
	JMP  0x00
	JMP  0x00
	JMP  0x00
	JMP  0x00
	JMP  0x00
	JMP  0x00
	JMP  0x00
	JMP  0x00
	JMP  0x00
	JMP  0x00
	JMP  0x00
	JMP  0x00
	JMP  0x00
	JMP  0x00
	JMP  0x00
	JMP  0x00
	JMP  0x00

__RESET:
	CLI
	CLR  R30
	OUT  EECR,R30

;INTERRUPT VECTORS ARE PLACED
;AT THE START OF FLASH
	LDI  R31,1
	OUT  GICR,R31
	OUT  GICR,R30
	OUT  MCUCR,R30

;DISABLE WATCHDOG
	LDI  R31,0x18
	OUT  WDTCR,R31
	OUT  WDTCR,R30

;CLEAR R2-R14
	LDI  R24,(14-2)+1
	LDI  R26,2
	CLR  R27
__CLEAR_REG:
	ST   X+,R30
	DEC  R24
	BRNE __CLEAR_REG

;CLEAR SRAM
	LDI  R24,LOW(0x800)
	LDI  R25,HIGH(0x800)
	LDI  R26,0x60
__CLEAR_SRAM:
	ST   X+,R30
	SBIW R24,1
	BRNE __CLEAR_SRAM

;STACK POINTER INITIALIZATION
	LDI  R30,LOW(0x85F)
	OUT  SPL,R30
	LDI  R30,HIGH(0x85F)
	OUT  SPH,R30

;DATA STACK POINTER INITIALIZATION
	LDI  R28,LOW(0x260)
	LDI  R29,HIGH(0x260)

	JMP  _main

	.ESEG
	.ORG 0

	.DSEG
	.ORG 0x260

	.CSEG
;/*****************************************************
;Project : Skambutis
;Version : v1.1
;Date    : 2010 - 05 - 27
;Author  : Tomas Vanagas
;E-mail  : tomasvanagas@ymail.com
;Tel.    : 8 695 87284
;
;
;
;Mikroschemos pavadinimas      : ATmega32
;Mikroschemos taktinis daznis  : 8.000000 MHz
;Isorine RAM atmintis          : 0 Baitu
;Vidine RAM atmintis           : 512 Baitu
;Vidine FLASH atmintis         : 33792 Baitai
;*****************************************************/
;
;signed int viena_sekunde1, viena_sekunde2,
;viena_sekunde4, penkios_minutes, viena_sekunde5, puse_sekundes;
;
;long int viena_minute5, viena_sekunde3,;
;
;
;char PILNAS,TUSCIAS,KROVIMAS,ISKROVIMAS,
;BATERIJOS_BUSENA; //AKUMOLIATORIAUS:
;
;char OSC;      //LED DAZNIS:
;
;char
;MYGTUKAS_1, MYGTUKAS_2, MYGTUKAS_3, MYGTUKAS_4,
;MYGTUKAS_5, MYGTUKAS_6, MYGTUKAS_7,
;MYGTUKAS_PASPAUSTAS;     //MYGTUKAI
;
;char segm_a, segm_b, segm_c, segm_d, segm_e,
;segm_f, segm_g, segm_h; // SEGMENTAI
;
;signed char LAIKRODIS, sekundes, minutes, desimtys_minutes,
;valandos, desimtys_valandos; // TIKRO LAIKO KINTAMIEJI
;
;char a; // DUOMENU NESEJO KINTAMASIS
;
;signed char x,y,z,k; // SKAMBUCIO NUSTATYMUI
;signed char a2,b2,c2,d2;//ISPEJAMAJAM SKAMBUCIUI(pries pamoka)
;
;signed char b,d,e,f,g,i; // UZLAIKYMO KINTAMIEJI
;
;signed char REDAGAVIMAS, REDAG_SK_NR,
;EILUTES_SKAICIUS, EIL_SK; // PIRMINIAI KINTAMIEJI
;
;char BLYKCIOTI; // KAI REDAGAVIMAS:
;
;char PENKIOLIKA_SEKUNDZIU;// KAI PASIJUNGIA PARASO "HELLO"
;
;char DESIMT_SEKUNDZIU;//KAI TIKRAS LAIKAS RODOMAS:
;
;char SKAMBUTIS_TURETU_SKAMBETI,
;Sesios_sekundes, SKAMBUTIS_SKAMBA,
;ISPEJAMASIS_SKAMBUTIS; // SKAMBUCIO RELES PRITRAUKIMUI
;
;signed char DB_LAIKO_RODYMAS, UZRAKINTA,UZRAKTO_KODAS_1,
;UZRAKTO_KODAS_2,UZRAKTO_KODAS_3,UZRAKTO_KODAS_4, REDAG_UZRAKT_SKAIC,
;a1,b1,c1,d1; //     UZRAKTAS
;
;char KELINTADIENIO_PERZIURA, KELINTADIENIS;
;signed char KELINTADIENIO_REDAGAVIMAS; // KELINTADIENIS
;
;
;eeprom signed char // Standartiniai skambucio laikai:
;SKAMBUTIS_1dh, SKAMBUTIS_1h, SKAMBUTIS_1dm, SKAMBUTIS_1m,
;SKAMBUTIS_2dh, SKAMBUTIS_2h, SKAMBUTIS_2dm, SKAMBUTIS_2m,
;SKAMBUTIS_3dh, SKAMBUTIS_3h, SKAMBUTIS_3dm, SKAMBUTIS_3m,
;SKAMBUTIS_4dh, SKAMBUTIS_4h, SKAMBUTIS_4dm, SKAMBUTIS_4m,
;SKAMBUTIS_5dh, SKAMBUTIS_5h, SKAMBUTIS_5dm, SKAMBUTIS_5m,
;SKAMBUTIS_6dh, SKAMBUTIS_6h, SKAMBUTIS_6dm, SKAMBUTIS_6m,
;SKAMBUTIS_7dh, SKAMBUTIS_7h, SKAMBUTIS_7dm, SKAMBUTIS_7m,
;SKAMBUTIS_8dh, SKAMBUTIS_8h, SKAMBUTIS_8dm, SKAMBUTIS_8m,
;SKAMBUTIS_9dh, SKAMBUTIS_9h, SKAMBUTIS_9dm, SKAMBUTIS_9m,
;SKAMBUTIS_10dh,SKAMBUTIS_10h,SKAMBUTIS_10dm,SKAMBUTIS_10m,
;SKAMBUTIS_11dh,SKAMBUTIS_11h,SKAMBUTIS_11dm,SKAMBUTIS_11m,
;SKAMBUTIS_12dh,SKAMBUTIS_12h,SKAMBUTIS_12dm,SKAMBUTIS_12m,
;SKAMBUTIS_13dh,SKAMBUTIS_13h,SKAMBUTIS_13dm,SKAMBUTIS_13m,
;SKAMBUTIS_14dh,SKAMBUTIS_14h,SKAMBUTIS_14dm,SKAMBUTIS_14m,
;SKAMBUTIS_15dh,SKAMBUTIS_15h,SKAMBUTIS_15dm,SKAMBUTIS_15m,
;SKAMBUTIS_16dh,SKAMBUTIS_16h,SKAMBUTIS_16dm,SKAMBUTIS_16m,
;SKAMBUTIS_17dh,SKAMBUTIS_17h,SKAMBUTIS_17dm,SKAMBUTIS_17m,
;SKAMBUTIS_18dh,SKAMBUTIS_18h,SKAMBUTIS_18dm,SKAMBUTIS_18m,
;SKAMBUTIS_19dh,SKAMBUTIS_19h,SKAMBUTIS_19dm,SKAMBUTIS_19m,
;SKAMBUTIS_20dh,SKAMBUTIS_20h,SKAMBUTIS_20dm,SKAMBUTIS_20m;
;
;//signed char SKAMBUTIS[20][
;unsigned int krovimo_uzlaikymas0;
;char krovimo_uzlaikymas1, krovimo_uzlaikymas2;
;
;
;#include <mega32.h>
	#ifndef __SLEEP_DEFINED__
	#define __SLEEP_DEFINED__
	.EQU __se_bit=0x80
	.EQU __sm_mask=0x70
	.EQU __sm_powerdown=0x20
	.EQU __sm_powersave=0x30
	.EQU __sm_standby=0x60
	.EQU __sm_ext_standby=0x70
	.EQU __sm_adc_noise_red=0x10
	.SET power_ctrl_reg=mcucr
	#endif
;#include <delay.h>
;
;void main(void)
; 0000 0063 {

	.CSEG
_main:
; 0000 0064 PORTA = 0;
	LDI  R30,LOW(0)
	OUT  0x1B,R30
; 0000 0065 DDRA = 0b10011000;
	LDI  R30,LOW(152)
	OUT  0x1A,R30
; 0000 0066 
; 0000 0067 PORTB = 0;
	LDI  R30,LOW(0)
	OUT  0x18,R30
; 0000 0068 
; 0000 0069 DDRB = 0b11111111;
	LDI  R30,LOW(255)
	OUT  0x17,R30
; 0000 006A 
; 0000 006B PORTC = 0x00;
	LDI  R30,LOW(0)
	OUT  0x15,R30
; 0000 006C DDRC = 0b11111110;
	LDI  R30,LOW(254)
	OUT  0x14,R30
; 0000 006D 
; 0000 006E PORTD=0x00;
	LDI  R30,LOW(0)
	OUT  0x12,R30
; 0000 006F DDRD = 0b11111111;
	LDI  R30,LOW(255)
	OUT  0x11,R30
; 0000 0070 
; 0000 0071 TCCR0=0x00;
	LDI  R30,LOW(0)
	OUT  0x33,R30
; 0000 0072 TCNT0=0x00;
	OUT  0x32,R30
; 0000 0073 OCR0=0x00;
	OUT  0x3C,R30
; 0000 0074 
; 0000 0075 TCCR1A=0x00;
	OUT  0x2F,R30
; 0000 0076 TCCR1B=0x00;
	OUT  0x2E,R30
; 0000 0077 TCNT1H=0x00;
	OUT  0x2D,R30
; 0000 0078 TCNT1L=0x00;
	OUT  0x2C,R30
; 0000 0079 ICR1H=0x00;
	OUT  0x27,R30
; 0000 007A ICR1L=0x00;
	OUT  0x26,R30
; 0000 007B OCR1AH=0x00;
	OUT  0x2B,R30
; 0000 007C OCR1AL=0x00;
	OUT  0x2A,R30
; 0000 007D OCR1BH=0x00;
	OUT  0x29,R30
; 0000 007E OCR1BL=0x00;
	OUT  0x28,R30
; 0000 007F 
; 0000 0080 ASSR=0x00;
	OUT  0x22,R30
; 0000 0081 TCCR2=0x00;
	OUT  0x25,R30
; 0000 0082 TCNT2=0x00;
	OUT  0x24,R30
; 0000 0083 OCR2=0x00;
	OUT  0x23,R30
; 0000 0084 
; 0000 0085 MCUCR=0x00;
	OUT  0x35,R30
; 0000 0086 MCUCSR=0x00;
	OUT  0x34,R30
; 0000 0087 
; 0000 0088 TIMSK=0x00;
	OUT  0x39,R30
; 0000 0089 
; 0000 008A ACSR=0x00;
	OUT  0x8,R30
; 0000 008B SFIOR=0x00;
	OUT  0x30,R30
; 0000 008C 
; 0000 008D 
; 0000 008E 
; 0000 008F // STANDARTINIS LAIKAS:
; 0000 0090 SKAMBUTIS_1dh = 0;
	LDI  R26,LOW(_SKAMBUTIS_1dh)
	LDI  R27,HIGH(_SKAMBUTIS_1dh)
	CALL __EEPROMWRB
; 0000 0091 SKAMBUTIS_1h  = 8;
	LDI  R26,LOW(_SKAMBUTIS_1h)
	LDI  R27,HIGH(_SKAMBUTIS_1h)
	LDI  R30,LOW(8)
	CALL __EEPROMWRB
; 0000 0092 SKAMBUTIS_1dm = 0;        // 8:00
	LDI  R26,LOW(_SKAMBUTIS_1dm)
	LDI  R27,HIGH(_SKAMBUTIS_1dm)
	LDI  R30,LOW(0)
	CALL __EEPROMWRB
; 0000 0093 SKAMBUTIS_1m  = 0;
	LDI  R26,LOW(_SKAMBUTIS_1m)
	LDI  R27,HIGH(_SKAMBUTIS_1m)
	CALL __EEPROMWRB
; 0000 0094 
; 0000 0095 SKAMBUTIS_2dh = 0;
	LDI  R26,LOW(_SKAMBUTIS_2dh)
	LDI  R27,HIGH(_SKAMBUTIS_2dh)
	CALL __EEPROMWRB
; 0000 0096 SKAMBUTIS_2h  = 8;
	LDI  R26,LOW(_SKAMBUTIS_2h)
	LDI  R27,HIGH(_SKAMBUTIS_2h)
	LDI  R30,LOW(8)
	CALL __EEPROMWRB
; 0000 0097 SKAMBUTIS_2dm = 4;        // 8:45
	LDI  R26,LOW(_SKAMBUTIS_2dm)
	LDI  R27,HIGH(_SKAMBUTIS_2dm)
	LDI  R30,LOW(4)
	CALL __EEPROMWRB
; 0000 0098 SKAMBUTIS_2m  = 5;
	LDI  R26,LOW(_SKAMBUTIS_2m)
	LDI  R27,HIGH(_SKAMBUTIS_2m)
	LDI  R30,LOW(5)
	CALL __EEPROMWRB
; 0000 0099 
; 0000 009A SKAMBUTIS_3dh = 0;
	LDI  R26,LOW(_SKAMBUTIS_3dh)
	LDI  R27,HIGH(_SKAMBUTIS_3dh)
	LDI  R30,LOW(0)
	CALL __EEPROMWRB
; 0000 009B SKAMBUTIS_3h  = 8;
	LDI  R26,LOW(_SKAMBUTIS_3h)
	LDI  R27,HIGH(_SKAMBUTIS_3h)
	LDI  R30,LOW(8)
	CALL __EEPROMWRB
; 0000 009C SKAMBUTIS_3dm = 5;        // 8:55
	LDI  R26,LOW(_SKAMBUTIS_3dm)
	LDI  R27,HIGH(_SKAMBUTIS_3dm)
	LDI  R30,LOW(5)
	CALL __EEPROMWRB
; 0000 009D SKAMBUTIS_3m  = 5;
	LDI  R26,LOW(_SKAMBUTIS_3m)
	LDI  R27,HIGH(_SKAMBUTIS_3m)
	CALL __EEPROMWRB
; 0000 009E 
; 0000 009F SKAMBUTIS_4dh = 0;
	LDI  R26,LOW(_SKAMBUTIS_4dh)
	LDI  R27,HIGH(_SKAMBUTIS_4dh)
	LDI  R30,LOW(0)
	CALL __EEPROMWRB
; 0000 00A0 SKAMBUTIS_4h  = 9;
	LDI  R26,LOW(_SKAMBUTIS_4h)
	LDI  R27,HIGH(_SKAMBUTIS_4h)
	LDI  R30,LOW(9)
	CALL __EEPROMWRB
; 0000 00A1 SKAMBUTIS_4dm = 4;        // 9:40
	LDI  R26,LOW(_SKAMBUTIS_4dm)
	LDI  R27,HIGH(_SKAMBUTIS_4dm)
	LDI  R30,LOW(4)
	CALL __EEPROMWRB
; 0000 00A2 SKAMBUTIS_4m  = 0;
	LDI  R26,LOW(_SKAMBUTIS_4m)
	LDI  R27,HIGH(_SKAMBUTIS_4m)
	LDI  R30,LOW(0)
	CALL __EEPROMWRB
; 0000 00A3 
; 0000 00A4 SKAMBUTIS_5dh = 1;
	LDI  R26,LOW(_SKAMBUTIS_5dh)
	LDI  R27,HIGH(_SKAMBUTIS_5dh)
	LDI  R30,LOW(1)
	CALL __EEPROMWRB
; 0000 00A5 SKAMBUTIS_5h  = 0;
	LDI  R26,LOW(_SKAMBUTIS_5h)
	LDI  R27,HIGH(_SKAMBUTIS_5h)
	LDI  R30,LOW(0)
	CALL __EEPROMWRB
; 0000 00A6 SKAMBUTIS_5dm = 0;        // 10:00
	LDI  R26,LOW(_SKAMBUTIS_5dm)
	LDI  R27,HIGH(_SKAMBUTIS_5dm)
	CALL __EEPROMWRB
; 0000 00A7 SKAMBUTIS_5m  = 0;
	LDI  R26,LOW(_SKAMBUTIS_5m)
	LDI  R27,HIGH(_SKAMBUTIS_5m)
	CALL __EEPROMWRB
; 0000 00A8 
; 0000 00A9 SKAMBUTIS_6dh = 1;
	LDI  R26,LOW(_SKAMBUTIS_6dh)
	LDI  R27,HIGH(_SKAMBUTIS_6dh)
	LDI  R30,LOW(1)
	CALL __EEPROMWRB
; 0000 00AA SKAMBUTIS_6h  = 0;
	LDI  R26,LOW(_SKAMBUTIS_6h)
	LDI  R27,HIGH(_SKAMBUTIS_6h)
	LDI  R30,LOW(0)
	CALL __EEPROMWRB
; 0000 00AB SKAMBUTIS_6dm = 4;        // 10:45
	LDI  R26,LOW(_SKAMBUTIS_6dm)
	LDI  R27,HIGH(_SKAMBUTIS_6dm)
	LDI  R30,LOW(4)
	CALL __EEPROMWRB
; 0000 00AC SKAMBUTIS_6m  = 5;
	LDI  R26,LOW(_SKAMBUTIS_6m)
	LDI  R27,HIGH(_SKAMBUTIS_6m)
	LDI  R30,LOW(5)
	CALL __EEPROMWRB
; 0000 00AD 
; 0000 00AE SKAMBUTIS_7dh = 1;
	LDI  R26,LOW(_SKAMBUTIS_7dh)
	LDI  R27,HIGH(_SKAMBUTIS_7dh)
	LDI  R30,LOW(1)
	CALL __EEPROMWRB
; 0000 00AF SKAMBUTIS_7h  = 1;
	LDI  R26,LOW(_SKAMBUTIS_7h)
	LDI  R27,HIGH(_SKAMBUTIS_7h)
	CALL __EEPROMWRB
; 0000 00B0 SKAMBUTIS_7dm = 1;        // 11:15
	LDI  R26,LOW(_SKAMBUTIS_7dm)
	LDI  R27,HIGH(_SKAMBUTIS_7dm)
	CALL __EEPROMWRB
; 0000 00B1 SKAMBUTIS_7m  = 5;
	LDI  R26,LOW(_SKAMBUTIS_7m)
	LDI  R27,HIGH(_SKAMBUTIS_7m)
	LDI  R30,LOW(5)
	CALL __EEPROMWRB
; 0000 00B2 
; 0000 00B3 SKAMBUTIS_8dh = 1;
	LDI  R26,LOW(_SKAMBUTIS_8dh)
	LDI  R27,HIGH(_SKAMBUTIS_8dh)
	LDI  R30,LOW(1)
	CALL __EEPROMWRB
; 0000 00B4 SKAMBUTIS_8h  = 2;
	LDI  R26,LOW(_SKAMBUTIS_8h)
	LDI  R27,HIGH(_SKAMBUTIS_8h)
	LDI  R30,LOW(2)
	CALL __EEPROMWRB
; 0000 00B5 SKAMBUTIS_8dm = 0;        // 12:00
	LDI  R26,LOW(_SKAMBUTIS_8dm)
	LDI  R27,HIGH(_SKAMBUTIS_8dm)
	LDI  R30,LOW(0)
	CALL __EEPROMWRB
; 0000 00B6 SKAMBUTIS_8m  = 0;
	LDI  R26,LOW(_SKAMBUTIS_8m)
	LDI  R27,HIGH(_SKAMBUTIS_8m)
	CALL __EEPROMWRB
; 0000 00B7 
; 0000 00B8 SKAMBUTIS_9dh = 1;
	LDI  R26,LOW(_SKAMBUTIS_9dh)
	LDI  R27,HIGH(_SKAMBUTIS_9dh)
	LDI  R30,LOW(1)
	CALL __EEPROMWRB
; 0000 00B9 SKAMBUTIS_9h  = 2;
	LDI  R26,LOW(_SKAMBUTIS_9h)
	LDI  R27,HIGH(_SKAMBUTIS_9h)
	LDI  R30,LOW(2)
	CALL __EEPROMWRB
; 0000 00BA SKAMBUTIS_9dm = 1;        // 12:10
	LDI  R26,LOW(_SKAMBUTIS_9dm)
	LDI  R27,HIGH(_SKAMBUTIS_9dm)
	LDI  R30,LOW(1)
	CALL __EEPROMWRB
; 0000 00BB SKAMBUTIS_9m  = 0;
	LDI  R26,LOW(_SKAMBUTIS_9m)
	LDI  R27,HIGH(_SKAMBUTIS_9m)
	LDI  R30,LOW(0)
	CALL __EEPROMWRB
; 0000 00BC 
; 0000 00BD SKAMBUTIS_10dh = 1;
	LDI  R26,LOW(_SKAMBUTIS_10dh)
	LDI  R27,HIGH(_SKAMBUTIS_10dh)
	LDI  R30,LOW(1)
	CALL __EEPROMWRB
; 0000 00BE SKAMBUTIS_10h  = 2;
	LDI  R26,LOW(_SKAMBUTIS_10h)
	LDI  R27,HIGH(_SKAMBUTIS_10h)
	LDI  R30,LOW(2)
	CALL __EEPROMWRB
; 0000 00BF SKAMBUTIS_10dm = 5;       // 12:55
	LDI  R26,LOW(_SKAMBUTIS_10dm)
	LDI  R27,HIGH(_SKAMBUTIS_10dm)
	LDI  R30,LOW(5)
	CALL __EEPROMWRB
; 0000 00C0 SKAMBUTIS_10m  = 5;
	LDI  R26,LOW(_SKAMBUTIS_10m)
	LDI  R27,HIGH(_SKAMBUTIS_10m)
	CALL __EEPROMWRB
; 0000 00C1 
; 0000 00C2 SKAMBUTIS_11dh = 1;
	LDI  R26,LOW(_SKAMBUTIS_11dh)
	LDI  R27,HIGH(_SKAMBUTIS_11dh)
	LDI  R30,LOW(1)
	CALL __EEPROMWRB
; 0000 00C3 SKAMBUTIS_11h  = 3;
	LDI  R26,LOW(_SKAMBUTIS_11h)
	LDI  R27,HIGH(_SKAMBUTIS_11h)
	LDI  R30,LOW(3)
	CALL __EEPROMWRB
; 0000 00C4 SKAMBUTIS_11dm = 0;       // 13:05
	LDI  R26,LOW(_SKAMBUTIS_11dm)
	LDI  R27,HIGH(_SKAMBUTIS_11dm)
	LDI  R30,LOW(0)
	CALL __EEPROMWRB
; 0000 00C5 SKAMBUTIS_11m  = 5;
	LDI  R26,LOW(_SKAMBUTIS_11m)
	LDI  R27,HIGH(_SKAMBUTIS_11m)
	LDI  R30,LOW(5)
	CALL __EEPROMWRB
; 0000 00C6 
; 0000 00C7 SKAMBUTIS_12dh = 1;
	LDI  R26,LOW(_SKAMBUTIS_12dh)
	LDI  R27,HIGH(_SKAMBUTIS_12dh)
	LDI  R30,LOW(1)
	CALL __EEPROMWRB
; 0000 00C8 SKAMBUTIS_12h  = 3;
	LDI  R26,LOW(_SKAMBUTIS_12h)
	LDI  R27,HIGH(_SKAMBUTIS_12h)
	LDI  R30,LOW(3)
	CALL __EEPROMWRB
; 0000 00C9 SKAMBUTIS_12dm = 5;       // 13:50
	LDI  R26,LOW(_SKAMBUTIS_12dm)
	LDI  R27,HIGH(_SKAMBUTIS_12dm)
	LDI  R30,LOW(5)
	CALL __EEPROMWRB
; 0000 00CA SKAMBUTIS_12m  = 0;
	LDI  R26,LOW(_SKAMBUTIS_12m)
	LDI  R27,HIGH(_SKAMBUTIS_12m)
	LDI  R30,LOW(0)
	CALL __EEPROMWRB
; 0000 00CB 
; 0000 00CC SKAMBUTIS_13dh = 1;
	LDI  R26,LOW(_SKAMBUTIS_13dh)
	LDI  R27,HIGH(_SKAMBUTIS_13dh)
	LDI  R30,LOW(1)
	CALL __EEPROMWRB
; 0000 00CD SKAMBUTIS_13h  = 4;
	LDI  R26,LOW(_SKAMBUTIS_13h)
	LDI  R27,HIGH(_SKAMBUTIS_13h)
	LDI  R30,LOW(4)
	CALL __EEPROMWRB
; 0000 00CE SKAMBUTIS_13dm = 0;       // 14:00
	LDI  R26,LOW(_SKAMBUTIS_13dm)
	LDI  R27,HIGH(_SKAMBUTIS_13dm)
	LDI  R30,LOW(0)
	CALL __EEPROMWRB
; 0000 00CF SKAMBUTIS_13m  = 0;
	LDI  R26,LOW(_SKAMBUTIS_13m)
	LDI  R27,HIGH(_SKAMBUTIS_13m)
	CALL __EEPROMWRB
; 0000 00D0 
; 0000 00D1 SKAMBUTIS_14dh = 1;
	LDI  R26,LOW(_SKAMBUTIS_14dh)
	LDI  R27,HIGH(_SKAMBUTIS_14dh)
	LDI  R30,LOW(1)
	CALL __EEPROMWRB
; 0000 00D2 SKAMBUTIS_14h  = 4;
	LDI  R26,LOW(_SKAMBUTIS_14h)
	LDI  R27,HIGH(_SKAMBUTIS_14h)
	LDI  R30,LOW(4)
	CALL __EEPROMWRB
; 0000 00D3 SKAMBUTIS_14dm = 4;       // 14:45
	LDI  R26,LOW(_SKAMBUTIS_14dm)
	LDI  R27,HIGH(_SKAMBUTIS_14dm)
	CALL __EEPROMWRB
; 0000 00D4 SKAMBUTIS_14m  = 5;
	LDI  R26,LOW(_SKAMBUTIS_14m)
	LDI  R27,HIGH(_SKAMBUTIS_14m)
	LDI  R30,LOW(5)
	CALL __EEPROMWRB
; 0000 00D5 
; 0000 00D6 SKAMBUTIS_15dh = 1;
	LDI  R26,LOW(_SKAMBUTIS_15dh)
	LDI  R27,HIGH(_SKAMBUTIS_15dh)
	LDI  R30,LOW(1)
	CALL __EEPROMWRB
; 0000 00D7 SKAMBUTIS_15h  = 4;
	LDI  R26,LOW(_SKAMBUTIS_15h)
	LDI  R27,HIGH(_SKAMBUTIS_15h)
	LDI  R30,LOW(4)
	CALL __EEPROMWRB
; 0000 00D8 SKAMBUTIS_15dm = 5;       // 14:50
	LDI  R26,LOW(_SKAMBUTIS_15dm)
	LDI  R27,HIGH(_SKAMBUTIS_15dm)
	LDI  R30,LOW(5)
	CALL __EEPROMWRB
; 0000 00D9 SKAMBUTIS_15m  = 0;
	LDI  R26,LOW(_SKAMBUTIS_15m)
	LDI  R27,HIGH(_SKAMBUTIS_15m)
	LDI  R30,LOW(0)
	CALL __EEPROMWRB
; 0000 00DA 
; 0000 00DB SKAMBUTIS_16dh = 1;
	LDI  R26,LOW(_SKAMBUTIS_16dh)
	LDI  R27,HIGH(_SKAMBUTIS_16dh)
	LDI  R30,LOW(1)
	CALL __EEPROMWRB
; 0000 00DC SKAMBUTIS_16h  = 5;
	LDI  R26,LOW(_SKAMBUTIS_16h)
	LDI  R27,HIGH(_SKAMBUTIS_16h)
	LDI  R30,LOW(5)
	CALL __EEPROMWRB
; 0000 00DD SKAMBUTIS_16dm = 3;       // 15:35
	LDI  R26,LOW(_SKAMBUTIS_16dm)
	LDI  R27,HIGH(_SKAMBUTIS_16dm)
	LDI  R30,LOW(3)
	CALL __EEPROMWRB
; 0000 00DE SKAMBUTIS_16m  = 5;
	LDI  R26,LOW(_SKAMBUTIS_16m)
	LDI  R27,HIGH(_SKAMBUTIS_16m)
	LDI  R30,LOW(5)
	CALL __EEPROMWRB
; 0000 00DF 
; 0000 00E0 SKAMBUTIS_17dh = 1;
	LDI  R26,LOW(_SKAMBUTIS_17dh)
	LDI  R27,HIGH(_SKAMBUTIS_17dh)
	LDI  R30,LOW(1)
	CALL __EEPROMWRB
; 0000 00E1 SKAMBUTIS_17h  = 5;
	LDI  R26,LOW(_SKAMBUTIS_17h)
	LDI  R27,HIGH(_SKAMBUTIS_17h)
	LDI  R30,LOW(5)
	CALL __EEPROMWRB
; 0000 00E2 SKAMBUTIS_17dm = 4;       // 15:40
	LDI  R26,LOW(_SKAMBUTIS_17dm)
	LDI  R27,HIGH(_SKAMBUTIS_17dm)
	LDI  R30,LOW(4)
	CALL __EEPROMWRB
; 0000 00E3 SKAMBUTIS_17m  = 0;
	LDI  R26,LOW(_SKAMBUTIS_17m)
	LDI  R27,HIGH(_SKAMBUTIS_17m)
	LDI  R30,LOW(0)
	CALL __EEPROMWRB
; 0000 00E4 
; 0000 00E5 SKAMBUTIS_18dh = 1;
	LDI  R26,LOW(_SKAMBUTIS_18dh)
	LDI  R27,HIGH(_SKAMBUTIS_18dh)
	LDI  R30,LOW(1)
	CALL __EEPROMWRB
; 0000 00E6 SKAMBUTIS_18h  = 6;
	LDI  R26,LOW(_SKAMBUTIS_18h)
	LDI  R27,HIGH(_SKAMBUTIS_18h)
	LDI  R30,LOW(6)
	CALL __EEPROMWRB
; 0000 00E7 SKAMBUTIS_18dm = 2;       // 16:25
	LDI  R26,LOW(_SKAMBUTIS_18dm)
	LDI  R27,HIGH(_SKAMBUTIS_18dm)
	LDI  R30,LOW(2)
	CALL __EEPROMWRB
; 0000 00E8 SKAMBUTIS_18m  = 5;
	LDI  R26,LOW(_SKAMBUTIS_18m)
	LDI  R27,HIGH(_SKAMBUTIS_18m)
	LDI  R30,LOW(5)
	CALL __EEPROMWRB
; 0000 00E9 
; 0000 00EA SKAMBUTIS_19dh = 1;
	LDI  R26,LOW(_SKAMBUTIS_19dh)
	LDI  R27,HIGH(_SKAMBUTIS_19dh)
	LDI  R30,LOW(1)
	CALL __EEPROMWRB
; 0000 00EB SKAMBUTIS_19h  = 5;
	LDI  R26,LOW(_SKAMBUTIS_19h)
	LDI  R27,HIGH(_SKAMBUTIS_19h)
	LDI  R30,LOW(5)
	CALL __EEPROMWRB
; 0000 00EC SKAMBUTIS_19dm = 4;       // 15:40
	LDI  R26,LOW(_SKAMBUTIS_19dm)
	LDI  R27,HIGH(_SKAMBUTIS_19dm)
	LDI  R30,LOW(4)
	CALL __EEPROMWRB
; 0000 00ED SKAMBUTIS_19m  = 0;
	LDI  R26,LOW(_SKAMBUTIS_19m)
	LDI  R27,HIGH(_SKAMBUTIS_19m)
	LDI  R30,LOW(0)
	CALL __EEPROMWRB
; 0000 00EE 
; 0000 00EF 
; 0000 00F0 SKAMBUTIS_20dh = 1;
	LDI  R26,LOW(_SKAMBUTIS_20dh)
	LDI  R27,HIGH(_SKAMBUTIS_20dh)
	LDI  R30,LOW(1)
	CALL __EEPROMWRB
; 0000 00F1 SKAMBUTIS_20h  = 6;
	LDI  R26,LOW(_SKAMBUTIS_20h)
	LDI  R27,HIGH(_SKAMBUTIS_20h)
	LDI  R30,LOW(6)
	CALL __EEPROMWRB
; 0000 00F2 SKAMBUTIS_20dm = 2;       // 16:25
	LDI  R26,LOW(_SKAMBUTIS_20dm)
	LDI  R27,HIGH(_SKAMBUTIS_20dm)
	LDI  R30,LOW(2)
	CALL __EEPROMWRB
; 0000 00F3 SKAMBUTIS_20m  = 5;
	LDI  R26,LOW(_SKAMBUTIS_20m)
	LDI  R27,HIGH(_SKAMBUTIS_20m)
	LDI  R30,LOW(5)
	CALL __EEPROMWRB
; 0000 00F4 
; 0000 00F5 UZRAKINTA = 1;
	LDI  R30,LOW(1)
	STS  _UZRAKINTA,R30
; 0000 00F6 KELINTADIENIS = 1;
	STS  _KELINTADIENIS,R30
; 0000 00F7 
; 0000 00F8 
; 0000 00F9 
; 0000 00FA 
; 0000 00FB 
; 0000 00FC UZRAKTO_KODAS_1 = 1;
	STS  _UZRAKTO_KODAS_1,R30
; 0000 00FD UZRAKTO_KODAS_2 = 9;
	LDI  R30,LOW(9)
	STS  _UZRAKTO_KODAS_2,R30
; 0000 00FE UZRAKTO_KODAS_3 = 1;      //UZRAKTO KODAS
	LDI  R30,LOW(1)
	STS  _UZRAKTO_KODAS_3,R30
; 0000 00FF UZRAKTO_KODAS_4 = 9;
	LDI  R30,LOW(9)
	STS  _UZRAKTO_KODAS_4,R30
; 0000 0100 
; 0000 0101 
; 0000 0102       do{
_0x4:
; 0000 0103       DB_LAIKO_RODYMAS = 1;
	LDI  R30,LOW(1)
	STS  _DB_LAIKO_RODYMAS,R30
; 0000 0104       OSC = OSC + 1 ;
	LDS  R30,_OSC
	SUBI R30,-LOW(1)
	STS  _OSC,R30
; 0000 0105       delay_us(10);
	__DELAY_USB 27
; 0000 0106       if(OSC==32){
	LDS  R26,_OSC
	CPI  R26,LOW(0x20)
	BRNE _0x6
; 0000 0107       OSC=0;}
	LDI  R30,LOW(0)
	STS  _OSC,R30
; 0000 0108 
; 0000 0109 
; 0000 010A       if(PENKIOLIKA_SEKUNDZIU<15){
_0x6:
	LDS  R26,_PENKIOLIKA_SEKUNDZIU
	CPI  R26,LOW(0xF)
	BRSH _0x7
; 0000 010B       viena_sekunde2 = viena_sekunde2 + 1;
	MOVW R30,R6
	ADIW R30,1
	MOVW R6,R30
; 0000 010C       if(viena_sekunde2==1300){
	LDI  R30,LOW(1300)
	LDI  R31,HIGH(1300)
	CP   R30,R6
	CPC  R31,R7
	BRNE _0x8
; 0000 010D       PENKIOLIKA_SEKUNDZIU = PENKIOLIKA_SEKUNDZIU + 1;
	LDS  R30,_PENKIOLIKA_SEKUNDZIU
	SUBI R30,-LOW(1)
	STS  _PENKIOLIKA_SEKUNDZIU,R30
; 0000 010E       viena_sekunde2 = 0;}}
	CLR  R6
	CLR  R7
_0x8:
; 0000 010F 
; 0000 0110       if(PENKIOLIKA_SEKUNDZIU==2){
_0x7:
	LDS  R26,_PENKIOLIKA_SEKUNDZIU
	CPI  R26,LOW(0x2)
	BRNE _0x9
; 0000 0111       if(OSC==28){
	LDS  R26,_OSC
	CPI  R26,LOW(0x1C)
	BRNE _0xA
; 0000 0112       a = 17;}}
	LDI  R30,LOW(17)
	STS  _a,R30
_0xA:
; 0000 0113       if(PENKIOLIKA_SEKUNDZIU==3){
_0x9:
	LDS  R26,_PENKIOLIKA_SEKUNDZIU
	CPI  R26,LOW(0x3)
	BRNE _0xB
; 0000 0114       if(OSC==24){
	LDS  R26,_OSC
	CPI  R26,LOW(0x18)
	BRNE _0xC
; 0000 0115       a = 17;}
	LDI  R30,LOW(17)
	STS  _a,R30
; 0000 0116       if(OSC==28){
_0xC:
	LDS  R26,_OSC
	CPI  R26,LOW(0x1C)
	BRNE _0xD
; 0000 0117       a = 15;}}
	LDI  R30,LOW(15)
	STS  _a,R30
_0xD:
; 0000 0118       if(PENKIOLIKA_SEKUNDZIU==4){
_0xB:
	LDS  R26,_PENKIOLIKA_SEKUNDZIU
	CPI  R26,LOW(0x4)
	BRNE _0xE
; 0000 0119       if(OSC==20){
	LDS  R26,_OSC
	CPI  R26,LOW(0x14)
	BRNE _0xF
; 0000 011A       a = 17;}
	LDI  R30,LOW(17)
	STS  _a,R30
; 0000 011B       if(OSC==24){
_0xF:
	LDS  R26,_OSC
	CPI  R26,LOW(0x18)
	BRNE _0x10
; 0000 011C       a = 15;}
	LDI  R30,LOW(15)
	STS  _a,R30
; 0000 011D       if(OSC==28){
_0x10:
	LDS  R26,_OSC
	CPI  R26,LOW(0x1C)
	BRNE _0x11
; 0000 011E       a = 22;}}
	LDI  R30,LOW(22)
	STS  _a,R30
_0x11:
; 0000 011F       if(PENKIOLIKA_SEKUNDZIU==5){
_0xE:
	LDS  R26,_PENKIOLIKA_SEKUNDZIU
	CPI  R26,LOW(0x5)
	BRNE _0x12
; 0000 0120       if(OSC==16){
	LDS  R26,_OSC
	CPI  R26,LOW(0x10)
	BRNE _0x13
; 0000 0121       a = 17;}
	LDI  R30,LOW(17)
	STS  _a,R30
; 0000 0122       if(OSC==20){
_0x13:
	LDS  R26,_OSC
	CPI  R26,LOW(0x14)
	BRNE _0x14
; 0000 0123       a = 15;}
	LDI  R30,LOW(15)
	STS  _a,R30
; 0000 0124       if(OSC==24){
_0x14:
	LDS  R26,_OSC
	CPI  R26,LOW(0x18)
	BRNE _0x15
; 0000 0125       a = 22;}
	LDI  R30,LOW(22)
	STS  _a,R30
; 0000 0126       if(OSC==28){
_0x15:
	LDS  R26,_OSC
	CPI  R26,LOW(0x1C)
	BRNE _0x16
; 0000 0127       a = 22;}}
	LDI  R30,LOW(22)
	STS  _a,R30
_0x16:
; 0000 0128       if(PENKIOLIKA_SEKUNDZIU==6){
_0x12:
	LDS  R26,_PENKIOLIKA_SEKUNDZIU
	CPI  R26,LOW(0x6)
	BRNE _0x17
; 0000 0129       if(OSC==12){
	LDS  R26,_OSC
	CPI  R26,LOW(0xC)
	BRNE _0x18
; 0000 012A       a = 17;}
	LDI  R30,LOW(17)
	STS  _a,R30
; 0000 012B       if(OSC==16){
_0x18:
	LDS  R26,_OSC
	CPI  R26,LOW(0x10)
	BRNE _0x19
; 0000 012C       a = 15;}
	LDI  R30,LOW(15)
	STS  _a,R30
; 0000 012D       if(OSC==20){
_0x19:
	LDS  R26,_OSC
	CPI  R26,LOW(0x14)
	BRNE _0x1A
; 0000 012E       a = 22;}
	LDI  R30,LOW(22)
	STS  _a,R30
; 0000 012F       if(OSC==24){
_0x1A:
	LDS  R26,_OSC
	CPI  R26,LOW(0x18)
	BRNE _0x1B
; 0000 0130       a = 22;}
	LDI  R30,LOW(22)
	STS  _a,R30
; 0000 0131       if(OSC==28){
_0x1B:
	LDS  R26,_OSC
	CPI  R26,LOW(0x1C)
	BRNE _0x1C
; 0000 0132       a = 0;}}
	LDI  R30,LOW(0)
	STS  _a,R30
_0x1C:
; 0000 0133       if(PENKIOLIKA_SEKUNDZIU==7){
_0x17:
	LDS  R26,_PENKIOLIKA_SEKUNDZIU
	CPI  R26,LOW(0x7)
	BRNE _0x1D
; 0000 0134       if(OSC==8){
	LDS  R26,_OSC
	CPI  R26,LOW(0x8)
	BRNE _0x1E
; 0000 0135       a = 17;}
	LDI  R30,LOW(17)
	STS  _a,R30
; 0000 0136       if(OSC==12){
_0x1E:
	LDS  R26,_OSC
	CPI  R26,LOW(0xC)
	BRNE _0x1F
; 0000 0137       a = 15;}
	LDI  R30,LOW(15)
	STS  _a,R30
; 0000 0138       if(OSC==16){
_0x1F:
	LDS  R26,_OSC
	CPI  R26,LOW(0x10)
	BRNE _0x20
; 0000 0139       a = 22;}
	LDI  R30,LOW(22)
	STS  _a,R30
; 0000 013A       if(OSC==20){
_0x20:
	LDS  R26,_OSC
	CPI  R26,LOW(0x14)
	BRNE _0x21
; 0000 013B       a = 22;}
	LDI  R30,LOW(22)
	STS  _a,R30
; 0000 013C       if(OSC==24){
_0x21:
	LDS  R26,_OSC
	CPI  R26,LOW(0x18)
	BRNE _0x22
; 0000 013D       a = 0;}}
	LDI  R30,LOW(0)
	STS  _a,R30
_0x22:
; 0000 013E       if(PENKIOLIKA_SEKUNDZIU==8){
_0x1D:
	LDS  R26,_PENKIOLIKA_SEKUNDZIU
	CPI  R26,LOW(0x8)
	BRNE _0x23
; 0000 013F       if(OSC==4){
	LDS  R26,_OSC
	CPI  R26,LOW(0x4)
	BRNE _0x24
; 0000 0140       a = 17;}
	LDI  R30,LOW(17)
	STS  _a,R30
; 0000 0141       if(OSC==8){
_0x24:
	LDS  R26,_OSC
	CPI  R26,LOW(0x8)
	BRNE _0x25
; 0000 0142       a = 15;}
	LDI  R30,LOW(15)
	STS  _a,R30
; 0000 0143       if(OSC==12){
_0x25:
	LDS  R26,_OSC
	CPI  R26,LOW(0xC)
	BRNE _0x26
; 0000 0144       a = 22;}
	LDI  R30,LOW(22)
	STS  _a,R30
; 0000 0145       if(OSC==16){
_0x26:
	LDS  R26,_OSC
	CPI  R26,LOW(0x10)
	BRNE _0x27
; 0000 0146       a = 22;}
	LDI  R30,LOW(22)
	STS  _a,R30
; 0000 0147       if(OSC==20){
_0x27:
	LDS  R26,_OSC
	CPI  R26,LOW(0x14)
	BRNE _0x28
; 0000 0148       a = 0;}}
	LDI  R30,LOW(0)
	STS  _a,R30
_0x28:
; 0000 0149       if(PENKIOLIKA_SEKUNDZIU==9){
_0x23:
	LDS  R26,_PENKIOLIKA_SEKUNDZIU
	CPI  R26,LOW(0x9)
	BRNE _0x29
; 0000 014A       if(OSC==0){
	LDS  R30,_OSC
	CPI  R30,0
	BRNE _0x2A
; 0000 014B       a = 17;}
	LDI  R30,LOW(17)
	STS  _a,R30
; 0000 014C       if(OSC==4){
_0x2A:
	LDS  R26,_OSC
	CPI  R26,LOW(0x4)
	BRNE _0x2B
; 0000 014D       a = 15;}
	LDI  R30,LOW(15)
	STS  _a,R30
; 0000 014E       if(OSC==8){
_0x2B:
	LDS  R26,_OSC
	CPI  R26,LOW(0x8)
	BRNE _0x2C
; 0000 014F       a = 22;}
	LDI  R30,LOW(22)
	STS  _a,R30
; 0000 0150       if(OSC==12){
_0x2C:
	LDS  R26,_OSC
	CPI  R26,LOW(0xC)
	BRNE _0x2D
; 0000 0151       a = 22;}
	LDI  R30,LOW(22)
	STS  _a,R30
; 0000 0152       if(OSC==16){
_0x2D:
	LDS  R26,_OSC
	CPI  R26,LOW(0x10)
	BRNE _0x2E
; 0000 0153       a = 0;}}
	LDI  R30,LOW(0)
	STS  _a,R30
_0x2E:
; 0000 0154       if(PENKIOLIKA_SEKUNDZIU==10){
_0x29:
	LDS  R26,_PENKIOLIKA_SEKUNDZIU
	CPI  R26,LOW(0xA)
	BRNE _0x2F
; 0000 0155       if(OSC==0){
	LDS  R30,_OSC
	CPI  R30,0
	BRNE _0x30
; 0000 0156       a = 15;}
	LDI  R30,LOW(15)
	STS  _a,R30
; 0000 0157       if(OSC==4){
_0x30:
	LDS  R26,_OSC
	CPI  R26,LOW(0x4)
	BRNE _0x31
; 0000 0158       a = 22;}
	LDI  R30,LOW(22)
	STS  _a,R30
; 0000 0159       if(OSC==8){
_0x31:
	LDS  R26,_OSC
	CPI  R26,LOW(0x8)
	BRNE _0x32
; 0000 015A       a = 22;}
	LDI  R30,LOW(22)
	STS  _a,R30
; 0000 015B       if(OSC==12){
_0x32:
	LDS  R26,_OSC
	CPI  R26,LOW(0xC)
	BRNE _0x33
; 0000 015C       a = 0;}}
	LDI  R30,LOW(0)
	STS  _a,R30
_0x33:
; 0000 015D       if(PENKIOLIKA_SEKUNDZIU==11){
_0x2F:
	LDS  R26,_PENKIOLIKA_SEKUNDZIU
	CPI  R26,LOW(0xB)
	BRNE _0x34
; 0000 015E       if(OSC==0){
	LDS  R30,_OSC
	CPI  R30,0
	BRNE _0x35
; 0000 015F       a = 22;}
	LDI  R30,LOW(22)
	STS  _a,R30
; 0000 0160       if(OSC==4){
_0x35:
	LDS  R26,_OSC
	CPI  R26,LOW(0x4)
	BRNE _0x36
; 0000 0161       a = 22;}
	LDI  R30,LOW(22)
	STS  _a,R30
; 0000 0162       if(OSC==8){
_0x36:
	LDS  R26,_OSC
	CPI  R26,LOW(0x8)
	BRNE _0x37
; 0000 0163       a = 0;}}
	LDI  R30,LOW(0)
	STS  _a,R30
_0x37:
; 0000 0164       if(PENKIOLIKA_SEKUNDZIU==12){
_0x34:
	LDS  R26,_PENKIOLIKA_SEKUNDZIU
	CPI  R26,LOW(0xC)
	BRNE _0x38
; 0000 0165       if(OSC==0){
	LDS  R30,_OSC
	CPI  R30,0
	BRNE _0x39
; 0000 0166       a = 22;}
	LDI  R30,LOW(22)
	STS  _a,R30
; 0000 0167       if(OSC==4){
_0x39:
	LDS  R26,_OSC
	CPI  R26,LOW(0x4)
	BRNE _0x3A
; 0000 0168       a = 0;}}
	LDI  R30,LOW(0)
	STS  _a,R30
_0x3A:
; 0000 0169       if(PENKIOLIKA_SEKUNDZIU==13){
_0x38:
	LDS  R26,_PENKIOLIKA_SEKUNDZIU
	CPI  R26,LOW(0xD)
	BRNE _0x3B
; 0000 016A       if(OSC==0){
	LDS  R30,_OSC
	CPI  R30,0
	BRNE _0x3C
; 0000 016B       a = 0;}}
	LDI  R30,LOW(0)
	STS  _a,R30
_0x3C:
; 0000 016C 
; 0000 016D       if(PENKIOLIKA_SEKUNDZIU==15){
_0x3B:
	LDS  R26,_PENKIOLIKA_SEKUNDZIU
	CPI  R26,LOW(0xF)
	BREQ PC+3
	JMP _0x3D
; 0000 016E       //           IEJIMAI ==> KINTAMIEJI(MYGTUKAI)
; 0000 016F       {if((PINA.2==0)&&(PINA.1==1)&&(PINA.0==1)&&(b==0)){
	CALL SUBOPT_0x0
	BRNE _0x3F
	SBIS 0x19,1
	RJMP _0x3F
	SBIS 0x19,0
	RJMP _0x3F
	LDS  R26,_b
	CPI  R26,LOW(0x0)
	BREQ _0x40
_0x3F:
	RJMP _0x3E
_0x40:
; 0000 0170       MYGTUKAS_1 = 1;}
	LDI  R30,LOW(1)
	RJMP _0x337
; 0000 0171       else
_0x3E:
; 0000 0172       MYGTUKAS_1 = 0;}
	LDI  R30,LOW(0)
_0x337:
	STS  _MYGTUKAS_1,R30
; 0000 0173       {if((PINA.2==1)&&(PINA.1==0)&&(PINA.0==1)&&(b==0)){
	SBIS 0x19,2
	RJMP _0x43
	CALL SUBOPT_0x1
	BRNE _0x43
	SBIS 0x19,0
	RJMP _0x43
	LDS  R26,_b
	CPI  R26,LOW(0x0)
	BREQ _0x44
_0x43:
	RJMP _0x42
_0x44:
; 0000 0174       MYGTUKAS_2 = 1;}
	LDI  R30,LOW(1)
	RJMP _0x338
; 0000 0175       else
_0x42:
; 0000 0176       MYGTUKAS_2 = 0;}
	LDI  R30,LOW(0)
_0x338:
	STS  _MYGTUKAS_2,R30
; 0000 0177       {if((PINA.2==0)&&(PINA.1==0)&&(PINA.0==1)&&(b==0)){
	CALL SUBOPT_0x0
	BRNE _0x47
	CALL SUBOPT_0x1
	BRNE _0x47
	SBIS 0x19,0
	RJMP _0x47
	LDS  R26,_b
	CPI  R26,LOW(0x0)
	BREQ _0x48
_0x47:
	RJMP _0x46
_0x48:
; 0000 0178       MYGTUKAS_3 = 1;}
	LDI  R30,LOW(1)
	RJMP _0x339
; 0000 0179       else
_0x46:
; 0000 017A       MYGTUKAS_3 = 0;}
	LDI  R30,LOW(0)
_0x339:
	STS  _MYGTUKAS_3,R30
; 0000 017B       {if((PINA.2==1)&&(PINA.1==1)&&(PINA.0==0)&&(b==0)){
	SBIS 0x19,2
	RJMP _0x4B
	SBIS 0x19,1
	RJMP _0x4B
	CALL SUBOPT_0x2
	BRNE _0x4B
	LDS  R26,_b
	CPI  R26,LOW(0x0)
	BREQ _0x4C
_0x4B:
	RJMP _0x4A
_0x4C:
; 0000 017C       MYGTUKAS_4 = 1;}
	LDI  R30,LOW(1)
	RJMP _0x33A
; 0000 017D       else
_0x4A:
; 0000 017E       MYGTUKAS_4 = 0;}
	LDI  R30,LOW(0)
_0x33A:
	STS  _MYGTUKAS_4,R30
; 0000 017F       {if((PINA.2==0)&&(PINA.1==1)&&(PINA.0==0)&&(b==0)){
	CALL SUBOPT_0x0
	BRNE _0x4F
	SBIS 0x19,1
	RJMP _0x4F
	CALL SUBOPT_0x2
	BRNE _0x4F
	LDS  R26,_b
	CPI  R26,LOW(0x0)
	BREQ _0x50
_0x4F:
	RJMP _0x4E
_0x50:
; 0000 0180       MYGTUKAS_5 = 1;}
	LDI  R30,LOW(1)
	RJMP _0x33B
; 0000 0181       else
_0x4E:
; 0000 0182       MYGTUKAS_5 = 0;}
	LDI  R30,LOW(0)
_0x33B:
	STS  _MYGTUKAS_5,R30
; 0000 0183       {if((PINA.2==1)&&(PINA.1==0)&&(PINA.0==0)&&(b==0)){
	SBIS 0x19,2
	RJMP _0x53
	CALL SUBOPT_0x1
	BRNE _0x53
	CALL SUBOPT_0x2
	BRNE _0x53
	LDS  R26,_b
	CPI  R26,LOW(0x0)
	BREQ _0x54
_0x53:
	RJMP _0x52
_0x54:
; 0000 0184       MYGTUKAS_6 = 1;}
	LDI  R30,LOW(1)
	RJMP _0x33C
; 0000 0185       else
_0x52:
; 0000 0186       MYGTUKAS_6 = 0;}
	LDI  R30,LOW(0)
_0x33C:
	STS  _MYGTUKAS_6,R30
; 0000 0187       {if((PINA.2==0)&&(PINA.1==0)&&(PINA.0==0)&&(b==0)){
	CALL SUBOPT_0x0
	BRNE _0x57
	CALL SUBOPT_0x1
	BRNE _0x57
	CALL SUBOPT_0x2
	BRNE _0x57
	LDS  R26,_b
	CPI  R26,LOW(0x0)
	BREQ _0x58
_0x57:
	RJMP _0x56
_0x58:
; 0000 0188       MYGTUKAS_7 = 1;}
	LDI  R30,LOW(1)
	RJMP _0x33D
; 0000 0189       else
_0x56:
; 0000 018A       MYGTUKAS_7 = 0;}
	LDI  R30,LOW(0)
_0x33D:
	STS  _MYGTUKAS_7,R30
; 0000 018B 
; 0000 018C       {if((PINA.2==1)&&(PINA.1==1)&&(PINA.0==1)){
	SBIS 0x19,2
	RJMP _0x5B
	SBIS 0x19,1
	RJMP _0x5B
	SBIC 0x19,0
	RJMP _0x5C
_0x5B:
	RJMP _0x5A
_0x5C:
; 0000 018D       MYGTUKAS_PASPAUSTAS = 0;}
	LDI  R30,LOW(0)
	RJMP _0x33E
; 0000 018E       else
_0x5A:
; 0000 018F       MYGTUKAS_PASPAUSTAS = 1;}
	LDI  R30,LOW(1)
_0x33E:
	STS  _MYGTUKAS_PASPAUSTAS,R30
; 0000 0190 
; 0000 0191       {if(MYGTUKAS_PASPAUSTAS==1){
	LDS  R26,_MYGTUKAS_PASPAUSTAS
	CPI  R26,LOW(0x1)
	BRNE _0x5E
; 0000 0192       b = 1;}
	LDI  R30,LOW(1)
	RJMP _0x33F
; 0000 0193       else
_0x5E:
; 0000 0194       b = 0;}
	LDI  R30,LOW(0)
_0x33F:
	STS  _b,R30
; 0000 0195 
; 0000 0196       {if((PINC.0==1)&&(i==0)&&(REDAGAVIMAS==0)){
	SBIS 0x13,0
	RJMP _0x61
	LDS  R26,_i
	CPI  R26,LOW(0x0)
	BRNE _0x61
	LDS  R26,_REDAGAVIMAS
	CPI  R26,LOW(0x0)
	BREQ _0x62
_0x61:
	RJMP _0x60
_0x62:
; 0000 0197       LAIKRODIS = 1;
	LDI  R30,LOW(1)
	STS  _LAIKRODIS,R30
; 0000 0198       i = 1;}
	STS  _i,R30
; 0000 0199       else
	RJMP _0x63
_0x60:
; 0000 019A       LAIKRODIS = 0;}
	LDI  R30,LOW(0)
	STS  _LAIKRODIS,R30
_0x63:
; 0000 019B 
; 0000 019C       if(PINC.0==0){
	SBIC 0x13,0
	RJMP _0x64
; 0000 019D       i = 0;}
	LDI  R30,LOW(0)
	STS  _i,R30
; 0000 019E       //AKUMOLIATORIAUS KROVIMAS IR ISKROVIMAS:
; 0000 019F       {if(PINA.5==1){
_0x64:
	SBIS 0x19,5
	RJMP _0x65
; 0000 01A0       PILNAS = 1;
	LDI  R30,LOW(1)
	STS  _PILNAS,R30
; 0000 01A1       if(OSC==0){
	LDS  R30,_OSC
	CPI  R30,0
	BRNE _0x66
; 0000 01A2       segm_h = 1;}}
	LDI  R30,LOW(1)
	STS  _segm_h,R30
_0x66:
; 0000 01A3       else
	RJMP _0x67
_0x65:
; 0000 01A4       PILNAS = 0;}
	LDI  R30,LOW(0)
	STS  _PILNAS,R30
_0x67:
; 0000 01A5 
; 0000 01A6       {if(PINA.6==0){
	SBIC 0x19,6
	RJMP _0x68
; 0000 01A7       TUSCIAS = 1;
	LDI  R30,LOW(1)
	STS  _TUSCIAS,R30
; 0000 01A8       if(OSC==4){
	LDS  R26,_OSC
	CPI  R26,LOW(0x4)
	BRNE _0x69
; 0000 01A9       segm_h = 1;}}
	STS  _segm_h,R30
_0x69:
; 0000 01AA       else
	RJMP _0x6A
_0x68:
; 0000 01AB       TUSCIAS = 0;}
	LDI  R30,LOW(0)
	STS  _TUSCIAS,R30
_0x6A:
; 0000 01AC 
; 0000 01AD       if(PILNAS==1){
	LDS  R26,_PILNAS
	CPI  R26,LOW(0x1)
	BRNE _0x6B
; 0000 01AE         if(KROVIMAS==1){
	LDS  R26,_KROVIMAS
	CPI  R26,LOW(0x1)
	BRNE _0x6C
; 0000 01AF         krovimo_uzlaikymas0 = krovimo_uzlaikymas0 + 1;
	LDS  R30,_krovimo_uzlaikymas0
	LDS  R31,_krovimo_uzlaikymas0+1
	ADIW R30,1
	STS  _krovimo_uzlaikymas0,R30
	STS  _krovimo_uzlaikymas0+1,R31
; 0000 01B0           if(krovimo_uzlaikymas0==1300){
	LDS  R26,_krovimo_uzlaikymas0
	LDS  R27,_krovimo_uzlaikymas0+1
	CPI  R26,LOW(0x514)
	LDI  R30,HIGH(0x514)
	CPC  R27,R30
	BRNE _0x6D
; 0000 01B1           krovimo_uzlaikymas1 = krovimo_uzlaikymas1 + 1;
	LDS  R30,_krovimo_uzlaikymas1
	SUBI R30,-LOW(1)
	STS  _krovimo_uzlaikymas1,R30
; 0000 01B2           krovimo_uzlaikymas0 = 0;
	LDI  R30,LOW(0)
	STS  _krovimo_uzlaikymas0,R30
	STS  _krovimo_uzlaikymas0+1,R30
; 0000 01B3           }
; 0000 01B4           if(krovimo_uzlaikymas1>=60){
_0x6D:
	LDS  R26,_krovimo_uzlaikymas1
	CPI  R26,LOW(0x3C)
	BRLO _0x6E
; 0000 01B5           krovimo_uzlaikymas2 = krovimo_uzlaikymas2 + 1;
	LDS  R30,_krovimo_uzlaikymas2
	SUBI R30,-LOW(1)
	STS  _krovimo_uzlaikymas2,R30
; 0000 01B6           krovimo_uzlaikymas1 = 0;
	LDI  R30,LOW(0)
	STS  _krovimo_uzlaikymas1,R30
; 0000 01B7           }
; 0000 01B8           if(krovimo_uzlaikymas2>=20){
_0x6E:
	LDS  R26,_krovimo_uzlaikymas2
	CPI  R26,LOW(0x14)
	BRLO _0x6F
; 0000 01B9           krovimo_uzlaikymas0 = 0;
	LDI  R30,LOW(0)
	STS  _krovimo_uzlaikymas0,R30
	STS  _krovimo_uzlaikymas0+1,R30
; 0000 01BA           krovimo_uzlaikymas1 = 0;
	STS  _krovimo_uzlaikymas1,R30
; 0000 01BB           krovimo_uzlaikymas2 = 0;
	STS  _krovimo_uzlaikymas2,R30
; 0000 01BC           KROVIMAS = 0;
	STS  _KROVIMAS,R30
; 0000 01BD           }
; 0000 01BE         }
_0x6F:
; 0000 01BF       }
_0x6C:
; 0000 01C0 
; 0000 01C1       if(TUSCIAS==1){
_0x6B:
	LDS  R26,_TUSCIAS
	CPI  R26,LOW(0x1)
	BRNE _0x70
; 0000 01C2       ISKROVIMAS = 0;
	LDI  R30,LOW(0)
	STS  _ISKROVIMAS,R30
; 0000 01C3       KROVIMAS = 1;}
	LDI  R30,LOW(1)
	STS  _KROVIMAS,R30
; 0000 01C4 
; 0000 01C5       if((KELINTADIENIS==6)&&(desimtys_valandos==0)&&(valandos==0)
_0x70:
; 0000 01C6       &&(desimtys_minutes==0)&&(minutes==0)&&(KROVIMAS==0)){
	LDS  R26,_KELINTADIENIS
	CPI  R26,LOW(0x6)
	BRNE _0x72
	LDS  R26,_desimtys_valandos
	CPI  R26,LOW(0x0)
	BRNE _0x72
	LDS  R26,_valandos
	CPI  R26,LOW(0x0)
	BRNE _0x72
	LDS  R26,_desimtys_minutes
	CPI  R26,LOW(0x0)
	BRNE _0x72
	LDS  R26,_minutes
	CPI  R26,LOW(0x0)
	BRNE _0x72
	LDS  R26,_KROVIMAS
	CPI  R26,LOW(0x0)
	BREQ _0x73
_0x72:
	RJMP _0x71
_0x73:
; 0000 01C7       ISKROVIMAS = 1;}
	LDI  R30,LOW(1)
	STS  _ISKROVIMAS,R30
; 0000 01C8 
; 0000 01C9 
; 0000 01CA       //KAI REDAGUOJAMAS TIKRAS LAIKAS IR TADA ISSAUGOJAMA sekundes = 0;
; 0000 01CB       if((EILUTES_SKAICIUS==0)&&(MYGTUKAS_3==1)&&(REDAGAVIMAS==1)){
_0x71:
	LDS  R26,_EILUTES_SKAICIUS
	CPI  R26,LOW(0x0)
	BRNE _0x75
	LDS  R26,_MYGTUKAS_3
	CPI  R26,LOW(0x1)
	BRNE _0x75
	LDS  R26,_REDAGAVIMAS
	CPI  R26,LOW(0x1)
	BREQ _0x76
_0x75:
	RJMP _0x74
_0x76:
; 0000 01CC       sekundes = 0;}
	LDI  R30,LOW(0)
	STS  _sekundes,R30
; 0000 01CD       //                           UZRAKINIMAS:
; 0000 01CE 
; 0000 01CF       if((EILUTES_SKAICIUS==0)&&(MYGTUKAS_7==1)&&
_0x74:
; 0000 01D0       (KELINTADIENIO_PERZIURA==0)){
	LDS  R26,_EILUTES_SKAICIUS
	CPI  R26,LOW(0x0)
	BRNE _0x78
	LDS  R26,_MYGTUKAS_7
	CPI  R26,LOW(0x1)
	BRNE _0x78
	LDS  R26,_KELINTADIENIO_PERZIURA
	CPI  R26,LOW(0x0)
	BREQ _0x79
_0x78:
	RJMP _0x77
_0x79:
; 0000 01D1       UZRAKINTA = 1;}
	LDI  R30,LOW(1)
	STS  _UZRAKINTA,R30
; 0000 01D2 
; 0000 01D3       if(UZRAKINTA==0){
_0x77:
	LDS  R30,_UZRAKINTA
	CPI  R30,0
	BRNE _0x7A
; 0000 01D4       viena_sekunde4 = viena_sekunde4 + 1;
	MOVW R30,R8
	ADIW R30,1
	MOVW R8,R30
; 0000 01D5       if(viena_sekunde4==2000){
	LDI  R30,LOW(2000)
	LDI  R31,HIGH(2000)
	CP   R30,R8
	CPC  R31,R9
	BRNE _0x7B
; 0000 01D6       penkios_minutes = penkios_minutes + 1;
	MOVW R30,R10
	ADIW R30,1
	MOVW R10,R30
; 0000 01D7       viena_sekunde4 = 0;}
	CLR  R8
	CLR  R9
; 0000 01D8       if(penkios_minutes==60){
_0x7B:
	LDI  R30,LOW(60)
	LDI  R31,HIGH(60)
	CP   R30,R10
	CPC  R31,R11
	BRNE _0x7C
; 0000 01D9       UZRAKINTA = 1;
	LDI  R30,LOW(1)
	STS  _UZRAKINTA,R30
; 0000 01DA       penkios_minutes = 0;}
	CLR  R10
	CLR  R11
; 0000 01DB 
; 0000 01DC       if((MYGTUKAS_1==1)||(MYGTUKAS_2==1)||(MYGTUKAS_3==1)||
_0x7C:
; 0000 01DD       (MYGTUKAS_4==1)||(MYGTUKAS_5==1)||(MYGTUKAS_6==1)||
; 0000 01DE       (MYGTUKAS_7==1)){
	LDS  R26,_MYGTUKAS_1
	CPI  R26,LOW(0x1)
	BREQ _0x7E
	LDS  R26,_MYGTUKAS_2
	CPI  R26,LOW(0x1)
	BREQ _0x7E
	LDS  R26,_MYGTUKAS_3
	CPI  R26,LOW(0x1)
	BREQ _0x7E
	LDS  R26,_MYGTUKAS_4
	CPI  R26,LOW(0x1)
	BREQ _0x7E
	LDS  R26,_MYGTUKAS_5
	CPI  R26,LOW(0x1)
	BREQ _0x7E
	LDS  R26,_MYGTUKAS_6
	CPI  R26,LOW(0x1)
	BREQ _0x7E
	LDS  R26,_MYGTUKAS_7
	CPI  R26,LOW(0x1)
	BRNE _0x7D
_0x7E:
; 0000 01DF       viena_sekunde4 = 0;
	CLR  R8
	CLR  R9
; 0000 01E0       penkios_minutes = 0;}}
	CLR  R10
	CLR  R11
_0x7D:
; 0000 01E1 
; 0000 01E2 
; 0000 01E3       if(UZRAKINTA==1){
_0x7A:
	LDS  R26,_UZRAKINTA
	CPI  R26,LOW(0x1)
	BREQ PC+3
	JMP _0x80
; 0000 01E4       if((MYGTUKAS_1==1)||(MYGTUKAS_2==1)||(MYGTUKAS_3==1)||
; 0000 01E5       (MYGTUKAS_4==1)||(MYGTUKAS_5==1)||(MYGTUKAS_6==1)){
	LDS  R26,_MYGTUKAS_1
	CPI  R26,LOW(0x1)
	BREQ _0x82
	LDS  R26,_MYGTUKAS_2
	CPI  R26,LOW(0x1)
	BREQ _0x82
	LDS  R26,_MYGTUKAS_3
	CPI  R26,LOW(0x1)
	BREQ _0x82
	LDS  R26,_MYGTUKAS_4
	CPI  R26,LOW(0x1)
	BREQ _0x82
	LDS  R26,_MYGTUKAS_5
	CPI  R26,LOW(0x1)
	BREQ _0x82
	LDS  R26,_MYGTUKAS_6
	CPI  R26,LOW(0x1)
	BRNE _0x81
_0x82:
; 0000 01E6       viena_minute5 = 20000;}
	__GETD1N 0x4E20
	CALL SUBOPT_0x3
; 0000 01E7       if(MYGTUKAS_7==1){
_0x81:
	LDS  R26,_MYGTUKAS_7
	CPI  R26,LOW(0x1)
	BRNE _0x84
; 0000 01E8       viena_minute5 = 0;}
	CALL SUBOPT_0x4
; 0000 01E9 
; 0000 01EA       if(viena_minute5==0){
_0x84:
	CALL SUBOPT_0x5
	BRNE _0x85
; 0000 01EB       REDAG_UZRAKT_SKAIC = 0;
	LDI  R30,LOW(0)
	STS  _REDAG_UZRAKT_SKAIC,R30
; 0000 01EC       a1 = 0;
	CALL SUBOPT_0x6
; 0000 01ED       b1 = 0;
; 0000 01EE       c1 = 0;
; 0000 01EF       d1 = 0;}
; 0000 01F0 
; 0000 01F1       if(viena_minute5!=0){
_0x85:
	CALL SUBOPT_0x5
	BRNE PC+3
	JMP _0x86
; 0000 01F2       DB_LAIKO_RODYMAS = 0;
	LDI  R30,LOW(0)
	STS  _DB_LAIKO_RODYMAS,R30
; 0000 01F3       viena_minute5 = viena_minute5 - 1;
	LDS  R30,_viena_minute5
	LDS  R31,_viena_minute5+1
	LDS  R22,_viena_minute5+2
	LDS  R23,_viena_minute5+3
	__SUBD1N 1
	CALL SUBOPT_0x3
; 0000 01F4       if(OSC==0){
	LDS  R30,_OSC
	CPI  R30,0
	BRNE _0x87
; 0000 01F5       a = 10;}
	LDI  R30,LOW(10)
	STS  _a,R30
; 0000 01F6       if(OSC==4){
_0x87:
	LDS  R26,_OSC
	CPI  R26,LOW(0x4)
	BRNE _0x88
; 0000 01F7       a = 26;}
	LDI  R30,LOW(26)
	STS  _a,R30
; 0000 01F8       if(OSC==8){
_0x88:
	LDS  R26,_OSC
	CPI  R26,LOW(0x8)
	BRNE _0x89
; 0000 01F9       a = 30;}
	LDI  R30,LOW(30)
	STS  _a,R30
; 0000 01FA       if(OSC==12){
_0x89:
	LDS  R26,_OSC
	CPI  R26,LOW(0xC)
	BRNE _0x8A
; 0000 01FB       a = 10;}
	LDI  R30,LOW(10)
	STS  _a,R30
; 0000 01FC       if(OSC==16){
_0x8A:
	LDS  R26,_OSC
	CPI  R26,LOW(0x10)
	BRNE _0x8B
; 0000 01FD       if(REDAG_UZRAKT_SKAIC==0){
	LDS  R30,_REDAG_UZRAKT_SKAIC
	CPI  R30,0
	BRNE _0x8C
; 0000 01FE       a = a1;}
	LDS  R30,_a1
	STS  _a,R30
; 0000 01FF       if(REDAG_UZRAKT_SKAIC!=0){
_0x8C:
	LDS  R30,_REDAG_UZRAKT_SKAIC
	CPI  R30,0
	BREQ _0x8D
; 0000 0200       a = 32;}}
	LDI  R30,LOW(32)
	STS  _a,R30
_0x8D:
; 0000 0201       if(OSC==20){
_0x8B:
	LDS  R26,_OSC
	CPI  R26,LOW(0x14)
	BRNE _0x8E
; 0000 0202       if(REDAG_UZRAKT_SKAIC==1){
	LDS  R26,_REDAG_UZRAKT_SKAIC
	CPI  R26,LOW(0x1)
	BRNE _0x8F
; 0000 0203       a = b1;}
	LDS  R30,_b1
	STS  _a,R30
; 0000 0204       if(REDAG_UZRAKT_SKAIC!=1){
_0x8F:
	LDS  R26,_REDAG_UZRAKT_SKAIC
	CPI  R26,LOW(0x1)
	BREQ _0x90
; 0000 0205       a = 32;}}
	LDI  R30,LOW(32)
	STS  _a,R30
_0x90:
; 0000 0206       if(OSC==24){
_0x8E:
	LDS  R26,_OSC
	CPI  R26,LOW(0x18)
	BRNE _0x91
; 0000 0207       if(REDAG_UZRAKT_SKAIC==2){
	LDS  R26,_REDAG_UZRAKT_SKAIC
	CPI  R26,LOW(0x2)
	BRNE _0x92
; 0000 0208       a = c1;}
	LDS  R30,_c1
	STS  _a,R30
; 0000 0209       if(REDAG_UZRAKT_SKAIC!=2){
_0x92:
	LDS  R26,_REDAG_UZRAKT_SKAIC
	CPI  R26,LOW(0x2)
	BREQ _0x93
; 0000 020A       a = 32;}}
	LDI  R30,LOW(32)
	STS  _a,R30
_0x93:
; 0000 020B       if(OSC==28){
_0x91:
	LDS  R26,_OSC
	CPI  R26,LOW(0x1C)
	BRNE _0x94
; 0000 020C       if(REDAG_UZRAKT_SKAIC==3){
	LDS  R26,_REDAG_UZRAKT_SKAIC
	CPI  R26,LOW(0x3)
	BRNE _0x95
; 0000 020D       a = d1;}
	LDS  R30,_d1
	STS  _a,R30
; 0000 020E       if(REDAG_UZRAKT_SKAIC!=3){
_0x95:
	LDS  R26,_REDAG_UZRAKT_SKAIC
	CPI  R26,LOW(0x3)
	BREQ _0x96
; 0000 020F       a = 32;
	LDI  R30,LOW(32)
	STS  _a,R30
; 0000 0210       }}
_0x96:
; 0000 0211 
; 0000 0212       if(MYGTUKAS_1==1){
_0x94:
	LDS  R26,_MYGTUKAS_1
	CPI  R26,LOW(0x1)
	BRNE _0x97
; 0000 0213       if(REDAG_UZRAKT_SKAIC==0){
	LDS  R30,_REDAG_UZRAKT_SKAIC
	CPI  R30,0
	BRNE _0x98
; 0000 0214       a1 = a1 + 1;}
	LDS  R30,_a1
	SUBI R30,-LOW(1)
	STS  _a1,R30
; 0000 0215       if(REDAG_UZRAKT_SKAIC==1){
_0x98:
	LDS  R26,_REDAG_UZRAKT_SKAIC
	CPI  R26,LOW(0x1)
	BRNE _0x99
; 0000 0216       b1 = b1 + 1;}
	LDS  R30,_b1
	SUBI R30,-LOW(1)
	STS  _b1,R30
; 0000 0217       if(REDAG_UZRAKT_SKAIC==2){
_0x99:
	LDS  R26,_REDAG_UZRAKT_SKAIC
	CPI  R26,LOW(0x2)
	BRNE _0x9A
; 0000 0218       c1 = c1 + 1;}
	LDS  R30,_c1
	SUBI R30,-LOW(1)
	STS  _c1,R30
; 0000 0219       if(REDAG_UZRAKT_SKAIC==3){
_0x9A:
	LDS  R26,_REDAG_UZRAKT_SKAIC
	CPI  R26,LOW(0x3)
	BRNE _0x9B
; 0000 021A       d1 = d1 + 1;}}
	LDS  R30,_d1
	SUBI R30,-LOW(1)
	STS  _d1,R30
_0x9B:
; 0000 021B       if(MYGTUKAS_5==1){
_0x97:
	LDS  R26,_MYGTUKAS_5
	CPI  R26,LOW(0x1)
	BRNE _0x9C
; 0000 021C       if(REDAG_UZRAKT_SKAIC==0){
	LDS  R30,_REDAG_UZRAKT_SKAIC
	CPI  R30,0
	BRNE _0x9D
; 0000 021D       a1 = a1 - 1;}
	LDS  R30,_a1
	CALL SUBOPT_0x7
	STS  _a1,R30
; 0000 021E       if(REDAG_UZRAKT_SKAIC==1){
_0x9D:
	LDS  R26,_REDAG_UZRAKT_SKAIC
	CPI  R26,LOW(0x1)
	BRNE _0x9E
; 0000 021F       b1 = b1 - 1;}
	LDS  R30,_b1
	CALL SUBOPT_0x7
	STS  _b1,R30
; 0000 0220       if(REDAG_UZRAKT_SKAIC==2){
_0x9E:
	LDS  R26,_REDAG_UZRAKT_SKAIC
	CPI  R26,LOW(0x2)
	BRNE _0x9F
; 0000 0221       c1 = c1 - 1;}
	LDS  R30,_c1
	CALL SUBOPT_0x7
	STS  _c1,R30
; 0000 0222       if(REDAG_UZRAKT_SKAIC==3){
_0x9F:
	LDS  R26,_REDAG_UZRAKT_SKAIC
	CPI  R26,LOW(0x3)
	BRNE _0xA0
; 0000 0223       d1 = d1 - 1;}}
	LDS  R30,_d1
	CALL SUBOPT_0x7
	STS  _d1,R30
_0xA0:
; 0000 0224       if(MYGTUKAS_2==1){
_0x9C:
	LDS  R26,_MYGTUKAS_2
	CPI  R26,LOW(0x1)
	BRNE _0xA1
; 0000 0225       REDAG_UZRAKT_SKAIC = REDAG_UZRAKT_SKAIC - 1;}
	LDS  R30,_REDAG_UZRAKT_SKAIC
	CALL SUBOPT_0x7
	STS  _REDAG_UZRAKT_SKAIC,R30
; 0000 0226       if(MYGTUKAS_4==1){
_0xA1:
	LDS  R26,_MYGTUKAS_4
	CPI  R26,LOW(0x1)
	BRNE _0xA2
; 0000 0227       REDAG_UZRAKT_SKAIC = REDAG_UZRAKT_SKAIC + 1;}
	LDS  R30,_REDAG_UZRAKT_SKAIC
	SUBI R30,-LOW(1)
	STS  _REDAG_UZRAKT_SKAIC,R30
; 0000 0228 
; 0000 0229       if(REDAG_UZRAKT_SKAIC==-1){
_0xA2:
	LDS  R26,_REDAG_UZRAKT_SKAIC
	CPI  R26,LOW(0xFF)
	BRNE _0xA3
; 0000 022A       REDAG_UZRAKT_SKAIC = 3;}
	LDI  R30,LOW(3)
	STS  _REDAG_UZRAKT_SKAIC,R30
; 0000 022B       if(REDAG_UZRAKT_SKAIC==4){
_0xA3:
	LDS  R26,_REDAG_UZRAKT_SKAIC
	CPI  R26,LOW(0x4)
	BRNE _0xA4
; 0000 022C       REDAG_UZRAKT_SKAIC = 0;}
	LDI  R30,LOW(0)
	STS  _REDAG_UZRAKT_SKAIC,R30
; 0000 022D 
; 0000 022E 
; 0000 022F 
; 0000 0230       if(a1==-1){
_0xA4:
	LDS  R26,_a1
	CPI  R26,LOW(0xFF)
	BRNE _0xA5
; 0000 0231       a1 = 9;}
	LDI  R30,LOW(9)
	STS  _a1,R30
; 0000 0232       if(b1==-1){
_0xA5:
	LDS  R26,_b1
	CPI  R26,LOW(0xFF)
	BRNE _0xA6
; 0000 0233       b1 = 9;}
	LDI  R30,LOW(9)
	STS  _b1,R30
; 0000 0234       if(c1==-1){
_0xA6:
	LDS  R26,_c1
	CPI  R26,LOW(0xFF)
	BRNE _0xA7
; 0000 0235       c1 = 9;}
	LDI  R30,LOW(9)
	STS  _c1,R30
; 0000 0236       if(d1==-1){
_0xA7:
	LDS  R26,_d1
	CPI  R26,LOW(0xFF)
	BRNE _0xA8
; 0000 0237       d1 = 9;}
	LDI  R30,LOW(9)
	STS  _d1,R30
; 0000 0238       if(a1==10){
_0xA8:
	LDS  R26,_a1
	CPI  R26,LOW(0xA)
	BRNE _0xA9
; 0000 0239       a1 = 0;}
	LDI  R30,LOW(0)
	STS  _a1,R30
; 0000 023A       if(b1==10){
_0xA9:
	LDS  R26,_b1
	CPI  R26,LOW(0xA)
	BRNE _0xAA
; 0000 023B       b1 = 0;}
	LDI  R30,LOW(0)
	STS  _b1,R30
; 0000 023C       if(c1==10){
_0xAA:
	LDS  R26,_c1
	CPI  R26,LOW(0xA)
	BRNE _0xAB
; 0000 023D       c1 = 0;}
	LDI  R30,LOW(0)
	STS  _c1,R30
; 0000 023E       if(d1==10){
_0xAB:
	LDS  R26,_d1
	CPI  R26,LOW(0xA)
	BRNE _0xAC
; 0000 023F       d1 = 0;}}}
	LDI  R30,LOW(0)
	STS  _d1,R30
_0xAC:
_0x86:
; 0000 0240 
; 0000 0241       if((MYGTUKAS_3==1)&&(viena_minute5!=0)){
_0x80:
	LDS  R26,_MYGTUKAS_3
	CPI  R26,LOW(0x1)
	BRNE _0xAE
	LDS  R26,_viena_minute5
	LDS  R27,_viena_minute5+1
	LDS  R24,_viena_minute5+2
	LDS  R25,_viena_minute5+3
	CALL __CPD02
	BRNE _0xAF
_0xAE:
	RJMP _0xAD
_0xAF:
; 0000 0242       if(
; 0000 0243       (UZRAKTO_KODAS_1==a1)&&
; 0000 0244       (UZRAKTO_KODAS_2==b1)&&
; 0000 0245       (UZRAKTO_KODAS_3==c1)&&
; 0000 0246       (UZRAKTO_KODAS_4==d1)){
	LDS  R30,_a1
	LDS  R26,_UZRAKTO_KODAS_1
	CP   R30,R26
	BRNE _0xB1
	LDS  R30,_b1
	LDS  R26,_UZRAKTO_KODAS_2
	CP   R30,R26
	BRNE _0xB1
	LDS  R30,_c1
	LDS  R26,_UZRAKTO_KODAS_3
	CP   R30,R26
	BRNE _0xB1
	LDS  R30,_d1
	LDS  R26,_UZRAKTO_KODAS_4
	CP   R30,R26
	BREQ _0xB2
_0xB1:
	RJMP _0xB0
_0xB2:
; 0000 0247       UZRAKINTA = 0;
	LDI  R30,LOW(0)
	STS  _UZRAKINTA,R30
; 0000 0248       viena_minute5 = 0;
	CALL SUBOPT_0x4
; 0000 0249       a1 = 0;
	CALL SUBOPT_0x6
; 0000 024A       b1 = 0;
; 0000 024B       c1 = 0;
; 0000 024C       d1 = 0;
; 0000 024D       REDAG_UZRAKT_SKAIC = 0;
	LDI  R30,LOW(0)
	STS  _REDAG_UZRAKT_SKAIC,R30
; 0000 024E       DB_LAIKO_RODYMAS = 1;}}
	LDI  R30,LOW(1)
	STS  _DB_LAIKO_RODYMAS,R30
_0xB0:
; 0000 024F 
; 0000 0250       if(UZRAKINTA==1){
_0xAD:
	LDS  R26,_UZRAKINTA
	CPI  R26,LOW(0x1)
	BRNE _0xB3
; 0000 0251       EILUTES_SKAICIUS = 0;
	LDI  R30,LOW(0)
	STS  _EILUTES_SKAICIUS,R30
; 0000 0252       REDAGAVIMAS = 0;
	CALL SUBOPT_0x8
; 0000 0253       MYGTUKAS_1 = 0;
	CALL SUBOPT_0x9
; 0000 0254       MYGTUKAS_2 = 0;
; 0000 0255       MYGTUKAS_3 = 0;
; 0000 0256       MYGTUKAS_4 = 0;
; 0000 0257       MYGTUKAS_5 = 0;
; 0000 0258       MYGTUKAS_6 = 0;
; 0000 0259       MYGTUKAS_7 = 0;
; 0000 025A       KELINTADIENIO_PERZIURA = 0;
	CALL SUBOPT_0xA
; 0000 025B       KELINTADIENIO_REDAGAVIMAS = 0;
; 0000 025C       BATERIJOS_BUSENA = 0;}
; 0000 025D 
; 0000 025E       //Baterijos busena;
; 0000 025F       if((REDAGAVIMAS==0)&&(KELINTADIENIO_REDAGAVIMAS==0)&&
_0xB3:
; 0000 0260       (KELINTADIENIO_PERZIURA==0)){
	LDS  R26,_REDAGAVIMAS
	CPI  R26,LOW(0x0)
	BRNE _0xB5
	LDS  R26,_KELINTADIENIO_REDAGAVIMAS
	CPI  R26,LOW(0x0)
	BRNE _0xB5
	LDS  R26,_KELINTADIENIO_PERZIURA
	CPI  R26,LOW(0x0)
	BREQ _0xB6
_0xB5:
	RJMP _0xB4
_0xB6:
; 0000 0261 
; 0000 0262       if((EILUTES_SKAICIUS==0)&&(BATERIJOS_BUSENA==0)&&
; 0000 0263       (MYGTUKAS_4==1)){
	LDS  R26,_EILUTES_SKAICIUS
	CPI  R26,LOW(0x0)
	BRNE _0xB8
	LDS  R26,_BATERIJOS_BUSENA
	CPI  R26,LOW(0x0)
	BRNE _0xB8
	LDS  R26,_MYGTUKAS_4
	CPI  R26,LOW(0x1)
	BREQ _0xB9
_0xB8:
	RJMP _0xB7
_0xB9:
; 0000 0264       BATERIJOS_BUSENA = 1;
	LDI  R30,LOW(1)
	STS  _BATERIJOS_BUSENA,R30
; 0000 0265       MYGTUKAS_4 = 0;}
	LDI  R30,LOW(0)
	STS  _MYGTUKAS_4,R30
; 0000 0266 
; 0000 0267       if((EILUTES_SKAICIUS==0)&&(BATERIJOS_BUSENA==1)&&
_0xB7:
; 0000 0268       ((MYGTUKAS_1==1)||(MYGTUKAS_2==1)||(MYGTUKAS_3==1)||
; 0000 0269       (MYGTUKAS_4==1)||(MYGTUKAS_5==1)||(MYGTUKAS_6==1)||
; 0000 026A       (MYGTUKAS_7==1))){
	LDS  R26,_EILUTES_SKAICIUS
	CPI  R26,LOW(0x0)
	BRNE _0xBB
	LDS  R26,_BATERIJOS_BUSENA
	CPI  R26,LOW(0x1)
	BRNE _0xBB
	LDS  R26,_MYGTUKAS_1
	CPI  R26,LOW(0x1)
	BREQ _0xBC
	LDS  R26,_MYGTUKAS_2
	CPI  R26,LOW(0x1)
	BREQ _0xBC
	LDS  R26,_MYGTUKAS_3
	CPI  R26,LOW(0x1)
	BREQ _0xBC
	LDS  R26,_MYGTUKAS_4
	CPI  R26,LOW(0x1)
	BREQ _0xBC
	LDS  R26,_MYGTUKAS_5
	CPI  R26,LOW(0x1)
	BREQ _0xBC
	LDS  R26,_MYGTUKAS_6
	CPI  R26,LOW(0x1)
	BREQ _0xBC
	LDS  R26,_MYGTUKAS_7
	CPI  R26,LOW(0x1)
	BRNE _0xBB
_0xBC:
	RJMP _0xBE
_0xBB:
	RJMP _0xBA
_0xBE:
; 0000 026B       BATERIJOS_BUSENA = 0;
	LDI  R30,LOW(0)
	STS  _BATERIJOS_BUSENA,R30
; 0000 026C       MYGTUKAS_1 = 0;
	CALL SUBOPT_0x9
; 0000 026D       MYGTUKAS_2 = 0;
; 0000 026E       MYGTUKAS_3 = 0;
; 0000 026F       MYGTUKAS_4 = 0;
; 0000 0270       MYGTUKAS_5 = 0;
; 0000 0271       MYGTUKAS_6 = 0;
; 0000 0272       MYGTUKAS_7 = 0;}
; 0000 0273 
; 0000 0274       if(BATERIJOS_BUSENA==1){
_0xBA:
	LDS  R26,_BATERIJOS_BUSENA
	CPI  R26,LOW(0x1)
	BREQ PC+3
	JMP _0xBF
; 0000 0275       DB_LAIKO_RODYMAS = 0;
	LDI  R30,LOW(0)
	STS  _DB_LAIKO_RODYMAS,R30
; 0000 0276       if(KROVIMAS==1){
	LDS  R26,_KROVIMAS
	CPI  R26,LOW(0x1)
	BRNE _0xC0
; 0000 0277       if(OSC==0){
	LDS  R30,_OSC
	CPI  R30,0
	BRNE _0xC1
; 0000 0278       a = 12;}
	LDI  R30,LOW(12)
	STS  _a,R30
; 0000 0279       if(OSC==4){
_0xC1:
	LDS  R26,_OSC
	CPI  R26,LOW(0x4)
	BRNE _0xC2
; 0000 027A       a = 18;}
	LDI  R30,LOW(18)
	STS  _a,R30
; 0000 027B       if(OSC==8){
_0xC2:
	LDS  R26,_OSC
	CPI  R26,LOW(0x8)
	BRNE _0xC3
; 0000 027C       a = 10;}
	LDI  R30,LOW(10)
	STS  _a,R30
; 0000 027D       if(OSC==12){
_0xC3:
	LDS  R26,_OSC
	CPI  R26,LOW(0xC)
	BRNE _0xC4
; 0000 027E       a = 30;}}
	LDI  R30,LOW(30)
	STS  _a,R30
_0xC4:
; 0000 027F       if(ISKROVIMAS==1){
_0xC0:
	LDS  R26,_ISKROVIMAS
	CPI  R26,LOW(0x1)
	BRNE _0xC5
; 0000 0280       if(OSC==0){
	LDS  R30,_OSC
	CPI  R30,0
	BRNE _0xC6
; 0000 0281       a = 14;}
	LDI  R30,LOW(14)
	STS  _a,R30
; 0000 0282       if(OSC==4){
_0xC6:
	LDS  R26,_OSC
	CPI  R26,LOW(0x4)
	BRNE _0xC7
; 0000 0283       a = 12;}
	LDI  R30,LOW(12)
	STS  _a,R30
; 0000 0284       if(OSC==8){
_0xC7:
	LDS  R26,_OSC
	CPI  R26,LOW(0x8)
	BRNE _0xC8
; 0000 0285       a = 18;}
	LDI  R30,LOW(18)
	STS  _a,R30
; 0000 0286       if(OSC==12){
_0xC8:
	LDS  R26,_OSC
	CPI  R26,LOW(0xC)
	BRNE _0xC9
; 0000 0287       a = 30;}}
	LDI  R30,LOW(30)
	STS  _a,R30
_0xC9:
; 0000 0288       if(TUSCIAS==1){
_0xC5:
	LDS  R26,_TUSCIAS
	CPI  R26,LOW(0x1)
	BRNE _0xCA
; 0000 0289       if(OSC==16){
	LDS  R26,_OSC
	CPI  R26,LOW(0x10)
	BRNE _0xCB
; 0000 028A       a = 26;}
	LDI  R30,LOW(26)
	STS  _a,R30
; 0000 028B       if(OSC==20){
_0xCB:
	LDS  R26,_OSC
	CPI  R26,LOW(0x14)
	BRNE _0xCC
; 0000 028C       a = 27;}
	LDI  R30,LOW(27)
	STS  _a,R30
; 0000 028D       if(OSC==24){
_0xCC:
	LDS  R26,_OSC
	CPI  R26,LOW(0x18)
	BRNE _0xCD
; 0000 028E       a = 5;}
	LDI  R30,LOW(5)
	STS  _a,R30
; 0000 028F       if(OSC==28){
_0xCD:
	LDS  R26,_OSC
	CPI  R26,LOW(0x1C)
	BRNE _0xCE
; 0000 0290       a = 12;}}
	LDI  R30,LOW(12)
	STS  _a,R30
_0xCE:
; 0000 0291       if((TUSCIAS==0)&&(PILNAS==0)){
_0xCA:
	LDS  R26,_TUSCIAS
	CPI  R26,LOW(0x0)
	BRNE _0xD0
	LDS  R26,_PILNAS
	CPI  R26,LOW(0x0)
	BREQ _0xD1
_0xD0:
	RJMP _0xCF
_0xD1:
; 0000 0292       if(OSC==16){
	LDS  R26,_OSC
	CPI  R26,LOW(0x10)
	BRNE _0xD2
; 0000 0293       a = 24;}
	LDI  R30,LOW(24)
	STS  _a,R30
; 0000 0294       if(OSC==20){
_0xD2:
	LDS  R26,_OSC
	CPI  R26,LOW(0x14)
	BRNE _0xD3
; 0000 0295       a = 28;}
	LDI  R30,LOW(28)
	STS  _a,R30
; 0000 0296       if(OSC==24){
_0xD3:
	LDS  R26,_OSC
	CPI  R26,LOW(0x18)
	BRNE _0xD4
; 0000 0297       a = 5;}
	LDI  R30,LOW(5)
	STS  _a,R30
; 0000 0298       if(OSC==28){
_0xD4:
	LDS  R26,_OSC
	CPI  R26,LOW(0x1C)
	BRNE _0xD5
; 0000 0299       a = 15;}}
	LDI  R30,LOW(15)
	STS  _a,R30
_0xD5:
; 0000 029A       if(PILNAS==1){
_0xCF:
	LDS  R26,_PILNAS
	CPI  R26,LOW(0x1)
	BRNE _0xD6
; 0000 029B       if(OSC==16){
	LDS  R26,_OSC
	CPI  R26,LOW(0x10)
	BRNE _0xD7
; 0000 029C       a = 24;}
	LDI  R30,LOW(24)
	STS  _a,R30
; 0000 029D       if(OSC==20){
_0xD7:
	LDS  R26,_OSC
	CPI  R26,LOW(0x14)
	BRNE _0xD8
; 0000 029E       a = 1;}
	LDI  R30,LOW(1)
	STS  _a,R30
; 0000 029F       if(OSC==24){
_0xD8:
	LDS  R26,_OSC
	CPI  R26,LOW(0x18)
	BRNE _0xD9
; 0000 02A0       a = 22;}
	LDI  R30,LOW(22)
	STS  _a,R30
; 0000 02A1       if(OSC==28){
_0xD9:
	LDS  R26,_OSC
	CPI  R26,LOW(0x1C)
	BRNE _0xDA
; 0000 02A2       a = 34;}}}}
	LDI  R30,LOW(34)
	STS  _a,R30
_0xDA:
_0xD6:
_0xBF:
; 0000 02A3 
; 0000 02A4       //KELINTADIENIO NUSTATYMAI:
; 0000 02A5       if((DB_LAIKO_RODYMAS==1)&&(REDAGAVIMAS==0)&&
_0xB4:
; 0000 02A6       (MYGTUKAS_2==1)&&(EILUTES_SKAICIUS==0)){
	LDS  R26,_DB_LAIKO_RODYMAS
	CPI  R26,LOW(0x1)
	BRNE _0xDC
	LDS  R26,_REDAGAVIMAS
	CPI  R26,LOW(0x0)
	BRNE _0xDC
	LDS  R26,_MYGTUKAS_2
	CPI  R26,LOW(0x1)
	BRNE _0xDC
	LDS  R26,_EILUTES_SKAICIUS
	CPI  R26,LOW(0x0)
	BREQ _0xDD
_0xDC:
	RJMP _0xDB
_0xDD:
; 0000 02A7       KELINTADIENIO_PERZIURA = 1;
	LDI  R30,LOW(1)
	STS  _KELINTADIENIO_PERZIURA,R30
; 0000 02A8       MYGTUKAS_2 = 0;}
	LDI  R30,LOW(0)
	STS  _MYGTUKAS_2,R30
; 0000 02A9 
; 0000 02AA       if(KELINTADIENIO_PERZIURA==1){
_0xDB:
	LDS  R26,_KELINTADIENIO_PERZIURA
	CPI  R26,LOW(0x1)
	BRNE _0xDE
; 0000 02AB       DB_LAIKO_RODYMAS = 0;
	LDI  R30,LOW(0)
	STS  _DB_LAIKO_RODYMAS,R30
; 0000 02AC       REDAGAVIMAS = 0;
	CALL SUBOPT_0x8
; 0000 02AD       EILUTES_SKAICIUS = 0;}
	STS  _EILUTES_SKAICIUS,R30
; 0000 02AE 
; 0000 02AF       if((KELINTADIENIO_PERZIURA==1)&&
_0xDE:
; 0000 02B0       (KELINTADIENIO_REDAGAVIMAS==0)&&
; 0000 02B1       ((MYGTUKAS_1==1)||(MYGTUKAS_3==1)||
; 0000 02B2       (MYGTUKAS_4==1)||(MYGTUKAS_5==1)||(MYGTUKAS_7==1))){
	LDS  R26,_KELINTADIENIO_PERZIURA
	CPI  R26,LOW(0x1)
	BRNE _0xE0
	LDS  R26,_KELINTADIENIO_REDAGAVIMAS
	CPI  R26,LOW(0x0)
	BRNE _0xE0
	LDS  R26,_MYGTUKAS_1
	CPI  R26,LOW(0x1)
	BREQ _0xE1
	LDS  R26,_MYGTUKAS_3
	CPI  R26,LOW(0x1)
	BREQ _0xE1
	LDS  R26,_MYGTUKAS_4
	CPI  R26,LOW(0x1)
	BREQ _0xE1
	LDS  R26,_MYGTUKAS_5
	CPI  R26,LOW(0x1)
	BREQ _0xE1
	LDS  R26,_MYGTUKAS_7
	CPI  R26,LOW(0x1)
	BRNE _0xE0
_0xE1:
	RJMP _0xE3
_0xE0:
	RJMP _0xDF
_0xE3:
; 0000 02B3       KELINTADIENIO_PERZIURA = 0;
	CALL SUBOPT_0xA
; 0000 02B4       KELINTADIENIO_REDAGAVIMAS = 0;
; 0000 02B5       BATERIJOS_BUSENA = 0;
; 0000 02B6       MYGTUKAS_1 = 0;
	LDI  R30,LOW(0)
	STS  _MYGTUKAS_1,R30
; 0000 02B7       MYGTUKAS_3 = 0;
	CALL SUBOPT_0xB
; 0000 02B8       MYGTUKAS_4 = 0;
	CALL SUBOPT_0xC
; 0000 02B9       MYGTUKAS_5 = 0;
; 0000 02BA       MYGTUKAS_7 = 0;}
	STS  _MYGTUKAS_7,R30
; 0000 02BB 
; 0000 02BC       if((KELINTADIENIO_PERZIURA==1)&&(MYGTUKAS_6==1)&&
_0xDF:
; 0000 02BD       (KELINTADIENIO_REDAGAVIMAS==0)){
	LDS  R26,_KELINTADIENIO_PERZIURA
	CPI  R26,LOW(0x1)
	BRNE _0xE5
	LDS  R26,_MYGTUKAS_6
	CPI  R26,LOW(0x1)
	BRNE _0xE5
	LDS  R26,_KELINTADIENIO_REDAGAVIMAS
	CPI  R26,LOW(0x0)
	BREQ _0xE6
_0xE5:
	RJMP _0xE4
_0xE6:
; 0000 02BE       KELINTADIENIO_REDAGAVIMAS = 1;
	LDI  R30,LOW(1)
	STS  _KELINTADIENIO_REDAGAVIMAS,R30
; 0000 02BF       MYGTUKAS_6 = 0;}
	LDI  R30,LOW(0)
	STS  _MYGTUKAS_6,R30
; 0000 02C0 
; 0000 02C1       if((KELINTADIENIO_PERZIURA==1)&&((MYGTUKAS_6==1)||
_0xE4:
; 0000 02C2       (MYGTUKAS_3==1))&&(KELINTADIENIO_REDAGAVIMAS==1)){
	LDS  R26,_KELINTADIENIO_PERZIURA
	CPI  R26,LOW(0x1)
	BRNE _0xE8
	LDS  R26,_MYGTUKAS_6
	CPI  R26,LOW(0x1)
	BREQ _0xE9
	LDS  R26,_MYGTUKAS_3
	CPI  R26,LOW(0x1)
	BRNE _0xE8
_0xE9:
	LDS  R26,_KELINTADIENIO_REDAGAVIMAS
	CPI  R26,LOW(0x1)
	BREQ _0xEB
_0xE8:
	RJMP _0xE7
_0xEB:
; 0000 02C3       KELINTADIENIO_REDAGAVIMAS = 0;
	LDI  R30,LOW(0)
	STS  _KELINTADIENIO_REDAGAVIMAS,R30
; 0000 02C4       MYGTUKAS_3 = 0;
	CALL SUBOPT_0xB
; 0000 02C5       MYGTUKAS_6 = 0;}
	STS  _MYGTUKAS_6,R30
; 0000 02C6 
; 0000 02C7       if((desimtys_valandos==0)&&(valandos==0)&&
_0xE7:
; 0000 02C8       (desimtys_minutes==0)&&(minutes==0)&&(sekundes==0)&&
; 0000 02C9       (LAIKRODIS==1)){
	LDS  R26,_desimtys_valandos
	CPI  R26,LOW(0x0)
	BRNE _0xED
	LDS  R26,_valandos
	CPI  R26,LOW(0x0)
	BRNE _0xED
	LDS  R26,_desimtys_minutes
	CPI  R26,LOW(0x0)
	BRNE _0xED
	LDS  R26,_minutes
	CPI  R26,LOW(0x0)
	BRNE _0xED
	LDS  R26,_sekundes
	CPI  R26,LOW(0x0)
	BRNE _0xED
	LDS  R26,_LAIKRODIS
	CPI  R26,LOW(0x1)
	BREQ _0xEE
_0xED:
	RJMP _0xEC
_0xEE:
; 0000 02CA       KELINTADIENIS = KELINTADIENIS + 1;}
	LDS  R30,_KELINTADIENIS
	SUBI R30,-LOW(1)
	STS  _KELINTADIENIS,R30
; 0000 02CB 
; 0000 02CC       if((KELINTADIENIO_REDAGAVIMAS==1)&&(MYGTUKAS_1==1)){
_0xEC:
	LDS  R26,_KELINTADIENIO_REDAGAVIMAS
	CPI  R26,LOW(0x1)
	BRNE _0xF0
	LDS  R26,_MYGTUKAS_1
	CPI  R26,LOW(0x1)
	BREQ _0xF1
_0xF0:
	RJMP _0xEF
_0xF1:
; 0000 02CD       KELINTADIENIS = KELINTADIENIS + 1;}
	LDS  R30,_KELINTADIENIS
	SUBI R30,-LOW(1)
	STS  _KELINTADIENIS,R30
; 0000 02CE 
; 0000 02CF       if((KELINTADIENIO_REDAGAVIMAS==1)&&(MYGTUKAS_5==1)){
_0xEF:
	LDS  R26,_KELINTADIENIO_REDAGAVIMAS
	CPI  R26,LOW(0x1)
	BRNE _0xF3
	LDS  R26,_MYGTUKAS_5
	CPI  R26,LOW(0x1)
	BREQ _0xF4
_0xF3:
	RJMP _0xF2
_0xF4:
; 0000 02D0       KELINTADIENIS = KELINTADIENIS - 1;}
	LDS  R30,_KELINTADIENIS
	LDI  R31,0
	SBIW R30,1
	STS  _KELINTADIENIS,R30
; 0000 02D1 
; 0000 02D2       if(KELINTADIENIS==0){
_0xF2:
	LDS  R30,_KELINTADIENIS
	CPI  R30,0
	BRNE _0xF5
; 0000 02D3       KELINTADIENIS = 7;}
	LDI  R30,LOW(7)
	STS  _KELINTADIENIS,R30
; 0000 02D4 
; 0000 02D5       if(KELINTADIENIS==8){
_0xF5:
	LDS  R26,_KELINTADIENIS
	CPI  R26,LOW(0x8)
	BRNE _0xF6
; 0000 02D6       KELINTADIENIS = 1;}
	LDI  R30,LOW(1)
	STS  _KELINTADIENIS,R30
; 0000 02D7 
; 0000 02D8       if((KELINTADIENIO_PERZIURA==1)&&(BATERIJOS_BUSENA==0)){
_0xF6:
	LDS  R26,_KELINTADIENIO_PERZIURA
	CPI  R26,LOW(0x1)
	BRNE _0xF8
	LDS  R26,_BATERIJOS_BUSENA
	CPI  R26,LOW(0x0)
	BREQ _0xF9
_0xF8:
	RJMP _0xF7
_0xF9:
; 0000 02D9       if(OSC==0){
	LDS  R30,_OSC
	CPI  R30,0
	BRNE _0xFA
; 0000 02DA       a = KELINTADIENIS;}
	LDS  R30,_KELINTADIENIS
	STS  _a,R30
; 0000 02DB       if(OSC==4){
_0xFA:
	LDS  R26,_OSC
	CPI  R26,LOW(0x4)
	BRNE _0xFB
; 0000 02DC       a = 32;}
	LDI  R30,LOW(32)
	STS  _a,R30
; 0000 02DD       if(OSC==8){
_0xFB:
	LDS  R26,_OSC
	CPI  R26,LOW(0x8)
	BRNE _0xFC
; 0000 02DE       a = 14;}
	LDI  R30,LOW(14)
	STS  _a,R30
; 0000 02DF       if(OSC==12){
_0xFC:
	LDS  R26,_OSC
	CPI  R26,LOW(0xC)
	BRNE _0xFD
; 0000 02E0       a = 20;}
	LDI  R30,LOW(20)
	STS  _a,R30
; 0000 02E1       if(OSC==16){
_0xFD:
	LDS  R26,_OSC
	CPI  R26,LOW(0x10)
	BRNE _0xFE
; 0000 02E2       a = 15;}
	LDI  R30,LOW(15)
	STS  _a,R30
; 0000 02E3       if(OSC==20){
_0xFE:
	LDS  R26,_OSC
	CPI  R26,LOW(0x14)
	BRNE _0xFF
; 0000 02E4       a = 34;}
	LDI  R30,LOW(34)
	STS  _a,R30
; 0000 02E5       if(OSC==24){
_0xFF:
	LDS  R26,_OSC
	CPI  R26,LOW(0x18)
	BRNE _0x100
; 0000 02E6       a = 20;}
	LDI  R30,LOW(20)
	STS  _a,R30
; 0000 02E7       if(OSC==28){
_0x100:
	LDS  R26,_OSC
	CPI  R26,LOW(0x1C)
	BRNE _0x101
; 0000 02E8       a = 5;}
	LDI  R30,LOW(5)
	STS  _a,R30
; 0000 02E9       MYGTUKAS_1 = 0;
_0x101:
	LDI  R30,LOW(0)
	STS  _MYGTUKAS_1,R30
; 0000 02EA       MYGTUKAS_2 = 0;
	STS  _MYGTUKAS_2,R30
; 0000 02EB       MYGTUKAS_3 = 0;
	CALL SUBOPT_0xB
; 0000 02EC       MYGTUKAS_4 = 0;
	CALL SUBOPT_0xC
; 0000 02ED       MYGTUKAS_5 = 0;
; 0000 02EE       MYGTUKAS_6 = 0;}
	STS  _MYGTUKAS_6,R30
; 0000 02EF 
; 0000 02F0       if((KELINTADIENIO_REDAGAVIMAS==1)&&(BLYKCIOTI==1)){
_0xF7:
	LDS  R26,_KELINTADIENIO_REDAGAVIMAS
	CPI  R26,LOW(0x1)
	BRNE _0x103
	LDS  R26,_BLYKCIOTI
	CPI  R26,LOW(0x1)
	BREQ _0x104
_0x103:
	RJMP _0x102
_0x104:
; 0000 02F1       a = 33;}
	LDI  R30,LOW(33)
	STS  _a,R30
; 0000 02F2 
; 0000 02F3 
; 0000 02F4 
; 0000 02F5       //TIKRAS LAIKAS:
; 0000 02F6       //redaguojant:
; 0000 02F7 
; 0000 02F8       if((desimtys_valandos<0)&&(valandos<4)){
_0x102:
	LDS  R26,_desimtys_valandos
	CPI  R26,0
	BRGE _0x106
	LDS  R26,_valandos
	CPI  R26,LOW(0x4)
	BRLT _0x107
_0x106:
	RJMP _0x105
_0x107:
; 0000 02F9       desimtys_valandos = 2;}
	LDI  R30,LOW(2)
	STS  _desimtys_valandos,R30
; 0000 02FA 
; 0000 02FB       if((desimtys_valandos<0)&&(valandos>=4)){
_0x105:
	LDS  R26,_desimtys_valandos
	CPI  R26,0
	BRGE _0x109
	LDS  R26,_valandos
	CPI  R26,LOW(0x4)
	BRGE _0x10A
_0x109:
	RJMP _0x108
_0x10A:
; 0000 02FC       desimtys_valandos = 1;}
	LDI  R30,LOW(1)
	STS  _desimtys_valandos,R30
; 0000 02FD 
; 0000 02FE       if(valandos<0){
_0x108:
	LDS  R26,_valandos
	CPI  R26,0
	BRGE _0x10B
; 0000 02FF       valandos = 9;}
	LDI  R30,LOW(9)
	STS  _valandos,R30
; 0000 0300       if(desimtys_minutes<0){
_0x10B:
	LDS  R26,_desimtys_minutes
	CPI  R26,0
	BRGE _0x10C
; 0000 0301       desimtys_minutes = 5;}
	LDI  R30,LOW(5)
	STS  _desimtys_minutes,R30
; 0000 0302       if(minutes<0){
_0x10C:
	LDS  R26,_minutes
	CPI  R26,0
	BRGE _0x10D
; 0000 0303       minutes = 9;}
	LDI  R30,LOW(9)
	STS  _minutes,R30
; 0000 0304 
; 0000 0305       //laiko skaiciavimas:
; 0000 0306       if((LAIKRODIS==1)&&(REDAGAVIMAS==0)){
_0x10D:
	LDS  R26,_LAIKRODIS
	CPI  R26,LOW(0x1)
	BRNE _0x10F
	LDS  R26,_REDAGAVIMAS
	CPI  R26,LOW(0x0)
	BREQ _0x110
_0x10F:
	RJMP _0x10E
_0x110:
; 0000 0307       sekundes = sekundes + 2;}
	LDS  R30,_sekundes
	SUBI R30,-LOW(2)
	STS  _sekundes,R30
; 0000 0308 
; 0000 0309       if((sekundes==60)&&(REDAGAVIMAS==0)){
_0x10E:
	LDS  R26,_sekundes
	CPI  R26,LOW(0x3C)
	BRNE _0x112
	LDS  R26,_REDAGAVIMAS
	CPI  R26,LOW(0x0)
	BREQ _0x113
_0x112:
	RJMP _0x111
_0x113:
; 0000 030A       minutes = minutes + 1;
	LDS  R30,_minutes
	SUBI R30,-LOW(1)
	STS  _minutes,R30
; 0000 030B       sekundes = 0;}
	LDI  R30,LOW(0)
	STS  _sekundes,R30
; 0000 030C 
; 0000 030D       if((minutes==10)&&(REDAGAVIMAS==0)){
_0x111:
	LDS  R26,_minutes
	CPI  R26,LOW(0xA)
	BRNE _0x115
	LDS  R26,_REDAGAVIMAS
	CPI  R26,LOW(0x0)
	BREQ _0x116
_0x115:
	RJMP _0x114
_0x116:
; 0000 030E       desimtys_minutes = desimtys_minutes + 1;
	LDS  R30,_desimtys_minutes
	SUBI R30,-LOW(1)
	STS  _desimtys_minutes,R30
; 0000 030F       minutes = 0;}
	LDI  R30,LOW(0)
	STS  _minutes,R30
; 0000 0310 
; 0000 0311       if((desimtys_minutes==6)&&(REDAGAVIMAS==0)){
_0x114:
	LDS  R26,_desimtys_minutes
	CPI  R26,LOW(0x6)
	BRNE _0x118
	LDS  R26,_REDAGAVIMAS
	CPI  R26,LOW(0x0)
	BREQ _0x119
_0x118:
	RJMP _0x117
_0x119:
; 0000 0312       valandos = valandos + 1;
	LDS  R30,_valandos
	SUBI R30,-LOW(1)
	STS  _valandos,R30
; 0000 0313       desimtys_minutes = 0;}
	LDI  R30,LOW(0)
	STS  _desimtys_minutes,R30
; 0000 0314 
; 0000 0315       if((valandos==10)&&(REDAGAVIMAS==0)){
_0x117:
	LDS  R26,_valandos
	CPI  R26,LOW(0xA)
	BRNE _0x11B
	LDS  R26,_REDAGAVIMAS
	CPI  R26,LOW(0x0)
	BREQ _0x11C
_0x11B:
	RJMP _0x11A
_0x11C:
; 0000 0316       desimtys_valandos = desimtys_valandos + 1;
	LDS  R30,_desimtys_valandos
	SUBI R30,-LOW(1)
	STS  _desimtys_valandos,R30
; 0000 0317       valandos = 0;}
	LDI  R30,LOW(0)
	STS  _valandos,R30
; 0000 0318 
; 0000 0319       if((valandos>=4)&&(desimtys_valandos>=2)&&
_0x11A:
; 0000 031A       (REDAGAVIMAS==0)){
	LDS  R26,_valandos
	CPI  R26,LOW(0x4)
	BRLT _0x11E
	LDS  R26,_desimtys_valandos
	CPI  R26,LOW(0x2)
	BRLT _0x11E
	LDS  R26,_REDAGAVIMAS
	CPI  R26,LOW(0x0)
	BREQ _0x11F
_0x11E:
	RJMP _0x11D
_0x11F:
; 0000 031B       valandos = 0;
	LDI  R30,LOW(0)
	STS  _valandos,R30
; 0000 031C       desimtys_valandos = 0;}
	STS  _desimtys_valandos,R30
; 0000 031D 
; 0000 031E       //EILUTES SKAICIAUS NUSTATYMAS:
; 0000 031F       if(REDAGAVIMAS==0){
_0x11D:
	LDS  R30,_REDAGAVIMAS
	CPI  R30,0
	BREQ PC+3
	JMP _0x120
; 0000 0320       if(MYGTUKAS_1==1){
	LDS  R26,_MYGTUKAS_1
	CPI  R26,LOW(0x1)
	BRNE _0x121
; 0000 0321       if((EILUTES_SKAICIUS!=20)&&(g==0)){
	LDS  R26,_EILUTES_SKAICIUS
	CPI  R26,LOW(0x14)
	BREQ _0x123
	LDS  R26,_g
	CPI  R26,LOW(0x0)
	BREQ _0x124
_0x123:
	RJMP _0x122
_0x124:
; 0000 0322       EILUTES_SKAICIUS = EILUTES_SKAICIUS + 1;
	LDS  R30,_EILUTES_SKAICIUS
	SUBI R30,-LOW(1)
	CALL SUBOPT_0xD
; 0000 0323       g = 1;}
; 0000 0324       if((EILUTES_SKAICIUS==20)&&(g==0)){
_0x122:
	LDS  R26,_EILUTES_SKAICIUS
	CPI  R26,LOW(0x14)
	BRNE _0x126
	LDS  R26,_g
	CPI  R26,LOW(0x0)
	BREQ _0x127
_0x126:
	RJMP _0x125
_0x127:
; 0000 0325       EILUTES_SKAICIUS = 1;
	LDI  R30,LOW(1)
	CALL SUBOPT_0xD
; 0000 0326       g = 1;}}
_0x125:
; 0000 0327       if(MYGTUKAS_5==1){
_0x121:
	LDS  R26,_MYGTUKAS_5
	CPI  R26,LOW(0x1)
	BRNE _0x128
; 0000 0328       if((EILUTES_SKAICIUS<=1)&&(g==0)){
	LDS  R26,_EILUTES_SKAICIUS
	CPI  R26,LOW(0x2)
	BRGE _0x12A
	LDS  R26,_g
	CPI  R26,LOW(0x0)
	BREQ _0x12B
_0x12A:
	RJMP _0x129
_0x12B:
; 0000 0329       EILUTES_SKAICIUS = 20;
	LDI  R30,LOW(20)
	CALL SUBOPT_0xD
; 0000 032A       g = 1;}
; 0000 032B       if((EILUTES_SKAICIUS>=2)&&(g==0)){
_0x129:
	LDS  R26,_EILUTES_SKAICIUS
	CPI  R26,LOW(0x2)
	BRLT _0x12D
	LDS  R26,_g
	CPI  R26,LOW(0x0)
	BREQ _0x12E
_0x12D:
	RJMP _0x12C
_0x12E:
; 0000 032C       EILUTES_SKAICIUS = EILUTES_SKAICIUS - 1;
	LDS  R30,_EILUTES_SKAICIUS
	CALL SUBOPT_0x7
	CALL SUBOPT_0xD
; 0000 032D       g = 1;}}
_0x12C:
; 0000 032E       g = 0;
_0x128:
	LDI  R30,LOW(0)
	STS  _g,R30
; 0000 032F       if(MYGTUKAS_7){
	LDS  R30,_MYGTUKAS_7
	CPI  R30,0
	BREQ _0x12F
; 0000 0330       EILUTES_SKAICIUS = 0;}}
	LDI  R30,LOW(0)
	STS  _EILUTES_SKAICIUS,R30
_0x12F:
; 0000 0331       //REDAGAVIMAS:
; 0000 0332 
; 0000 0333       if(MYGTUKAS_6==1){
_0x120:
	LDS  R26,_MYGTUKAS_6
	CPI  R26,LOW(0x1)
	BRNE _0x130
; 0000 0334       REDAGAVIMAS = 1;}
	LDI  R30,LOW(1)
	STS  _REDAGAVIMAS,R30
; 0000 0335       if(MYGTUKAS_2==1){
_0x130:
	LDS  R26,_MYGTUKAS_2
	CPI  R26,LOW(0x1)
	BRNE _0x131
; 0000 0336       REDAG_SK_NR = REDAG_SK_NR - 1;}
	LDS  R30,_REDAG_SK_NR
	CALL SUBOPT_0x7
	STS  _REDAG_SK_NR,R30
; 0000 0337       if(MYGTUKAS_4==1){
_0x131:
	LDS  R26,_MYGTUKAS_4
	CPI  R26,LOW(0x1)
	BRNE _0x132
; 0000 0338       REDAG_SK_NR = REDAG_SK_NR + 1;}
	LDS  R30,_REDAG_SK_NR
	SUBI R30,-LOW(1)
	STS  _REDAG_SK_NR,R30
; 0000 0339 
; 0000 033A       if(REDAG_SK_NR==-1){
_0x132:
	LDS  R26,_REDAG_SK_NR
	CPI  R26,LOW(0xFF)
	BRNE _0x133
; 0000 033B       REDAG_SK_NR = 3;}
	LDI  R30,LOW(3)
	STS  _REDAG_SK_NR,R30
; 0000 033C 
; 0000 033D       if(REDAG_SK_NR==4){
_0x133:
	LDS  R26,_REDAG_SK_NR
	CPI  R26,LOW(0x4)
	BRNE _0x134
; 0000 033E       REDAG_SK_NR = 0;}
	LDI  R30,LOW(0)
	STS  _REDAG_SK_NR,R30
; 0000 033F 
; 0000 0340       if(MYGTUKAS_3==1){
_0x134:
	LDS  R26,_MYGTUKAS_3
	CPI  R26,LOW(0x1)
	BRNE _0x135
; 0000 0341       REDAGAVIMAS = 0;
	CALL SUBOPT_0x8
; 0000 0342       REDAG_SK_NR = 0;}
	STS  _REDAG_SK_NR,R30
; 0000 0343 
; 0000 0344       //TIKROJO LAIKO REDAGAVIMAS:
; 0000 0345       if((EILUTES_SKAICIUS==0)&&(REDAGAVIMAS==1)){
_0x135:
	LDS  R26,_EILUTES_SKAICIUS
	CPI  R26,LOW(0x0)
	BRNE _0x137
	LDS  R26,_REDAGAVIMAS
	CPI  R26,LOW(0x1)
	BREQ _0x138
_0x137:
	RJMP _0x136
_0x138:
; 0000 0346       if((REDAG_SK_NR==0)&&(MYGTUKAS_1==1)){
	LDS  R26,_REDAG_SK_NR
	CPI  R26,LOW(0x0)
	BRNE _0x13A
	LDS  R26,_MYGTUKAS_1
	CPI  R26,LOW(0x1)
	BREQ _0x13B
_0x13A:
	RJMP _0x139
_0x13B:
; 0000 0347       desimtys_valandos = desimtys_valandos + 1;}
	LDS  R30,_desimtys_valandos
	SUBI R30,-LOW(1)
	STS  _desimtys_valandos,R30
; 0000 0348       if((REDAG_SK_NR==0)&&(MYGTUKAS_5==1)){
_0x139:
	LDS  R26,_REDAG_SK_NR
	CPI  R26,LOW(0x0)
	BRNE _0x13D
	LDS  R26,_MYGTUKAS_5
	CPI  R26,LOW(0x1)
	BREQ _0x13E
_0x13D:
	RJMP _0x13C
_0x13E:
; 0000 0349       desimtys_valandos = desimtys_valandos - 1;}
	LDS  R30,_desimtys_valandos
	CALL SUBOPT_0x7
	STS  _desimtys_valandos,R30
; 0000 034A       if((REDAG_SK_NR==1)&&(MYGTUKAS_1==1)){
_0x13C:
	LDS  R26,_REDAG_SK_NR
	CPI  R26,LOW(0x1)
	BRNE _0x140
	LDS  R26,_MYGTUKAS_1
	CPI  R26,LOW(0x1)
	BREQ _0x141
_0x140:
	RJMP _0x13F
_0x141:
; 0000 034B       valandos = valandos + 1;}
	LDS  R30,_valandos
	SUBI R30,-LOW(1)
	STS  _valandos,R30
; 0000 034C       if((REDAG_SK_NR==1)&&(MYGTUKAS_5==1)){
_0x13F:
	LDS  R26,_REDAG_SK_NR
	CPI  R26,LOW(0x1)
	BRNE _0x143
	LDS  R26,_MYGTUKAS_5
	CPI  R26,LOW(0x1)
	BREQ _0x144
_0x143:
	RJMP _0x142
_0x144:
; 0000 034D       valandos = valandos - 1;}
	LDS  R30,_valandos
	CALL SUBOPT_0x7
	STS  _valandos,R30
; 0000 034E       if((REDAG_SK_NR==2)&&(MYGTUKAS_1==1)){
_0x142:
	LDS  R26,_REDAG_SK_NR
	CPI  R26,LOW(0x2)
	BRNE _0x146
	LDS  R26,_MYGTUKAS_1
	CPI  R26,LOW(0x1)
	BREQ _0x147
_0x146:
	RJMP _0x145
_0x147:
; 0000 034F       desimtys_minutes = desimtys_minutes + 1;}
	LDS  R30,_desimtys_minutes
	SUBI R30,-LOW(1)
	STS  _desimtys_minutes,R30
; 0000 0350       if((REDAG_SK_NR==2)&&(MYGTUKAS_5==1)){
_0x145:
	LDS  R26,_REDAG_SK_NR
	CPI  R26,LOW(0x2)
	BRNE _0x149
	LDS  R26,_MYGTUKAS_5
	CPI  R26,LOW(0x1)
	BREQ _0x14A
_0x149:
	RJMP _0x148
_0x14A:
; 0000 0351       desimtys_minutes = desimtys_minutes - 1;}
	LDS  R30,_desimtys_minutes
	CALL SUBOPT_0x7
	STS  _desimtys_minutes,R30
; 0000 0352       if((REDAG_SK_NR==3)&&(MYGTUKAS_1==1)){
_0x148:
	LDS  R26,_REDAG_SK_NR
	CPI  R26,LOW(0x3)
	BRNE _0x14C
	LDS  R26,_MYGTUKAS_1
	CPI  R26,LOW(0x1)
	BREQ _0x14D
_0x14C:
	RJMP _0x14B
_0x14D:
; 0000 0353       minutes = minutes + 1;}
	LDS  R30,_minutes
	SUBI R30,-LOW(1)
	STS  _minutes,R30
; 0000 0354       if((REDAG_SK_NR==3)&&(MYGTUKAS_5==1)){
_0x14B:
	LDS  R26,_REDAG_SK_NR
	CPI  R26,LOW(0x3)
	BRNE _0x14F
	LDS  R26,_MYGTUKAS_5
	CPI  R26,LOW(0x1)
	BREQ _0x150
_0x14F:
	RJMP _0x14E
_0x150:
; 0000 0355       minutes = minutes - 1;}}
	LDS  R30,_minutes
	CALL SUBOPT_0x7
	STS  _minutes,R30
_0x14E:
; 0000 0356       if(REDAGAVIMAS==1){
_0x136:
	LDS  R26,_REDAGAVIMAS
	CPI  R26,LOW(0x1)
	BREQ PC+3
	JMP _0x151
; 0000 0357       if(minutes==10){
	LDS  R26,_minutes
	CPI  R26,LOW(0xA)
	BRNE _0x152
; 0000 0358       minutes=0;}
	LDI  R30,LOW(0)
	STS  _minutes,R30
; 0000 0359       if(desimtys_minutes==6){
_0x152:
	LDS  R26,_desimtys_minutes
	CPI  R26,LOW(0x6)
	BRNE _0x153
; 0000 035A       desimtys_minutes = 0;}
	LDI  R30,LOW(0)
	STS  _desimtys_minutes,R30
; 0000 035B       if(valandos==10){
_0x153:
	LDS  R26,_valandos
	CPI  R26,LOW(0xA)
	BRNE _0x154
; 0000 035C       valandos = 0;}
	LDI  R30,LOW(0)
	STS  _valandos,R30
; 0000 035D       if(desimtys_valandos==3){
_0x154:
	LDS  R26,_desimtys_valandos
	CPI  R26,LOW(0x3)
	BRNE _0x155
; 0000 035E       desimtys_valandos = 0;}
	LDI  R30,LOW(0)
	STS  _desimtys_valandos,R30
; 0000 035F       if((desimtys_valandos==2)&&(valandos>=4)){
_0x155:
	LDS  R26,_desimtys_valandos
	CPI  R26,LOW(0x2)
	BRNE _0x157
	LDS  R26,_valandos
	CPI  R26,LOW(0x4)
	BRGE _0x158
_0x157:
	RJMP _0x156
_0x158:
; 0000 0360       desimtys_valandos = 0;}
	LDI  R30,LOW(0)
	STS  _desimtys_valandos,R30
; 0000 0361 
; 0000 0362       if(minutes==-1){
_0x156:
	LDS  R26,_minutes
	CPI  R26,LOW(0xFF)
	BRNE _0x159
; 0000 0363       minutes = 9;}
	LDI  R30,LOW(9)
	STS  _minutes,R30
; 0000 0364       if(desimtys_minutes==-1){
_0x159:
	LDS  R26,_desimtys_minutes
	CPI  R26,LOW(0xFF)
	BRNE _0x15A
; 0000 0365       desimtys_minutes = 5;}
	LDI  R30,LOW(5)
	STS  _desimtys_minutes,R30
; 0000 0366       if((valandos==-1)&&(desimtys_valandos<=1)){
_0x15A:
	LDS  R26,_valandos
	CPI  R26,LOW(0xFF)
	BRNE _0x15C
	LDS  R26,_desimtys_valandos
	CPI  R26,LOW(0x2)
	BRLT _0x15D
_0x15C:
	RJMP _0x15B
_0x15D:
; 0000 0367       valandos = 9;}
	LDI  R30,LOW(9)
	STS  _valandos,R30
; 0000 0368       if((valandos==-1)&&(desimtys_valandos>=2)){
_0x15B:
	LDS  R26,_valandos
	CPI  R26,LOW(0xFF)
	BRNE _0x15F
	LDS  R26,_desimtys_valandos
	CPI  R26,LOW(0x2)
	BRGE _0x160
_0x15F:
	RJMP _0x15E
_0x160:
; 0000 0369       valandos = 3;}}
	LDI  R30,LOW(3)
	STS  _valandos,R30
_0x15E:
; 0000 036A 
; 0000 036B 
; 0000 036C 
; 0000 036D       //skambucio laiko redagavimas:
; 0000 036E        if(EILUTES_SKAICIUS==0){
_0x151:
	LDS  R30,_EILUTES_SKAICIUS
	CPI  R30,0
	BRNE _0x161
; 0000 036F       d = 0;
	LDI  R30,LOW(0)
	STS  _d,R30
; 0000 0370       e = 0;}
	STS  _e,R30
; 0000 0371 
; 0000 0372 
; 0000 0373       if(EILUTES_SKAICIUS!=0){
_0x161:
	LDS  R30,_EILUTES_SKAICIUS
	CPI  R30,0
	BREQ _0x162
; 0000 0374       d = EILUTES_SKAICIUS/10;
	LDS  R26,_EILUTES_SKAICIUS
	LDI  R27,0
	SBRC R26,7
	SER  R27
	LDI  R30,LOW(10)
	LDI  R31,HIGH(10)
	CALL __DIVW21
	STS  _d,R30
; 0000 0375       e = EILUTES_SKAICIUS - d*10;}
	LDS  R30,_EILUTES_SKAICIUS
	LDI  R31,0
	SBRC R30,7
	SER  R31
	MOVW R22,R30
	LDS  R26,_d
	LDI  R30,LOW(10)
	MULS R30,R26
	MOVW R30,R0
	MOVW R26,R30
	MOVW R30,R22
	SUB  R30,R26
	SBC  R31,R27
	STS  _e,R30
; 0000 0376 
; 0000 0377       {if(EILUTES_SKAICIUS!=EIL_SK){
_0x162:
	LDS  R30,_EIL_SK
	LDS  R26,_EILUTES_SKAICIUS
	CP   R30,R26
	BREQ _0x163
; 0000 0378       f = 1;}
	LDI  R30,LOW(1)
	RJMP _0x340
; 0000 0379       else
_0x163:
; 0000 037A       f = 0;}
	LDI  R30,LOW(0)
_0x340:
	STS  _f,R30
; 0000 037B 
; 0000 037C       EIL_SK = EILUTES_SKAICIUS;
	LDS  R30,_EILUTES_SKAICIUS
	STS  _EIL_SK,R30
; 0000 037D 
; 0000 037E       if((EILUTES_SKAICIUS==1)&&(f==1)){
	LDS  R26,_EILUTES_SKAICIUS
	CPI  R26,LOW(0x1)
	BRNE _0x166
	LDS  R26,_f
	CPI  R26,LOW(0x1)
	BREQ _0x167
_0x166:
	RJMP _0x165
_0x167:
; 0000 037F       x = SKAMBUTIS_1dh;
	CALL SUBOPT_0xE
	STS  _x,R30
; 0000 0380       y = SKAMBUTIS_1h;
	CALL SUBOPT_0xF
	STS  _y,R30
; 0000 0381       z = SKAMBUTIS_1dm;
	CALL SUBOPT_0x10
	STS  _z,R30
; 0000 0382       k = SKAMBUTIS_1m;}
	CALL SUBOPT_0x11
	STS  _k,R30
; 0000 0383       if((EILUTES_SKAICIUS==2)&&(f==1)){
_0x165:
	LDS  R26,_EILUTES_SKAICIUS
	CPI  R26,LOW(0x2)
	BRNE _0x169
	LDS  R26,_f
	CPI  R26,LOW(0x1)
	BREQ _0x16A
_0x169:
	RJMP _0x168
_0x16A:
; 0000 0384       x = SKAMBUTIS_2dh;
	LDI  R26,LOW(_SKAMBUTIS_2dh)
	LDI  R27,HIGH(_SKAMBUTIS_2dh)
	CALL SUBOPT_0x12
; 0000 0385       y = SKAMBUTIS_2h;
	LDI  R26,LOW(_SKAMBUTIS_2h)
	LDI  R27,HIGH(_SKAMBUTIS_2h)
	CALL SUBOPT_0x13
; 0000 0386       z = SKAMBUTIS_2dm;
	LDI  R26,LOW(_SKAMBUTIS_2dm)
	LDI  R27,HIGH(_SKAMBUTIS_2dm)
	CALL SUBOPT_0x14
; 0000 0387       k = SKAMBUTIS_2m;}
	LDI  R26,LOW(_SKAMBUTIS_2m)
	LDI  R27,HIGH(_SKAMBUTIS_2m)
	CALL SUBOPT_0x15
; 0000 0388       if((EILUTES_SKAICIUS==3)&&(f==1)){
_0x168:
	LDS  R26,_EILUTES_SKAICIUS
	CPI  R26,LOW(0x3)
	BRNE _0x16C
	LDS  R26,_f
	CPI  R26,LOW(0x1)
	BREQ _0x16D
_0x16C:
	RJMP _0x16B
_0x16D:
; 0000 0389       x = SKAMBUTIS_3dh;
	LDI  R26,LOW(_SKAMBUTIS_3dh)
	LDI  R27,HIGH(_SKAMBUTIS_3dh)
	CALL SUBOPT_0x12
; 0000 038A       y = SKAMBUTIS_3h;
	LDI  R26,LOW(_SKAMBUTIS_3h)
	LDI  R27,HIGH(_SKAMBUTIS_3h)
	CALL SUBOPT_0x13
; 0000 038B       z = SKAMBUTIS_3dm;
	LDI  R26,LOW(_SKAMBUTIS_3dm)
	LDI  R27,HIGH(_SKAMBUTIS_3dm)
	CALL SUBOPT_0x14
; 0000 038C       k = SKAMBUTIS_3m;}
	LDI  R26,LOW(_SKAMBUTIS_3m)
	LDI  R27,HIGH(_SKAMBUTIS_3m)
	CALL SUBOPT_0x15
; 0000 038D       if((EILUTES_SKAICIUS==4)&&(f==1)){
_0x16B:
	LDS  R26,_EILUTES_SKAICIUS
	CPI  R26,LOW(0x4)
	BRNE _0x16F
	LDS  R26,_f
	CPI  R26,LOW(0x1)
	BREQ _0x170
_0x16F:
	RJMP _0x16E
_0x170:
; 0000 038E       x = SKAMBUTIS_4dh;
	LDI  R26,LOW(_SKAMBUTIS_4dh)
	LDI  R27,HIGH(_SKAMBUTIS_4dh)
	CALL SUBOPT_0x12
; 0000 038F       y = SKAMBUTIS_4h;
	LDI  R26,LOW(_SKAMBUTIS_4h)
	LDI  R27,HIGH(_SKAMBUTIS_4h)
	CALL SUBOPT_0x13
; 0000 0390       z = SKAMBUTIS_4dm;
	LDI  R26,LOW(_SKAMBUTIS_4dm)
	LDI  R27,HIGH(_SKAMBUTIS_4dm)
	CALL SUBOPT_0x14
; 0000 0391       k = SKAMBUTIS_4m;}
	LDI  R26,LOW(_SKAMBUTIS_4m)
	LDI  R27,HIGH(_SKAMBUTIS_4m)
	CALL SUBOPT_0x15
; 0000 0392       if((EILUTES_SKAICIUS==5)&&(f==1)){
_0x16E:
	LDS  R26,_EILUTES_SKAICIUS
	CPI  R26,LOW(0x5)
	BRNE _0x172
	LDS  R26,_f
	CPI  R26,LOW(0x1)
	BREQ _0x173
_0x172:
	RJMP _0x171
_0x173:
; 0000 0393       x = SKAMBUTIS_5dh;
	LDI  R26,LOW(_SKAMBUTIS_5dh)
	LDI  R27,HIGH(_SKAMBUTIS_5dh)
	CALL SUBOPT_0x12
; 0000 0394       y = SKAMBUTIS_5h;
	LDI  R26,LOW(_SKAMBUTIS_5h)
	LDI  R27,HIGH(_SKAMBUTIS_5h)
	CALL SUBOPT_0x13
; 0000 0395       z = SKAMBUTIS_5dm;
	LDI  R26,LOW(_SKAMBUTIS_5dm)
	LDI  R27,HIGH(_SKAMBUTIS_5dm)
	CALL SUBOPT_0x14
; 0000 0396       k = SKAMBUTIS_5m;}
	LDI  R26,LOW(_SKAMBUTIS_5m)
	LDI  R27,HIGH(_SKAMBUTIS_5m)
	CALL SUBOPT_0x15
; 0000 0397       if((EILUTES_SKAICIUS==6)&&(f==1)){
_0x171:
	LDS  R26,_EILUTES_SKAICIUS
	CPI  R26,LOW(0x6)
	BRNE _0x175
	LDS  R26,_f
	CPI  R26,LOW(0x1)
	BREQ _0x176
_0x175:
	RJMP _0x174
_0x176:
; 0000 0398       x = SKAMBUTIS_6dh;
	LDI  R26,LOW(_SKAMBUTIS_6dh)
	LDI  R27,HIGH(_SKAMBUTIS_6dh)
	CALL SUBOPT_0x12
; 0000 0399       y = SKAMBUTIS_6h;
	LDI  R26,LOW(_SKAMBUTIS_6h)
	LDI  R27,HIGH(_SKAMBUTIS_6h)
	CALL SUBOPT_0x13
; 0000 039A       z = SKAMBUTIS_6dm;
	LDI  R26,LOW(_SKAMBUTIS_6dm)
	LDI  R27,HIGH(_SKAMBUTIS_6dm)
	CALL SUBOPT_0x14
; 0000 039B       k = SKAMBUTIS_6m;}
	LDI  R26,LOW(_SKAMBUTIS_6m)
	LDI  R27,HIGH(_SKAMBUTIS_6m)
	CALL SUBOPT_0x15
; 0000 039C       if((EILUTES_SKAICIUS==7)&&(f==1)){
_0x174:
	LDS  R26,_EILUTES_SKAICIUS
	CPI  R26,LOW(0x7)
	BRNE _0x178
	LDS  R26,_f
	CPI  R26,LOW(0x1)
	BREQ _0x179
_0x178:
	RJMP _0x177
_0x179:
; 0000 039D       x = SKAMBUTIS_7dh;
	LDI  R26,LOW(_SKAMBUTIS_7dh)
	LDI  R27,HIGH(_SKAMBUTIS_7dh)
	CALL SUBOPT_0x12
; 0000 039E       y = SKAMBUTIS_7h;
	LDI  R26,LOW(_SKAMBUTIS_7h)
	LDI  R27,HIGH(_SKAMBUTIS_7h)
	CALL SUBOPT_0x13
; 0000 039F       z = SKAMBUTIS_7dm;
	LDI  R26,LOW(_SKAMBUTIS_7dm)
	LDI  R27,HIGH(_SKAMBUTIS_7dm)
	CALL SUBOPT_0x14
; 0000 03A0       k = SKAMBUTIS_7m;}
	LDI  R26,LOW(_SKAMBUTIS_7m)
	LDI  R27,HIGH(_SKAMBUTIS_7m)
	CALL SUBOPT_0x15
; 0000 03A1       if((EILUTES_SKAICIUS==8)&&(f==1)){
_0x177:
	LDS  R26,_EILUTES_SKAICIUS
	CPI  R26,LOW(0x8)
	BRNE _0x17B
	LDS  R26,_f
	CPI  R26,LOW(0x1)
	BREQ _0x17C
_0x17B:
	RJMP _0x17A
_0x17C:
; 0000 03A2       x = SKAMBUTIS_8dh;
	LDI  R26,LOW(_SKAMBUTIS_8dh)
	LDI  R27,HIGH(_SKAMBUTIS_8dh)
	CALL SUBOPT_0x12
; 0000 03A3       y = SKAMBUTIS_8h;
	LDI  R26,LOW(_SKAMBUTIS_8h)
	LDI  R27,HIGH(_SKAMBUTIS_8h)
	CALL SUBOPT_0x13
; 0000 03A4       z = SKAMBUTIS_8dm;
	LDI  R26,LOW(_SKAMBUTIS_8dm)
	LDI  R27,HIGH(_SKAMBUTIS_8dm)
	CALL SUBOPT_0x14
; 0000 03A5       k = SKAMBUTIS_8m;}
	LDI  R26,LOW(_SKAMBUTIS_8m)
	LDI  R27,HIGH(_SKAMBUTIS_8m)
	CALL SUBOPT_0x15
; 0000 03A6       if((EILUTES_SKAICIUS==9)&&(f==1)){
_0x17A:
	LDS  R26,_EILUTES_SKAICIUS
	CPI  R26,LOW(0x9)
	BRNE _0x17E
	LDS  R26,_f
	CPI  R26,LOW(0x1)
	BREQ _0x17F
_0x17E:
	RJMP _0x17D
_0x17F:
; 0000 03A7       x = SKAMBUTIS_9dh;
	LDI  R26,LOW(_SKAMBUTIS_9dh)
	LDI  R27,HIGH(_SKAMBUTIS_9dh)
	CALL SUBOPT_0x12
; 0000 03A8       y = SKAMBUTIS_9h;
	LDI  R26,LOW(_SKAMBUTIS_9h)
	LDI  R27,HIGH(_SKAMBUTIS_9h)
	CALL SUBOPT_0x13
; 0000 03A9       z = SKAMBUTIS_9dm;
	LDI  R26,LOW(_SKAMBUTIS_9dm)
	LDI  R27,HIGH(_SKAMBUTIS_9dm)
	CALL SUBOPT_0x14
; 0000 03AA       k = SKAMBUTIS_9m;}
	LDI  R26,LOW(_SKAMBUTIS_9m)
	LDI  R27,HIGH(_SKAMBUTIS_9m)
	CALL SUBOPT_0x15
; 0000 03AB       if((EILUTES_SKAICIUS==10)&&(f==1)){
_0x17D:
	LDS  R26,_EILUTES_SKAICIUS
	CPI  R26,LOW(0xA)
	BRNE _0x181
	LDS  R26,_f
	CPI  R26,LOW(0x1)
	BREQ _0x182
_0x181:
	RJMP _0x180
_0x182:
; 0000 03AC       x = SKAMBUTIS_10dh;
	LDI  R26,LOW(_SKAMBUTIS_10dh)
	LDI  R27,HIGH(_SKAMBUTIS_10dh)
	CALL SUBOPT_0x12
; 0000 03AD       y = SKAMBUTIS_10h;
	LDI  R26,LOW(_SKAMBUTIS_10h)
	LDI  R27,HIGH(_SKAMBUTIS_10h)
	CALL SUBOPT_0x13
; 0000 03AE       z = SKAMBUTIS_10dm;
	LDI  R26,LOW(_SKAMBUTIS_10dm)
	LDI  R27,HIGH(_SKAMBUTIS_10dm)
	CALL SUBOPT_0x14
; 0000 03AF       k = SKAMBUTIS_10m;}
	LDI  R26,LOW(_SKAMBUTIS_10m)
	LDI  R27,HIGH(_SKAMBUTIS_10m)
	CALL SUBOPT_0x15
; 0000 03B0       if((EILUTES_SKAICIUS==11)&&(f==1)){
_0x180:
	LDS  R26,_EILUTES_SKAICIUS
	CPI  R26,LOW(0xB)
	BRNE _0x184
	LDS  R26,_f
	CPI  R26,LOW(0x1)
	BREQ _0x185
_0x184:
	RJMP _0x183
_0x185:
; 0000 03B1       x = SKAMBUTIS_11dh;
	LDI  R26,LOW(_SKAMBUTIS_11dh)
	LDI  R27,HIGH(_SKAMBUTIS_11dh)
	CALL SUBOPT_0x12
; 0000 03B2       y = SKAMBUTIS_11h;
	LDI  R26,LOW(_SKAMBUTIS_11h)
	LDI  R27,HIGH(_SKAMBUTIS_11h)
	CALL SUBOPT_0x13
; 0000 03B3       z = SKAMBUTIS_11dm;
	LDI  R26,LOW(_SKAMBUTIS_11dm)
	LDI  R27,HIGH(_SKAMBUTIS_11dm)
	CALL SUBOPT_0x14
; 0000 03B4       k = SKAMBUTIS_11m;}
	LDI  R26,LOW(_SKAMBUTIS_11m)
	LDI  R27,HIGH(_SKAMBUTIS_11m)
	CALL SUBOPT_0x15
; 0000 03B5       if((EILUTES_SKAICIUS==12)&&(f==1)){
_0x183:
	LDS  R26,_EILUTES_SKAICIUS
	CPI  R26,LOW(0xC)
	BRNE _0x187
	LDS  R26,_f
	CPI  R26,LOW(0x1)
	BREQ _0x188
_0x187:
	RJMP _0x186
_0x188:
; 0000 03B6       x = SKAMBUTIS_12dh;
	LDI  R26,LOW(_SKAMBUTIS_12dh)
	LDI  R27,HIGH(_SKAMBUTIS_12dh)
	CALL SUBOPT_0x12
; 0000 03B7       y = SKAMBUTIS_12h;
	LDI  R26,LOW(_SKAMBUTIS_12h)
	LDI  R27,HIGH(_SKAMBUTIS_12h)
	CALL SUBOPT_0x13
; 0000 03B8       z = SKAMBUTIS_12dm;
	LDI  R26,LOW(_SKAMBUTIS_12dm)
	LDI  R27,HIGH(_SKAMBUTIS_12dm)
	CALL SUBOPT_0x14
; 0000 03B9       k = SKAMBUTIS_12m;}
	LDI  R26,LOW(_SKAMBUTIS_12m)
	LDI  R27,HIGH(_SKAMBUTIS_12m)
	CALL SUBOPT_0x15
; 0000 03BA       if((EILUTES_SKAICIUS==13)&&(f==1)){
_0x186:
	LDS  R26,_EILUTES_SKAICIUS
	CPI  R26,LOW(0xD)
	BRNE _0x18A
	LDS  R26,_f
	CPI  R26,LOW(0x1)
	BREQ _0x18B
_0x18A:
	RJMP _0x189
_0x18B:
; 0000 03BB       x = SKAMBUTIS_13dh;
	LDI  R26,LOW(_SKAMBUTIS_13dh)
	LDI  R27,HIGH(_SKAMBUTIS_13dh)
	CALL SUBOPT_0x12
; 0000 03BC       y = SKAMBUTIS_13h;
	LDI  R26,LOW(_SKAMBUTIS_13h)
	LDI  R27,HIGH(_SKAMBUTIS_13h)
	CALL SUBOPT_0x13
; 0000 03BD       z = SKAMBUTIS_13dm;
	LDI  R26,LOW(_SKAMBUTIS_13dm)
	LDI  R27,HIGH(_SKAMBUTIS_13dm)
	CALL SUBOPT_0x14
; 0000 03BE       k = SKAMBUTIS_13m;}
	LDI  R26,LOW(_SKAMBUTIS_13m)
	LDI  R27,HIGH(_SKAMBUTIS_13m)
	CALL SUBOPT_0x15
; 0000 03BF       if((EILUTES_SKAICIUS==14)&&(f==1)){
_0x189:
	LDS  R26,_EILUTES_SKAICIUS
	CPI  R26,LOW(0xE)
	BRNE _0x18D
	LDS  R26,_f
	CPI  R26,LOW(0x1)
	BREQ _0x18E
_0x18D:
	RJMP _0x18C
_0x18E:
; 0000 03C0       x = SKAMBUTIS_14dh;
	LDI  R26,LOW(_SKAMBUTIS_14dh)
	LDI  R27,HIGH(_SKAMBUTIS_14dh)
	CALL SUBOPT_0x12
; 0000 03C1       y = SKAMBUTIS_14h;
	LDI  R26,LOW(_SKAMBUTIS_14h)
	LDI  R27,HIGH(_SKAMBUTIS_14h)
	CALL SUBOPT_0x13
; 0000 03C2       z = SKAMBUTIS_14dm;
	LDI  R26,LOW(_SKAMBUTIS_14dm)
	LDI  R27,HIGH(_SKAMBUTIS_14dm)
	CALL SUBOPT_0x14
; 0000 03C3       k = SKAMBUTIS_14m;}
	LDI  R26,LOW(_SKAMBUTIS_14m)
	LDI  R27,HIGH(_SKAMBUTIS_14m)
	CALL SUBOPT_0x15
; 0000 03C4       if((EILUTES_SKAICIUS==15)&&(f==1)){
_0x18C:
	LDS  R26,_EILUTES_SKAICIUS
	CPI  R26,LOW(0xF)
	BRNE _0x190
	LDS  R26,_f
	CPI  R26,LOW(0x1)
	BREQ _0x191
_0x190:
	RJMP _0x18F
_0x191:
; 0000 03C5       x = SKAMBUTIS_15dh;
	LDI  R26,LOW(_SKAMBUTIS_15dh)
	LDI  R27,HIGH(_SKAMBUTIS_15dh)
	CALL SUBOPT_0x12
; 0000 03C6       y = SKAMBUTIS_15h;
	LDI  R26,LOW(_SKAMBUTIS_15h)
	LDI  R27,HIGH(_SKAMBUTIS_15h)
	CALL SUBOPT_0x13
; 0000 03C7       z = SKAMBUTIS_15dm;
	LDI  R26,LOW(_SKAMBUTIS_15dm)
	LDI  R27,HIGH(_SKAMBUTIS_15dm)
	CALL SUBOPT_0x14
; 0000 03C8       k = SKAMBUTIS_15m;}
	LDI  R26,LOW(_SKAMBUTIS_15m)
	LDI  R27,HIGH(_SKAMBUTIS_15m)
	CALL SUBOPT_0x15
; 0000 03C9       if((EILUTES_SKAICIUS==16)&&(f==1)){
_0x18F:
	LDS  R26,_EILUTES_SKAICIUS
	CPI  R26,LOW(0x10)
	BRNE _0x193
	LDS  R26,_f
	CPI  R26,LOW(0x1)
	BREQ _0x194
_0x193:
	RJMP _0x192
_0x194:
; 0000 03CA       x = SKAMBUTIS_16dh;
	LDI  R26,LOW(_SKAMBUTIS_16dh)
	LDI  R27,HIGH(_SKAMBUTIS_16dh)
	CALL SUBOPT_0x12
; 0000 03CB       y = SKAMBUTIS_16h;
	LDI  R26,LOW(_SKAMBUTIS_16h)
	LDI  R27,HIGH(_SKAMBUTIS_16h)
	CALL SUBOPT_0x13
; 0000 03CC       z = SKAMBUTIS_16dm;
	LDI  R26,LOW(_SKAMBUTIS_16dm)
	LDI  R27,HIGH(_SKAMBUTIS_16dm)
	CALL SUBOPT_0x14
; 0000 03CD       k = SKAMBUTIS_16m;}
	LDI  R26,LOW(_SKAMBUTIS_16m)
	LDI  R27,HIGH(_SKAMBUTIS_16m)
	CALL SUBOPT_0x15
; 0000 03CE       if((EILUTES_SKAICIUS==17)&&(f==1)){
_0x192:
	LDS  R26,_EILUTES_SKAICIUS
	CPI  R26,LOW(0x11)
	BRNE _0x196
	LDS  R26,_f
	CPI  R26,LOW(0x1)
	BREQ _0x197
_0x196:
	RJMP _0x195
_0x197:
; 0000 03CF       x = SKAMBUTIS_17dh;
	LDI  R26,LOW(_SKAMBUTIS_17dh)
	LDI  R27,HIGH(_SKAMBUTIS_17dh)
	CALL SUBOPT_0x12
; 0000 03D0       y = SKAMBUTIS_17h;
	LDI  R26,LOW(_SKAMBUTIS_17h)
	LDI  R27,HIGH(_SKAMBUTIS_17h)
	CALL SUBOPT_0x13
; 0000 03D1       z = SKAMBUTIS_17dm;
	LDI  R26,LOW(_SKAMBUTIS_17dm)
	LDI  R27,HIGH(_SKAMBUTIS_17dm)
	CALL SUBOPT_0x14
; 0000 03D2       k = SKAMBUTIS_17m;}
	LDI  R26,LOW(_SKAMBUTIS_17m)
	LDI  R27,HIGH(_SKAMBUTIS_17m)
	CALL SUBOPT_0x15
; 0000 03D3       if((EILUTES_SKAICIUS==18)&&(f==1)){
_0x195:
	LDS  R26,_EILUTES_SKAICIUS
	CPI  R26,LOW(0x12)
	BRNE _0x199
	LDS  R26,_f
	CPI  R26,LOW(0x1)
	BREQ _0x19A
_0x199:
	RJMP _0x198
_0x19A:
; 0000 03D4       x = SKAMBUTIS_18dh;
	LDI  R26,LOW(_SKAMBUTIS_18dh)
	LDI  R27,HIGH(_SKAMBUTIS_18dh)
	CALL SUBOPT_0x12
; 0000 03D5       y = SKAMBUTIS_18h;
	LDI  R26,LOW(_SKAMBUTIS_18h)
	LDI  R27,HIGH(_SKAMBUTIS_18h)
	CALL SUBOPT_0x13
; 0000 03D6       z = SKAMBUTIS_18dm;
	LDI  R26,LOW(_SKAMBUTIS_18dm)
	LDI  R27,HIGH(_SKAMBUTIS_18dm)
	CALL SUBOPT_0x14
; 0000 03D7       k = SKAMBUTIS_18m;}
	LDI  R26,LOW(_SKAMBUTIS_18m)
	LDI  R27,HIGH(_SKAMBUTIS_18m)
	CALL SUBOPT_0x15
; 0000 03D8       if((EILUTES_SKAICIUS==19)&&(f==1)){
_0x198:
	LDS  R26,_EILUTES_SKAICIUS
	CPI  R26,LOW(0x13)
	BRNE _0x19C
	LDS  R26,_f
	CPI  R26,LOW(0x1)
	BREQ _0x19D
_0x19C:
	RJMP _0x19B
_0x19D:
; 0000 03D9       x = SKAMBUTIS_19dh;
	LDI  R26,LOW(_SKAMBUTIS_19dh)
	LDI  R27,HIGH(_SKAMBUTIS_19dh)
	CALL SUBOPT_0x12
; 0000 03DA       y = SKAMBUTIS_19h;
	LDI  R26,LOW(_SKAMBUTIS_19h)
	LDI  R27,HIGH(_SKAMBUTIS_19h)
	CALL SUBOPT_0x13
; 0000 03DB       z = SKAMBUTIS_19dm;
	LDI  R26,LOW(_SKAMBUTIS_19dm)
	LDI  R27,HIGH(_SKAMBUTIS_19dm)
	CALL SUBOPT_0x14
; 0000 03DC       k = SKAMBUTIS_19m;}
	LDI  R26,LOW(_SKAMBUTIS_19m)
	LDI  R27,HIGH(_SKAMBUTIS_19m)
	CALL SUBOPT_0x15
; 0000 03DD       if((EILUTES_SKAICIUS==20)&&(f==1)){
_0x19B:
	LDS  R26,_EILUTES_SKAICIUS
	CPI  R26,LOW(0x14)
	BRNE _0x19F
	LDS  R26,_f
	CPI  R26,LOW(0x1)
	BREQ _0x1A0
_0x19F:
	RJMP _0x19E
_0x1A0:
; 0000 03DE       x = SKAMBUTIS_20dh;
	LDI  R26,LOW(_SKAMBUTIS_20dh)
	LDI  R27,HIGH(_SKAMBUTIS_20dh)
	CALL SUBOPT_0x12
; 0000 03DF       y = SKAMBUTIS_20h;
	LDI  R26,LOW(_SKAMBUTIS_20h)
	LDI  R27,HIGH(_SKAMBUTIS_20h)
	CALL SUBOPT_0x13
; 0000 03E0       z = SKAMBUTIS_20dm;
	LDI  R26,LOW(_SKAMBUTIS_20dm)
	LDI  R27,HIGH(_SKAMBUTIS_20dm)
	CALL SUBOPT_0x14
; 0000 03E1       k = SKAMBUTIS_20m;}
	LDI  R26,LOW(_SKAMBUTIS_20m)
	LDI  R27,HIGH(_SKAMBUTIS_20m)
	CALL SUBOPT_0x15
; 0000 03E2 
; 0000 03E3       if((EILUTES_SKAICIUS!=0)&&(REDAGAVIMAS==1)){
_0x19E:
	LDS  R26,_EILUTES_SKAICIUS
	CPI  R26,LOW(0x0)
	BREQ _0x1A2
	LDS  R26,_REDAGAVIMAS
	CPI  R26,LOW(0x1)
	BREQ _0x1A3
_0x1A2:
	RJMP _0x1A1
_0x1A3:
; 0000 03E4       if((MYGTUKAS_1==1)&&(REDAG_SK_NR==3)){
	LDS  R26,_MYGTUKAS_1
	CPI  R26,LOW(0x1)
	BRNE _0x1A5
	LDS  R26,_REDAG_SK_NR
	CPI  R26,LOW(0x3)
	BREQ _0x1A6
_0x1A5:
	RJMP _0x1A4
_0x1A6:
; 0000 03E5       k = k + 1;}
	LDS  R30,_k
	SUBI R30,-LOW(1)
	STS  _k,R30
; 0000 03E6       if((MYGTUKAS_5==1)&&(REDAG_SK_NR==3)){
_0x1A4:
	LDS  R26,_MYGTUKAS_5
	CPI  R26,LOW(0x1)
	BRNE _0x1A8
	LDS  R26,_REDAG_SK_NR
	CPI  R26,LOW(0x3)
	BREQ _0x1A9
_0x1A8:
	RJMP _0x1A7
_0x1A9:
; 0000 03E7       k = k - 1;}
	LDS  R30,_k
	CALL SUBOPT_0x7
	STS  _k,R30
; 0000 03E8       if((MYGTUKAS_1==1)&&(REDAG_SK_NR==2)){
_0x1A7:
	LDS  R26,_MYGTUKAS_1
	CPI  R26,LOW(0x1)
	BRNE _0x1AB
	LDS  R26,_REDAG_SK_NR
	CPI  R26,LOW(0x2)
	BREQ _0x1AC
_0x1AB:
	RJMP _0x1AA
_0x1AC:
; 0000 03E9       z = z + 1;}
	LDS  R30,_z
	SUBI R30,-LOW(1)
	STS  _z,R30
; 0000 03EA       if((MYGTUKAS_5==1)&&(REDAG_SK_NR==2)){
_0x1AA:
	LDS  R26,_MYGTUKAS_5
	CPI  R26,LOW(0x1)
	BRNE _0x1AE
	LDS  R26,_REDAG_SK_NR
	CPI  R26,LOW(0x2)
	BREQ _0x1AF
_0x1AE:
	RJMP _0x1AD
_0x1AF:
; 0000 03EB       z = z - 1;}
	LDS  R30,_z
	CALL SUBOPT_0x7
	STS  _z,R30
; 0000 03EC       if((MYGTUKAS_1==1)&&(REDAG_SK_NR==1)){
_0x1AD:
	LDS  R26,_MYGTUKAS_1
	CPI  R26,LOW(0x1)
	BRNE _0x1B1
	LDS  R26,_REDAG_SK_NR
	CPI  R26,LOW(0x1)
	BREQ _0x1B2
_0x1B1:
	RJMP _0x1B0
_0x1B2:
; 0000 03ED       y = y + 1;}
	LDS  R30,_y
	SUBI R30,-LOW(1)
	STS  _y,R30
; 0000 03EE       if((MYGTUKAS_5==1)&&(REDAG_SK_NR==1)){
_0x1B0:
	LDS  R26,_MYGTUKAS_5
	CPI  R26,LOW(0x1)
	BRNE _0x1B4
	LDS  R26,_REDAG_SK_NR
	CPI  R26,LOW(0x1)
	BREQ _0x1B5
_0x1B4:
	RJMP _0x1B3
_0x1B5:
; 0000 03EF       y = y - 1;}
	LDS  R30,_y
	CALL SUBOPT_0x7
	STS  _y,R30
; 0000 03F0       if((MYGTUKAS_1==1)&&(REDAG_SK_NR==0)){
_0x1B3:
	LDS  R26,_MYGTUKAS_1
	CPI  R26,LOW(0x1)
	BRNE _0x1B7
	LDS  R26,_REDAG_SK_NR
	CPI  R26,LOW(0x0)
	BREQ _0x1B8
_0x1B7:
	RJMP _0x1B6
_0x1B8:
; 0000 03F1       x = x + 1;}
	LDS  R30,_x
	SUBI R30,-LOW(1)
	STS  _x,R30
; 0000 03F2       if((MYGTUKAS_5==1)&&(REDAG_SK_NR==0)){
_0x1B6:
	LDS  R26,_MYGTUKAS_5
	CPI  R26,LOW(0x1)
	BRNE _0x1BA
	LDS  R26,_REDAG_SK_NR
	CPI  R26,LOW(0x0)
	BREQ _0x1BB
_0x1BA:
	RJMP _0x1B9
_0x1BB:
; 0000 03F3       x = x - 1;}
	LDS  R30,_x
	CALL SUBOPT_0x7
	STS  _x,R30
; 0000 03F4 
; 0000 03F5       if(k==-1){
_0x1B9:
	LDS  R26,_k
	CPI  R26,LOW(0xFF)
	BRNE _0x1BC
; 0000 03F6       k = 9;}
	LDI  R30,LOW(9)
	STS  _k,R30
; 0000 03F7       if(z==-1){
_0x1BC:
	LDS  R26,_z
	CPI  R26,LOW(0xFF)
	BRNE _0x1BD
; 0000 03F8       z = 5;}
	LDI  R30,LOW(5)
	STS  _z,R30
; 0000 03F9       if((y==-1)&&(x==2)){
_0x1BD:
	LDS  R26,_y
	CPI  R26,LOW(0xFF)
	BRNE _0x1BF
	LDS  R26,_x
	CPI  R26,LOW(0x2)
	BREQ _0x1C0
_0x1BF:
	RJMP _0x1BE
_0x1C0:
; 0000 03FA       y = 3;}
	LDI  R30,LOW(3)
	STS  _y,R30
; 0000 03FB       if((y==-1)&&(x!=2)){
_0x1BE:
	LDS  R26,_y
	CPI  R26,LOW(0xFF)
	BRNE _0x1C2
	LDS  R26,_x
	CPI  R26,LOW(0x2)
	BRNE _0x1C3
_0x1C2:
	RJMP _0x1C1
_0x1C3:
; 0000 03FC       y = 9;}
	LDI  R30,LOW(9)
	STS  _y,R30
; 0000 03FD       if((x==-1)&&(y >3)){
_0x1C1:
	LDS  R26,_x
	CPI  R26,LOW(0xFF)
	BRNE _0x1C5
	LDS  R26,_y
	CPI  R26,LOW(0x4)
	BRGE _0x1C6
_0x1C5:
	RJMP _0x1C4
_0x1C6:
; 0000 03FE       x = 1;}
	LDI  R30,LOW(1)
	STS  _x,R30
; 0000 03FF       if((x==-1)&&(y<4)){
_0x1C4:
	LDS  R26,_x
	CPI  R26,LOW(0xFF)
	BRNE _0x1C8
	LDS  R26,_y
	CPI  R26,LOW(0x4)
	BRLT _0x1C9
_0x1C8:
	RJMP _0x1C7
_0x1C9:
; 0000 0400       x = 2;}
	LDI  R30,LOW(2)
	STS  _x,R30
; 0000 0401 
; 0000 0402       if(k==10){
_0x1C7:
	LDS  R26,_k
	CPI  R26,LOW(0xA)
	BRNE _0x1CA
; 0000 0403       k = 0;}
	LDI  R30,LOW(0)
	STS  _k,R30
; 0000 0404       if(z==6){
_0x1CA:
	LDS  R26,_z
	CPI  R26,LOW(0x6)
	BRNE _0x1CB
; 0000 0405       z = 0;}
	LDI  R30,LOW(0)
	STS  _z,R30
; 0000 0406       if((y>=4)&&(x==2)&&(REDAG_SK_NR==1)){
_0x1CB:
	LDS  R26,_y
	CPI  R26,LOW(0x4)
	BRLT _0x1CD
	LDS  R26,_x
	CPI  R26,LOW(0x2)
	BRNE _0x1CD
	LDS  R26,_REDAG_SK_NR
	CPI  R26,LOW(0x1)
	BREQ _0x1CE
_0x1CD:
	RJMP _0x1CC
_0x1CE:
; 0000 0407       y = 0;}
	LDI  R30,LOW(0)
	STS  _y,R30
; 0000 0408       if((y==10)&&(x!=2)){
_0x1CC:
	LDS  R26,_y
	CPI  R26,LOW(0xA)
	BRNE _0x1D0
	LDS  R26,_x
	CPI  R26,LOW(0x2)
	BRNE _0x1D1
_0x1D0:
	RJMP _0x1CF
_0x1D1:
; 0000 0409       y = 0;}
	LDI  R30,LOW(0)
	STS  _y,R30
; 0000 040A       if((x==2)&&(y>=4)&&(REDAG_SK_NR==0)){
_0x1CF:
	LDS  R26,_x
	CPI  R26,LOW(0x2)
	BRNE _0x1D3
	LDS  R26,_y
	CPI  R26,LOW(0x4)
	BRLT _0x1D3
	LDS  R26,_REDAG_SK_NR
	CPI  R26,LOW(0x0)
	BREQ _0x1D4
_0x1D3:
	RJMP _0x1D2
_0x1D4:
; 0000 040B       x = 0;}
	LDI  R30,LOW(0)
	STS  _x,R30
; 0000 040C       if(x==3){
_0x1D2:
	LDS  R26,_x
	CPI  R26,LOW(0x3)
	BRNE _0x1D5
; 0000 040D       x = 0;}}
	LDI  R30,LOW(0)
	STS  _x,R30
_0x1D5:
; 0000 040E 
; 0000 040F       if(MYGTUKAS_3==1){
_0x1A1:
	LDS  R26,_MYGTUKAS_3
	CPI  R26,LOW(0x1)
	BREQ PC+3
	JMP _0x1D6
; 0000 0410       if(EILUTES_SKAICIUS==1){
	LDS  R26,_EILUTES_SKAICIUS
	CPI  R26,LOW(0x1)
	BRNE _0x1D7
; 0000 0411       SKAMBUTIS_1dh = x;
	LDS  R30,_x
	LDI  R26,LOW(_SKAMBUTIS_1dh)
	LDI  R27,HIGH(_SKAMBUTIS_1dh)
	CALL SUBOPT_0x16
; 0000 0412       SKAMBUTIS_1h  = y;
	LDI  R26,LOW(_SKAMBUTIS_1h)
	LDI  R27,HIGH(_SKAMBUTIS_1h)
	CALL SUBOPT_0x17
; 0000 0413       SKAMBUTIS_1dm = z;
	LDI  R26,LOW(_SKAMBUTIS_1dm)
	LDI  R27,HIGH(_SKAMBUTIS_1dm)
	CALL SUBOPT_0x18
; 0000 0414       SKAMBUTIS_1m  = k;}
	LDI  R26,LOW(_SKAMBUTIS_1m)
	LDI  R27,HIGH(_SKAMBUTIS_1m)
	CALL __EEPROMWRB
; 0000 0415       if(EILUTES_SKAICIUS==2){
_0x1D7:
	LDS  R26,_EILUTES_SKAICIUS
	CPI  R26,LOW(0x2)
	BRNE _0x1D8
; 0000 0416       SKAMBUTIS_2dh = x;
	LDS  R30,_x
	LDI  R26,LOW(_SKAMBUTIS_2dh)
	LDI  R27,HIGH(_SKAMBUTIS_2dh)
	CALL SUBOPT_0x16
; 0000 0417       SKAMBUTIS_2h  = y;
	LDI  R26,LOW(_SKAMBUTIS_2h)
	LDI  R27,HIGH(_SKAMBUTIS_2h)
	CALL SUBOPT_0x17
; 0000 0418       SKAMBUTIS_2dm = z;
	LDI  R26,LOW(_SKAMBUTIS_2dm)
	LDI  R27,HIGH(_SKAMBUTIS_2dm)
	CALL SUBOPT_0x18
; 0000 0419       SKAMBUTIS_2m  = k;}
	LDI  R26,LOW(_SKAMBUTIS_2m)
	LDI  R27,HIGH(_SKAMBUTIS_2m)
	CALL __EEPROMWRB
; 0000 041A       if(EILUTES_SKAICIUS==3){
_0x1D8:
	LDS  R26,_EILUTES_SKAICIUS
	CPI  R26,LOW(0x3)
	BRNE _0x1D9
; 0000 041B       SKAMBUTIS_3dh = x;
	LDS  R30,_x
	LDI  R26,LOW(_SKAMBUTIS_3dh)
	LDI  R27,HIGH(_SKAMBUTIS_3dh)
	CALL SUBOPT_0x16
; 0000 041C       SKAMBUTIS_3h  = y;
	LDI  R26,LOW(_SKAMBUTIS_3h)
	LDI  R27,HIGH(_SKAMBUTIS_3h)
	CALL SUBOPT_0x17
; 0000 041D       SKAMBUTIS_3dm = z;
	LDI  R26,LOW(_SKAMBUTIS_3dm)
	LDI  R27,HIGH(_SKAMBUTIS_3dm)
	CALL SUBOPT_0x18
; 0000 041E       SKAMBUTIS_3m  = k;}
	LDI  R26,LOW(_SKAMBUTIS_3m)
	LDI  R27,HIGH(_SKAMBUTIS_3m)
	CALL __EEPROMWRB
; 0000 041F       if(EILUTES_SKAICIUS==4){
_0x1D9:
	LDS  R26,_EILUTES_SKAICIUS
	CPI  R26,LOW(0x4)
	BRNE _0x1DA
; 0000 0420       SKAMBUTIS_4dh = x;
	LDS  R30,_x
	LDI  R26,LOW(_SKAMBUTIS_4dh)
	LDI  R27,HIGH(_SKAMBUTIS_4dh)
	CALL SUBOPT_0x16
; 0000 0421       SKAMBUTIS_4h  = y;
	LDI  R26,LOW(_SKAMBUTIS_4h)
	LDI  R27,HIGH(_SKAMBUTIS_4h)
	CALL SUBOPT_0x17
; 0000 0422       SKAMBUTIS_4dm = z;
	LDI  R26,LOW(_SKAMBUTIS_4dm)
	LDI  R27,HIGH(_SKAMBUTIS_4dm)
	CALL SUBOPT_0x18
; 0000 0423       SKAMBUTIS_4m  = k;}
	LDI  R26,LOW(_SKAMBUTIS_4m)
	LDI  R27,HIGH(_SKAMBUTIS_4m)
	CALL __EEPROMWRB
; 0000 0424       if(EILUTES_SKAICIUS==5){
_0x1DA:
	LDS  R26,_EILUTES_SKAICIUS
	CPI  R26,LOW(0x5)
	BRNE _0x1DB
; 0000 0425       SKAMBUTIS_5dh = x;
	LDS  R30,_x
	LDI  R26,LOW(_SKAMBUTIS_5dh)
	LDI  R27,HIGH(_SKAMBUTIS_5dh)
	CALL SUBOPT_0x16
; 0000 0426       SKAMBUTIS_5h  = y;
	LDI  R26,LOW(_SKAMBUTIS_5h)
	LDI  R27,HIGH(_SKAMBUTIS_5h)
	CALL SUBOPT_0x17
; 0000 0427       SKAMBUTIS_5dm = z;
	LDI  R26,LOW(_SKAMBUTIS_5dm)
	LDI  R27,HIGH(_SKAMBUTIS_5dm)
	CALL SUBOPT_0x18
; 0000 0428       SKAMBUTIS_5m  = k;}
	LDI  R26,LOW(_SKAMBUTIS_5m)
	LDI  R27,HIGH(_SKAMBUTIS_5m)
	CALL __EEPROMWRB
; 0000 0429       if(EILUTES_SKAICIUS==6){
_0x1DB:
	LDS  R26,_EILUTES_SKAICIUS
	CPI  R26,LOW(0x6)
	BRNE _0x1DC
; 0000 042A       SKAMBUTIS_6dh = x;
	LDS  R30,_x
	LDI  R26,LOW(_SKAMBUTIS_6dh)
	LDI  R27,HIGH(_SKAMBUTIS_6dh)
	CALL SUBOPT_0x16
; 0000 042B       SKAMBUTIS_6h  = y;
	LDI  R26,LOW(_SKAMBUTIS_6h)
	LDI  R27,HIGH(_SKAMBUTIS_6h)
	CALL SUBOPT_0x17
; 0000 042C       SKAMBUTIS_6dm = z;
	LDI  R26,LOW(_SKAMBUTIS_6dm)
	LDI  R27,HIGH(_SKAMBUTIS_6dm)
	CALL SUBOPT_0x18
; 0000 042D       SKAMBUTIS_6m  = k;}
	LDI  R26,LOW(_SKAMBUTIS_6m)
	LDI  R27,HIGH(_SKAMBUTIS_6m)
	CALL __EEPROMWRB
; 0000 042E       if(EILUTES_SKAICIUS==7){
_0x1DC:
	LDS  R26,_EILUTES_SKAICIUS
	CPI  R26,LOW(0x7)
	BRNE _0x1DD
; 0000 042F       SKAMBUTIS_7dh = x;
	LDS  R30,_x
	LDI  R26,LOW(_SKAMBUTIS_7dh)
	LDI  R27,HIGH(_SKAMBUTIS_7dh)
	CALL SUBOPT_0x16
; 0000 0430       SKAMBUTIS_7h  = y;
	LDI  R26,LOW(_SKAMBUTIS_7h)
	LDI  R27,HIGH(_SKAMBUTIS_7h)
	CALL SUBOPT_0x17
; 0000 0431       SKAMBUTIS_7dm = z;
	LDI  R26,LOW(_SKAMBUTIS_7dm)
	LDI  R27,HIGH(_SKAMBUTIS_7dm)
	CALL SUBOPT_0x18
; 0000 0432       SKAMBUTIS_7m  = k;}
	LDI  R26,LOW(_SKAMBUTIS_7m)
	LDI  R27,HIGH(_SKAMBUTIS_7m)
	CALL __EEPROMWRB
; 0000 0433       if(EILUTES_SKAICIUS==8){
_0x1DD:
	LDS  R26,_EILUTES_SKAICIUS
	CPI  R26,LOW(0x8)
	BRNE _0x1DE
; 0000 0434       SKAMBUTIS_8dh = x;
	LDS  R30,_x
	LDI  R26,LOW(_SKAMBUTIS_8dh)
	LDI  R27,HIGH(_SKAMBUTIS_8dh)
	CALL SUBOPT_0x16
; 0000 0435       SKAMBUTIS_8h  = y;
	LDI  R26,LOW(_SKAMBUTIS_8h)
	LDI  R27,HIGH(_SKAMBUTIS_8h)
	CALL SUBOPT_0x17
; 0000 0436       SKAMBUTIS_8dm = z;
	LDI  R26,LOW(_SKAMBUTIS_8dm)
	LDI  R27,HIGH(_SKAMBUTIS_8dm)
	CALL SUBOPT_0x18
; 0000 0437       SKAMBUTIS_8m  = k;}
	LDI  R26,LOW(_SKAMBUTIS_8m)
	LDI  R27,HIGH(_SKAMBUTIS_8m)
	CALL __EEPROMWRB
; 0000 0438       if(EILUTES_SKAICIUS==9){
_0x1DE:
	LDS  R26,_EILUTES_SKAICIUS
	CPI  R26,LOW(0x9)
	BRNE _0x1DF
; 0000 0439       SKAMBUTIS_9dh = x;
	LDS  R30,_x
	LDI  R26,LOW(_SKAMBUTIS_9dh)
	LDI  R27,HIGH(_SKAMBUTIS_9dh)
	RCALL SUBOPT_0x16
; 0000 043A       SKAMBUTIS_9h  = y;
	LDI  R26,LOW(_SKAMBUTIS_9h)
	LDI  R27,HIGH(_SKAMBUTIS_9h)
	RCALL SUBOPT_0x17
; 0000 043B       SKAMBUTIS_9dm = z;
	LDI  R26,LOW(_SKAMBUTIS_9dm)
	LDI  R27,HIGH(_SKAMBUTIS_9dm)
	RCALL SUBOPT_0x18
; 0000 043C       SKAMBUTIS_9m  = k;}
	LDI  R26,LOW(_SKAMBUTIS_9m)
	LDI  R27,HIGH(_SKAMBUTIS_9m)
	CALL __EEPROMWRB
; 0000 043D       if(EILUTES_SKAICIUS==10){
_0x1DF:
	LDS  R26,_EILUTES_SKAICIUS
	CPI  R26,LOW(0xA)
	BRNE _0x1E0
; 0000 043E       SKAMBUTIS_10dh = x;
	LDS  R30,_x
	LDI  R26,LOW(_SKAMBUTIS_10dh)
	LDI  R27,HIGH(_SKAMBUTIS_10dh)
	RCALL SUBOPT_0x16
; 0000 043F       SKAMBUTIS_10h  = y;
	LDI  R26,LOW(_SKAMBUTIS_10h)
	LDI  R27,HIGH(_SKAMBUTIS_10h)
	RCALL SUBOPT_0x17
; 0000 0440       SKAMBUTIS_10dm = z;
	LDI  R26,LOW(_SKAMBUTIS_10dm)
	LDI  R27,HIGH(_SKAMBUTIS_10dm)
	RCALL SUBOPT_0x18
; 0000 0441       SKAMBUTIS_10m  = k;}
	LDI  R26,LOW(_SKAMBUTIS_10m)
	LDI  R27,HIGH(_SKAMBUTIS_10m)
	CALL __EEPROMWRB
; 0000 0442       if(EILUTES_SKAICIUS==11){
_0x1E0:
	LDS  R26,_EILUTES_SKAICIUS
	CPI  R26,LOW(0xB)
	BRNE _0x1E1
; 0000 0443       SKAMBUTIS_11dh = x;
	LDS  R30,_x
	LDI  R26,LOW(_SKAMBUTIS_11dh)
	LDI  R27,HIGH(_SKAMBUTIS_11dh)
	RCALL SUBOPT_0x16
; 0000 0444       SKAMBUTIS_11h  = y;
	LDI  R26,LOW(_SKAMBUTIS_11h)
	LDI  R27,HIGH(_SKAMBUTIS_11h)
	RCALL SUBOPT_0x17
; 0000 0445       SKAMBUTIS_11dm = z;
	LDI  R26,LOW(_SKAMBUTIS_11dm)
	LDI  R27,HIGH(_SKAMBUTIS_11dm)
	RCALL SUBOPT_0x18
; 0000 0446       SKAMBUTIS_11m  = k;}
	LDI  R26,LOW(_SKAMBUTIS_11m)
	LDI  R27,HIGH(_SKAMBUTIS_11m)
	CALL __EEPROMWRB
; 0000 0447       if(EILUTES_SKAICIUS==12){
_0x1E1:
	LDS  R26,_EILUTES_SKAICIUS
	CPI  R26,LOW(0xC)
	BRNE _0x1E2
; 0000 0448       SKAMBUTIS_12dh = x;
	LDS  R30,_x
	LDI  R26,LOW(_SKAMBUTIS_12dh)
	LDI  R27,HIGH(_SKAMBUTIS_12dh)
	RCALL SUBOPT_0x16
; 0000 0449       SKAMBUTIS_12h  = y;
	LDI  R26,LOW(_SKAMBUTIS_12h)
	LDI  R27,HIGH(_SKAMBUTIS_12h)
	RCALL SUBOPT_0x17
; 0000 044A       SKAMBUTIS_12dm = z;
	LDI  R26,LOW(_SKAMBUTIS_12dm)
	LDI  R27,HIGH(_SKAMBUTIS_12dm)
	RCALL SUBOPT_0x18
; 0000 044B       SKAMBUTIS_12m  = k;}
	LDI  R26,LOW(_SKAMBUTIS_12m)
	LDI  R27,HIGH(_SKAMBUTIS_12m)
	CALL __EEPROMWRB
; 0000 044C       if(EILUTES_SKAICIUS==13){
_0x1E2:
	LDS  R26,_EILUTES_SKAICIUS
	CPI  R26,LOW(0xD)
	BRNE _0x1E3
; 0000 044D       SKAMBUTIS_13dh = x;
	LDS  R30,_x
	LDI  R26,LOW(_SKAMBUTIS_13dh)
	LDI  R27,HIGH(_SKAMBUTIS_13dh)
	RCALL SUBOPT_0x16
; 0000 044E       SKAMBUTIS_13h  = y;
	LDI  R26,LOW(_SKAMBUTIS_13h)
	LDI  R27,HIGH(_SKAMBUTIS_13h)
	RCALL SUBOPT_0x17
; 0000 044F       SKAMBUTIS_13dm = z;
	LDI  R26,LOW(_SKAMBUTIS_13dm)
	LDI  R27,HIGH(_SKAMBUTIS_13dm)
	RCALL SUBOPT_0x18
; 0000 0450       SKAMBUTIS_13m  = k;}
	LDI  R26,LOW(_SKAMBUTIS_13m)
	LDI  R27,HIGH(_SKAMBUTIS_13m)
	CALL __EEPROMWRB
; 0000 0451       if(EILUTES_SKAICIUS==14){
_0x1E3:
	LDS  R26,_EILUTES_SKAICIUS
	CPI  R26,LOW(0xE)
	BRNE _0x1E4
; 0000 0452       SKAMBUTIS_14dh = x;
	LDS  R30,_x
	LDI  R26,LOW(_SKAMBUTIS_14dh)
	LDI  R27,HIGH(_SKAMBUTIS_14dh)
	RCALL SUBOPT_0x16
; 0000 0453       SKAMBUTIS_14h  = y;
	LDI  R26,LOW(_SKAMBUTIS_14h)
	LDI  R27,HIGH(_SKAMBUTIS_14h)
	RCALL SUBOPT_0x17
; 0000 0454       SKAMBUTIS_14dm = z;
	LDI  R26,LOW(_SKAMBUTIS_14dm)
	LDI  R27,HIGH(_SKAMBUTIS_14dm)
	RCALL SUBOPT_0x18
; 0000 0455       SKAMBUTIS_14m  = k;}
	LDI  R26,LOW(_SKAMBUTIS_14m)
	LDI  R27,HIGH(_SKAMBUTIS_14m)
	CALL __EEPROMWRB
; 0000 0456       if(EILUTES_SKAICIUS==15){
_0x1E4:
	LDS  R26,_EILUTES_SKAICIUS
	CPI  R26,LOW(0xF)
	BRNE _0x1E5
; 0000 0457       SKAMBUTIS_15dh = x;
	LDS  R30,_x
	LDI  R26,LOW(_SKAMBUTIS_15dh)
	LDI  R27,HIGH(_SKAMBUTIS_15dh)
	RCALL SUBOPT_0x16
; 0000 0458       SKAMBUTIS_15h  = y;
	LDI  R26,LOW(_SKAMBUTIS_15h)
	LDI  R27,HIGH(_SKAMBUTIS_15h)
	RCALL SUBOPT_0x17
; 0000 0459       SKAMBUTIS_15dm = z;
	LDI  R26,LOW(_SKAMBUTIS_15dm)
	LDI  R27,HIGH(_SKAMBUTIS_15dm)
	RCALL SUBOPT_0x18
; 0000 045A       SKAMBUTIS_15m  = k;}
	LDI  R26,LOW(_SKAMBUTIS_15m)
	LDI  R27,HIGH(_SKAMBUTIS_15m)
	CALL __EEPROMWRB
; 0000 045B       if(EILUTES_SKAICIUS==16){
_0x1E5:
	LDS  R26,_EILUTES_SKAICIUS
	CPI  R26,LOW(0x10)
	BRNE _0x1E6
; 0000 045C       SKAMBUTIS_16dh = x;
	LDS  R30,_x
	LDI  R26,LOW(_SKAMBUTIS_16dh)
	LDI  R27,HIGH(_SKAMBUTIS_16dh)
	RCALL SUBOPT_0x16
; 0000 045D       SKAMBUTIS_16h  = y;
	LDI  R26,LOW(_SKAMBUTIS_16h)
	LDI  R27,HIGH(_SKAMBUTIS_16h)
	RCALL SUBOPT_0x17
; 0000 045E       SKAMBUTIS_16dm = z;
	LDI  R26,LOW(_SKAMBUTIS_16dm)
	LDI  R27,HIGH(_SKAMBUTIS_16dm)
	RCALL SUBOPT_0x18
; 0000 045F       SKAMBUTIS_16m  = k;}
	LDI  R26,LOW(_SKAMBUTIS_16m)
	LDI  R27,HIGH(_SKAMBUTIS_16m)
	CALL __EEPROMWRB
; 0000 0460       if(EILUTES_SKAICIUS==17){
_0x1E6:
	LDS  R26,_EILUTES_SKAICIUS
	CPI  R26,LOW(0x11)
	BRNE _0x1E7
; 0000 0461       SKAMBUTIS_17dh = x;
	LDS  R30,_x
	LDI  R26,LOW(_SKAMBUTIS_17dh)
	LDI  R27,HIGH(_SKAMBUTIS_17dh)
	RCALL SUBOPT_0x16
; 0000 0462       SKAMBUTIS_17h  = y;
	LDI  R26,LOW(_SKAMBUTIS_17h)
	LDI  R27,HIGH(_SKAMBUTIS_17h)
	RCALL SUBOPT_0x17
; 0000 0463       SKAMBUTIS_17dm = z;
	LDI  R26,LOW(_SKAMBUTIS_17dm)
	LDI  R27,HIGH(_SKAMBUTIS_17dm)
	RCALL SUBOPT_0x18
; 0000 0464       SKAMBUTIS_17m  = k;}
	LDI  R26,LOW(_SKAMBUTIS_17m)
	LDI  R27,HIGH(_SKAMBUTIS_17m)
	CALL __EEPROMWRB
; 0000 0465       if(EILUTES_SKAICIUS==18){
_0x1E7:
	LDS  R26,_EILUTES_SKAICIUS
	CPI  R26,LOW(0x12)
	BRNE _0x1E8
; 0000 0466       SKAMBUTIS_18dh = x;
	LDS  R30,_x
	LDI  R26,LOW(_SKAMBUTIS_18dh)
	LDI  R27,HIGH(_SKAMBUTIS_18dh)
	RCALL SUBOPT_0x16
; 0000 0467       SKAMBUTIS_18h  = y;
	LDI  R26,LOW(_SKAMBUTIS_18h)
	LDI  R27,HIGH(_SKAMBUTIS_18h)
	RCALL SUBOPT_0x17
; 0000 0468       SKAMBUTIS_18dm = z;
	LDI  R26,LOW(_SKAMBUTIS_18dm)
	LDI  R27,HIGH(_SKAMBUTIS_18dm)
	RCALL SUBOPT_0x18
; 0000 0469       SKAMBUTIS_18m  = k;}
	LDI  R26,LOW(_SKAMBUTIS_18m)
	LDI  R27,HIGH(_SKAMBUTIS_18m)
	CALL __EEPROMWRB
; 0000 046A       if(EILUTES_SKAICIUS==19){
_0x1E8:
	LDS  R26,_EILUTES_SKAICIUS
	CPI  R26,LOW(0x13)
	BRNE _0x1E9
; 0000 046B       SKAMBUTIS_19dh = x;
	LDS  R30,_x
	LDI  R26,LOW(_SKAMBUTIS_19dh)
	LDI  R27,HIGH(_SKAMBUTIS_19dh)
	RCALL SUBOPT_0x16
; 0000 046C       SKAMBUTIS_19h  = y;
	LDI  R26,LOW(_SKAMBUTIS_19h)
	LDI  R27,HIGH(_SKAMBUTIS_19h)
	RCALL SUBOPT_0x17
; 0000 046D       SKAMBUTIS_19dm = z;
	LDI  R26,LOW(_SKAMBUTIS_19dm)
	LDI  R27,HIGH(_SKAMBUTIS_19dm)
	RCALL SUBOPT_0x18
; 0000 046E       SKAMBUTIS_19m  = k;}
	LDI  R26,LOW(_SKAMBUTIS_19m)
	LDI  R27,HIGH(_SKAMBUTIS_19m)
	CALL __EEPROMWRB
; 0000 046F       if(EILUTES_SKAICIUS==20){
_0x1E9:
	LDS  R26,_EILUTES_SKAICIUS
	CPI  R26,LOW(0x14)
	BRNE _0x1EA
; 0000 0470       SKAMBUTIS_20dh = x;
	LDS  R30,_x
	LDI  R26,LOW(_SKAMBUTIS_20dh)
	LDI  R27,HIGH(_SKAMBUTIS_20dh)
	RCALL SUBOPT_0x16
; 0000 0471       SKAMBUTIS_20h  = y;
	LDI  R26,LOW(_SKAMBUTIS_20h)
	LDI  R27,HIGH(_SKAMBUTIS_20h)
	RCALL SUBOPT_0x17
; 0000 0472       SKAMBUTIS_20dm = z;
	LDI  R26,LOW(_SKAMBUTIS_20dm)
	LDI  R27,HIGH(_SKAMBUTIS_20dm)
	RCALL SUBOPT_0x18
; 0000 0473       SKAMBUTIS_20m  = k;}}
	LDI  R26,LOW(_SKAMBUTIS_20m)
	LDI  R27,HIGH(_SKAMBUTIS_20m)
	CALL __EEPROMWRB
_0x1EA:
; 0000 0474 
; 0000 0475       // RELES PRITRAUKIMAS:
; 0000 0476       // ispejamasis skambutis:
; 0000 0477       a2 = desimtys_valandos;
_0x1D6:
	LDS  R30,_desimtys_valandos
	STS  _a2,R30
; 0000 0478       b2 = valandos;
	LDS  R30,_valandos
	STS  _b2,R30
; 0000 0479       c2 = desimtys_minutes;
	LDS  R30,_desimtys_minutes
	STS  _c2,R30
; 0000 047A       d2 = minutes + 2;
	LDS  R30,_minutes
	SUBI R30,-LOW(2)
	STS  _d2,R30
; 0000 047B 
; 0000 047C       if(d2==10){
	LDS  R26,_d2
	CPI  R26,LOW(0xA)
	BRNE _0x1EB
; 0000 047D       d2 = 0;
	LDI  R30,LOW(0)
	STS  _d2,R30
; 0000 047E       c2 = c2 + 1;}
	LDS  R30,_c2
	SUBI R30,-LOW(1)
	STS  _c2,R30
; 0000 047F       if(c2==6){
_0x1EB:
	LDS  R26,_c2
	CPI  R26,LOW(0x6)
	BRNE _0x1EC
; 0000 0480       c2 = 0;
	LDI  R30,LOW(0)
	STS  _c2,R30
; 0000 0481       b2 = b2 + 1;}
	LDS  R30,_b2
	SUBI R30,-LOW(1)
	STS  _b2,R30
; 0000 0482       if(b2==10){
_0x1EC:
	LDS  R26,_b2
	CPI  R26,LOW(0xA)
	BRNE _0x1ED
; 0000 0483       b2 = 0;
	LDI  R30,LOW(0)
	STS  _b2,R30
; 0000 0484       a2 = a2 + 1;}
	LDS  R30,_a2
	SUBI R30,-LOW(1)
	STS  _a2,R30
; 0000 0485       if((a2==2)&&(b2==4)){
_0x1ED:
	LDS  R26,_a2
	CPI  R26,LOW(0x2)
	BRNE _0x1EF
	LDS  R26,_b2
	CPI  R26,LOW(0x4)
	BREQ _0x1F0
_0x1EF:
	RJMP _0x1EE
_0x1F0:
; 0000 0486       a2 = 0;
	LDI  R30,LOW(0)
	STS  _a2,R30
; 0000 0487       b2 = 0;}
	STS  _b2,R30
; 0000 0488 
; 0000 0489 
; 0000 048A       //ispejamojo skambucio reles pritraukimas
; 0000 048B       if((SKAMBUTIS_1dh==a2)&&
_0x1EE:
; 0000 048C       (SKAMBUTIS_1h==b2)&&
; 0000 048D       (SKAMBUTIS_1dm==c2)&&
; 0000 048E       (SKAMBUTIS_1m==d2)){
	RCALL SUBOPT_0xE
	RCALL SUBOPT_0x19
	BRNE _0x1F2
	RCALL SUBOPT_0xF
	RCALL SUBOPT_0x1A
	BRNE _0x1F2
	RCALL SUBOPT_0x10
	RCALL SUBOPT_0x1B
	BRNE _0x1F2
	RCALL SUBOPT_0x11
	RCALL SUBOPT_0x1C
	BREQ _0x1F3
_0x1F2:
	RJMP _0x1F1
_0x1F3:
; 0000 048F       ISPEJAMASIS_SKAMBUTIS = 1;}
	LDI  R30,LOW(1)
	STS  _ISPEJAMASIS_SKAMBUTIS,R30
; 0000 0490 
; 0000 0491       if((SKAMBUTIS_3dh==a2)&&
_0x1F1:
; 0000 0492       (SKAMBUTIS_3h==b2)&&
; 0000 0493       (SKAMBUTIS_3dm==c2)&&
; 0000 0494       (SKAMBUTIS_3m==d2)){
	LDI  R26,LOW(_SKAMBUTIS_3dh)
	LDI  R27,HIGH(_SKAMBUTIS_3dh)
	RCALL SUBOPT_0x1D
	BRNE _0x1F5
	LDI  R26,LOW(_SKAMBUTIS_3h)
	LDI  R27,HIGH(_SKAMBUTIS_3h)
	RCALL SUBOPT_0x1E
	BRNE _0x1F5
	LDI  R26,LOW(_SKAMBUTIS_3dm)
	LDI  R27,HIGH(_SKAMBUTIS_3dm)
	RCALL SUBOPT_0x1F
	BRNE _0x1F5
	LDI  R26,LOW(_SKAMBUTIS_3m)
	LDI  R27,HIGH(_SKAMBUTIS_3m)
	RCALL SUBOPT_0x20
	BREQ _0x1F6
_0x1F5:
	RJMP _0x1F4
_0x1F6:
; 0000 0495       ISPEJAMASIS_SKAMBUTIS = 1;}
	LDI  R30,LOW(1)
	STS  _ISPEJAMASIS_SKAMBUTIS,R30
; 0000 0496 
; 0000 0497       if((SKAMBUTIS_5dh==a2)&&
_0x1F4:
; 0000 0498       (SKAMBUTIS_5h==b2)&&
; 0000 0499       (SKAMBUTIS_5dm==c2)&&
; 0000 049A       (SKAMBUTIS_5m==d2)){
	LDI  R26,LOW(_SKAMBUTIS_5dh)
	LDI  R27,HIGH(_SKAMBUTIS_5dh)
	RCALL SUBOPT_0x1D
	BRNE _0x1F8
	LDI  R26,LOW(_SKAMBUTIS_5h)
	LDI  R27,HIGH(_SKAMBUTIS_5h)
	RCALL SUBOPT_0x1E
	BRNE _0x1F8
	LDI  R26,LOW(_SKAMBUTIS_5dm)
	LDI  R27,HIGH(_SKAMBUTIS_5dm)
	RCALL SUBOPT_0x1F
	BRNE _0x1F8
	LDI  R26,LOW(_SKAMBUTIS_5m)
	LDI  R27,HIGH(_SKAMBUTIS_5m)
	RCALL SUBOPT_0x20
	BREQ _0x1F9
_0x1F8:
	RJMP _0x1F7
_0x1F9:
; 0000 049B       ISPEJAMASIS_SKAMBUTIS = 1;}
	LDI  R30,LOW(1)
	STS  _ISPEJAMASIS_SKAMBUTIS,R30
; 0000 049C 
; 0000 049D       if((SKAMBUTIS_7dh==a2)&&
_0x1F7:
; 0000 049E       (SKAMBUTIS_7h==b2)&&
; 0000 049F       (SKAMBUTIS_7dm==c2)&&
; 0000 04A0       (SKAMBUTIS_7m==d2)){
	LDI  R26,LOW(_SKAMBUTIS_7dh)
	LDI  R27,HIGH(_SKAMBUTIS_7dh)
	RCALL SUBOPT_0x1D
	BRNE _0x1FB
	LDI  R26,LOW(_SKAMBUTIS_7h)
	LDI  R27,HIGH(_SKAMBUTIS_7h)
	RCALL SUBOPT_0x1E
	BRNE _0x1FB
	LDI  R26,LOW(_SKAMBUTIS_7dm)
	LDI  R27,HIGH(_SKAMBUTIS_7dm)
	RCALL SUBOPT_0x1F
	BRNE _0x1FB
	LDI  R26,LOW(_SKAMBUTIS_7m)
	LDI  R27,HIGH(_SKAMBUTIS_7m)
	RCALL SUBOPT_0x20
	BREQ _0x1FC
_0x1FB:
	RJMP _0x1FA
_0x1FC:
; 0000 04A1       ISPEJAMASIS_SKAMBUTIS = 1;}
	LDI  R30,LOW(1)
	STS  _ISPEJAMASIS_SKAMBUTIS,R30
; 0000 04A2 
; 0000 04A3       if((SKAMBUTIS_9dh==a2)&&
_0x1FA:
; 0000 04A4       (SKAMBUTIS_9h==b2)&&
; 0000 04A5       (SKAMBUTIS_9dm==c2)&&
; 0000 04A6       (SKAMBUTIS_9m==d2)){
	LDI  R26,LOW(_SKAMBUTIS_9dh)
	LDI  R27,HIGH(_SKAMBUTIS_9dh)
	RCALL SUBOPT_0x1D
	BRNE _0x1FE
	LDI  R26,LOW(_SKAMBUTIS_9h)
	LDI  R27,HIGH(_SKAMBUTIS_9h)
	RCALL SUBOPT_0x1E
	BRNE _0x1FE
	LDI  R26,LOW(_SKAMBUTIS_9dm)
	LDI  R27,HIGH(_SKAMBUTIS_9dm)
	RCALL SUBOPT_0x1F
	BRNE _0x1FE
	LDI  R26,LOW(_SKAMBUTIS_9m)
	LDI  R27,HIGH(_SKAMBUTIS_9m)
	RCALL SUBOPT_0x20
	BREQ _0x1FF
_0x1FE:
	RJMP _0x1FD
_0x1FF:
; 0000 04A7       ISPEJAMASIS_SKAMBUTIS = 1;}
	LDI  R30,LOW(1)
	STS  _ISPEJAMASIS_SKAMBUTIS,R30
; 0000 04A8 
; 0000 04A9       if((SKAMBUTIS_11dh==a2)&&
_0x1FD:
; 0000 04AA       (SKAMBUTIS_11h==b2)&&
; 0000 04AB       (SKAMBUTIS_11dm==c2)&&
; 0000 04AC       (SKAMBUTIS_11m==d2)){
	LDI  R26,LOW(_SKAMBUTIS_11dh)
	LDI  R27,HIGH(_SKAMBUTIS_11dh)
	RCALL SUBOPT_0x1D
	BRNE _0x201
	LDI  R26,LOW(_SKAMBUTIS_11h)
	LDI  R27,HIGH(_SKAMBUTIS_11h)
	RCALL SUBOPT_0x1E
	BRNE _0x201
	LDI  R26,LOW(_SKAMBUTIS_11dm)
	LDI  R27,HIGH(_SKAMBUTIS_11dm)
	RCALL SUBOPT_0x1F
	BRNE _0x201
	LDI  R26,LOW(_SKAMBUTIS_11m)
	LDI  R27,HIGH(_SKAMBUTIS_11m)
	RCALL SUBOPT_0x20
	BREQ _0x202
_0x201:
	RJMP _0x200
_0x202:
; 0000 04AD       ISPEJAMASIS_SKAMBUTIS = 1;}
	LDI  R30,LOW(1)
	STS  _ISPEJAMASIS_SKAMBUTIS,R30
; 0000 04AE 
; 0000 04AF       if((SKAMBUTIS_13dh==a2)&&
_0x200:
; 0000 04B0       (SKAMBUTIS_13h==b2)&&
; 0000 04B1       (SKAMBUTIS_13dm==c2)&&
; 0000 04B2       (SKAMBUTIS_13m==d2)){
	LDI  R26,LOW(_SKAMBUTIS_13dh)
	LDI  R27,HIGH(_SKAMBUTIS_13dh)
	RCALL SUBOPT_0x1D
	BRNE _0x204
	LDI  R26,LOW(_SKAMBUTIS_13h)
	LDI  R27,HIGH(_SKAMBUTIS_13h)
	RCALL SUBOPT_0x1E
	BRNE _0x204
	LDI  R26,LOW(_SKAMBUTIS_13dm)
	LDI  R27,HIGH(_SKAMBUTIS_13dm)
	RCALL SUBOPT_0x1F
	BRNE _0x204
	LDI  R26,LOW(_SKAMBUTIS_13m)
	LDI  R27,HIGH(_SKAMBUTIS_13m)
	RCALL SUBOPT_0x20
	BREQ _0x205
_0x204:
	RJMP _0x203
_0x205:
; 0000 04B3       ISPEJAMASIS_SKAMBUTIS = 1;}
	LDI  R30,LOW(1)
	STS  _ISPEJAMASIS_SKAMBUTIS,R30
; 0000 04B4 
; 0000 04B5       if((SKAMBUTIS_15dh==a2)&&
_0x203:
; 0000 04B6       (SKAMBUTIS_15h==b2)&&
; 0000 04B7       (SKAMBUTIS_15dm==c2)&&
; 0000 04B8       (SKAMBUTIS_15m==d2)){
	LDI  R26,LOW(_SKAMBUTIS_15dh)
	LDI  R27,HIGH(_SKAMBUTIS_15dh)
	RCALL SUBOPT_0x1D
	BRNE _0x207
	LDI  R26,LOW(_SKAMBUTIS_15h)
	LDI  R27,HIGH(_SKAMBUTIS_15h)
	RCALL SUBOPT_0x1E
	BRNE _0x207
	LDI  R26,LOW(_SKAMBUTIS_15dm)
	LDI  R27,HIGH(_SKAMBUTIS_15dm)
	RCALL SUBOPT_0x1F
	BRNE _0x207
	LDI  R26,LOW(_SKAMBUTIS_15m)
	LDI  R27,HIGH(_SKAMBUTIS_15m)
	RCALL SUBOPT_0x20
	BREQ _0x208
_0x207:
	RJMP _0x206
_0x208:
; 0000 04B9       ISPEJAMASIS_SKAMBUTIS = 1;}
	LDI  R30,LOW(1)
	STS  _ISPEJAMASIS_SKAMBUTIS,R30
; 0000 04BA 
; 0000 04BB       if((SKAMBUTIS_17dh==a2)&&
_0x206:
; 0000 04BC       (SKAMBUTIS_17h==b2)&&
; 0000 04BD       (SKAMBUTIS_17dm==c2)&&
; 0000 04BE       (SKAMBUTIS_17m==d2)){
	LDI  R26,LOW(_SKAMBUTIS_17dh)
	LDI  R27,HIGH(_SKAMBUTIS_17dh)
	RCALL SUBOPT_0x1D
	BRNE _0x20A
	LDI  R26,LOW(_SKAMBUTIS_17h)
	LDI  R27,HIGH(_SKAMBUTIS_17h)
	RCALL SUBOPT_0x1E
	BRNE _0x20A
	LDI  R26,LOW(_SKAMBUTIS_17dm)
	LDI  R27,HIGH(_SKAMBUTIS_17dm)
	RCALL SUBOPT_0x1F
	BRNE _0x20A
	LDI  R26,LOW(_SKAMBUTIS_17m)
	LDI  R27,HIGH(_SKAMBUTIS_17m)
	RCALL SUBOPT_0x20
	BREQ _0x20B
_0x20A:
	RJMP _0x209
_0x20B:
; 0000 04BF       ISPEJAMASIS_SKAMBUTIS = 1;}
	LDI  R30,LOW(1)
	STS  _ISPEJAMASIS_SKAMBUTIS,R30
; 0000 04C0 
; 0000 04C1       if((SKAMBUTIS_19dh==a2)&&
_0x209:
; 0000 04C2       (SKAMBUTIS_19h==b2)&&
; 0000 04C3       (SKAMBUTIS_19dm==c2)&&
; 0000 04C4       (SKAMBUTIS_19m==d2)){
	LDI  R26,LOW(_SKAMBUTIS_19dh)
	LDI  R27,HIGH(_SKAMBUTIS_19dh)
	RCALL SUBOPT_0x1D
	BRNE _0x20D
	LDI  R26,LOW(_SKAMBUTIS_19h)
	LDI  R27,HIGH(_SKAMBUTIS_19h)
	RCALL SUBOPT_0x1E
	BRNE _0x20D
	LDI  R26,LOW(_SKAMBUTIS_19dm)
	LDI  R27,HIGH(_SKAMBUTIS_19dm)
	RCALL SUBOPT_0x1F
	BRNE _0x20D
	LDI  R26,LOW(_SKAMBUTIS_19m)
	LDI  R27,HIGH(_SKAMBUTIS_19m)
	RCALL SUBOPT_0x20
	BREQ _0x20E
_0x20D:
	RJMP _0x20C
_0x20E:
; 0000 04C5       ISPEJAMASIS_SKAMBUTIS = 1;}
	LDI  R30,LOW(1)
	STS  _ISPEJAMASIS_SKAMBUTIS,R30
; 0000 04C6 
; 0000 04C7 
; 0000 04C8       if((ISPEJAMASIS_SKAMBUTIS==1)&&(puse_sekundes!=700)&&
_0x20C:
; 0000 04C9       (REDAGAVIMAS==0)){
	LDS  R26,_ISPEJAMASIS_SKAMBUTIS
	CPI  R26,LOW(0x1)
	BRNE _0x210
	LDS  R26,_puse_sekundes
	LDS  R27,_puse_sekundes+1
	CPI  R26,LOW(0x2BC)
	LDI  R30,HIGH(0x2BC)
	CPC  R27,R30
	BREQ _0x210
	LDS  R26,_REDAGAVIMAS
	CPI  R26,LOW(0x0)
	BREQ _0x211
_0x210:
	RJMP _0x20F
_0x211:
; 0000 04CA       puse_sekundes = puse_sekundes + 1;
	LDS  R30,_puse_sekundes
	LDS  R31,_puse_sekundes+1
	ADIW R30,1
	STS  _puse_sekundes,R30
	STS  _puse_sekundes+1,R31
; 0000 04CB       SKAMBUTIS_SKAMBA = 1;}
	LDI  R30,LOW(1)
	STS  _SKAMBUTIS_SKAMBA,R30
; 0000 04CC 
; 0000 04CD       if(ISPEJAMASIS_SKAMBUTIS==0){
_0x20F:
	LDS  R30,_ISPEJAMASIS_SKAMBUTIS
	CPI  R30,0
	BRNE _0x212
; 0000 04CE       puse_sekundes = 0;}
	LDI  R30,LOW(0)
	STS  _puse_sekundes,R30
	STS  _puse_sekundes+1,R30
; 0000 04CF 
; 0000 04D0       //tikras_skambutis:
; 0000 04D1       if((SKAMBUTIS_1dh==desimtys_valandos)&&
_0x212:
; 0000 04D2       (SKAMBUTIS_1h==valandos)&&
; 0000 04D3       (SKAMBUTIS_1dm==desimtys_minutes)&&
; 0000 04D4       (SKAMBUTIS_1m==minutes)){
	RCALL SUBOPT_0xE
	RCALL SUBOPT_0x21
	BRNE _0x214
	RCALL SUBOPT_0xF
	RCALL SUBOPT_0x22
	BRNE _0x214
	RCALL SUBOPT_0x10
	RCALL SUBOPT_0x23
	BRNE _0x214
	RCALL SUBOPT_0x11
	RCALL SUBOPT_0x24
	BREQ _0x215
_0x214:
	RJMP _0x213
_0x215:
; 0000 04D5       SKAMBUTIS_TURETU_SKAMBETI = 1;}
	LDI  R30,LOW(1)
	STS  _SKAMBUTIS_TURETU_SKAMBETI,R30
; 0000 04D6 
; 0000 04D7       if((SKAMBUTIS_2dh==desimtys_valandos)&&
_0x213:
; 0000 04D8       (SKAMBUTIS_2h==valandos)&&
; 0000 04D9       (SKAMBUTIS_2dm==desimtys_minutes)&&
; 0000 04DA       (SKAMBUTIS_2m==minutes)){
	LDI  R26,LOW(_SKAMBUTIS_2dh)
	LDI  R27,HIGH(_SKAMBUTIS_2dh)
	RCALL SUBOPT_0x25
	BRNE _0x217
	LDI  R26,LOW(_SKAMBUTIS_2h)
	LDI  R27,HIGH(_SKAMBUTIS_2h)
	RCALL SUBOPT_0x26
	BRNE _0x217
	LDI  R26,LOW(_SKAMBUTIS_2dm)
	LDI  R27,HIGH(_SKAMBUTIS_2dm)
	RCALL SUBOPT_0x27
	BRNE _0x217
	LDI  R26,LOW(_SKAMBUTIS_2m)
	LDI  R27,HIGH(_SKAMBUTIS_2m)
	RCALL SUBOPT_0x28
	BREQ _0x218
_0x217:
	RJMP _0x216
_0x218:
; 0000 04DB       SKAMBUTIS_TURETU_SKAMBETI = 1;}
	LDI  R30,LOW(1)
	STS  _SKAMBUTIS_TURETU_SKAMBETI,R30
; 0000 04DC 
; 0000 04DD       if((SKAMBUTIS_3dh==desimtys_valandos)&&
_0x216:
; 0000 04DE       (SKAMBUTIS_3h==valandos)&&
; 0000 04DF       (SKAMBUTIS_3dm==desimtys_minutes)&&
; 0000 04E0       (SKAMBUTIS_3m==minutes)){
	LDI  R26,LOW(_SKAMBUTIS_3dh)
	LDI  R27,HIGH(_SKAMBUTIS_3dh)
	RCALL SUBOPT_0x25
	BRNE _0x21A
	LDI  R26,LOW(_SKAMBUTIS_3h)
	LDI  R27,HIGH(_SKAMBUTIS_3h)
	RCALL SUBOPT_0x26
	BRNE _0x21A
	LDI  R26,LOW(_SKAMBUTIS_3dm)
	LDI  R27,HIGH(_SKAMBUTIS_3dm)
	RCALL SUBOPT_0x27
	BRNE _0x21A
	LDI  R26,LOW(_SKAMBUTIS_3m)
	LDI  R27,HIGH(_SKAMBUTIS_3m)
	RCALL SUBOPT_0x28
	BREQ _0x21B
_0x21A:
	RJMP _0x219
_0x21B:
; 0000 04E1       SKAMBUTIS_TURETU_SKAMBETI = 1;}
	LDI  R30,LOW(1)
	STS  _SKAMBUTIS_TURETU_SKAMBETI,R30
; 0000 04E2 
; 0000 04E3       if((SKAMBUTIS_4dh==desimtys_valandos)&&
_0x219:
; 0000 04E4       (SKAMBUTIS_4h==valandos)&&
; 0000 04E5       (SKAMBUTIS_4dm==desimtys_minutes)&&
; 0000 04E6       (SKAMBUTIS_4m==minutes)){
	LDI  R26,LOW(_SKAMBUTIS_4dh)
	LDI  R27,HIGH(_SKAMBUTIS_4dh)
	RCALL SUBOPT_0x25
	BRNE _0x21D
	LDI  R26,LOW(_SKAMBUTIS_4h)
	LDI  R27,HIGH(_SKAMBUTIS_4h)
	RCALL SUBOPT_0x26
	BRNE _0x21D
	LDI  R26,LOW(_SKAMBUTIS_4dm)
	LDI  R27,HIGH(_SKAMBUTIS_4dm)
	RCALL SUBOPT_0x27
	BRNE _0x21D
	LDI  R26,LOW(_SKAMBUTIS_4m)
	LDI  R27,HIGH(_SKAMBUTIS_4m)
	RCALL SUBOPT_0x28
	BREQ _0x21E
_0x21D:
	RJMP _0x21C
_0x21E:
; 0000 04E7       SKAMBUTIS_TURETU_SKAMBETI = 1;}
	LDI  R30,LOW(1)
	STS  _SKAMBUTIS_TURETU_SKAMBETI,R30
; 0000 04E8 
; 0000 04E9       if((SKAMBUTIS_5dh==desimtys_valandos)&&
_0x21C:
; 0000 04EA       (SKAMBUTIS_5h==valandos)&&
; 0000 04EB       (SKAMBUTIS_5dm==desimtys_minutes)&&
; 0000 04EC       (SKAMBUTIS_5m==minutes)){
	LDI  R26,LOW(_SKAMBUTIS_5dh)
	LDI  R27,HIGH(_SKAMBUTIS_5dh)
	RCALL SUBOPT_0x25
	BRNE _0x220
	LDI  R26,LOW(_SKAMBUTIS_5h)
	LDI  R27,HIGH(_SKAMBUTIS_5h)
	RCALL SUBOPT_0x26
	BRNE _0x220
	LDI  R26,LOW(_SKAMBUTIS_5dm)
	LDI  R27,HIGH(_SKAMBUTIS_5dm)
	RCALL SUBOPT_0x27
	BRNE _0x220
	LDI  R26,LOW(_SKAMBUTIS_5m)
	LDI  R27,HIGH(_SKAMBUTIS_5m)
	RCALL SUBOPT_0x28
	BREQ _0x221
_0x220:
	RJMP _0x21F
_0x221:
; 0000 04ED       SKAMBUTIS_TURETU_SKAMBETI = 1;}
	LDI  R30,LOW(1)
	STS  _SKAMBUTIS_TURETU_SKAMBETI,R30
; 0000 04EE 
; 0000 04EF       if((SKAMBUTIS_6dh==desimtys_valandos)&&
_0x21F:
; 0000 04F0       (SKAMBUTIS_6h==valandos)&&
; 0000 04F1       (SKAMBUTIS_6dm==desimtys_minutes)&&
; 0000 04F2       (SKAMBUTIS_6m==minutes)){
	LDI  R26,LOW(_SKAMBUTIS_6dh)
	LDI  R27,HIGH(_SKAMBUTIS_6dh)
	RCALL SUBOPT_0x25
	BRNE _0x223
	LDI  R26,LOW(_SKAMBUTIS_6h)
	LDI  R27,HIGH(_SKAMBUTIS_6h)
	RCALL SUBOPT_0x26
	BRNE _0x223
	LDI  R26,LOW(_SKAMBUTIS_6dm)
	LDI  R27,HIGH(_SKAMBUTIS_6dm)
	RCALL SUBOPT_0x27
	BRNE _0x223
	LDI  R26,LOW(_SKAMBUTIS_6m)
	LDI  R27,HIGH(_SKAMBUTIS_6m)
	RCALL SUBOPT_0x28
	BREQ _0x224
_0x223:
	RJMP _0x222
_0x224:
; 0000 04F3       SKAMBUTIS_TURETU_SKAMBETI = 1;}
	LDI  R30,LOW(1)
	STS  _SKAMBUTIS_TURETU_SKAMBETI,R30
; 0000 04F4 
; 0000 04F5       if((SKAMBUTIS_7dh==desimtys_valandos)&&
_0x222:
; 0000 04F6       (SKAMBUTIS_7h==valandos)&&
; 0000 04F7       (SKAMBUTIS_7dm==desimtys_minutes)&&
; 0000 04F8       (SKAMBUTIS_7m==minutes)){
	LDI  R26,LOW(_SKAMBUTIS_7dh)
	LDI  R27,HIGH(_SKAMBUTIS_7dh)
	RCALL SUBOPT_0x25
	BRNE _0x226
	LDI  R26,LOW(_SKAMBUTIS_7h)
	LDI  R27,HIGH(_SKAMBUTIS_7h)
	RCALL SUBOPT_0x26
	BRNE _0x226
	LDI  R26,LOW(_SKAMBUTIS_7dm)
	LDI  R27,HIGH(_SKAMBUTIS_7dm)
	RCALL SUBOPT_0x27
	BRNE _0x226
	LDI  R26,LOW(_SKAMBUTIS_7m)
	LDI  R27,HIGH(_SKAMBUTIS_7m)
	RCALL SUBOPT_0x28
	BREQ _0x227
_0x226:
	RJMP _0x225
_0x227:
; 0000 04F9       SKAMBUTIS_TURETU_SKAMBETI = 1;}
	LDI  R30,LOW(1)
	STS  _SKAMBUTIS_TURETU_SKAMBETI,R30
; 0000 04FA 
; 0000 04FB       if((SKAMBUTIS_8dh==desimtys_valandos)&&
_0x225:
; 0000 04FC       (SKAMBUTIS_8h==valandos)&&
; 0000 04FD       (SKAMBUTIS_8dm==desimtys_minutes)&&
; 0000 04FE       (SKAMBUTIS_8m==minutes)){
	LDI  R26,LOW(_SKAMBUTIS_8dh)
	LDI  R27,HIGH(_SKAMBUTIS_8dh)
	RCALL SUBOPT_0x25
	BRNE _0x229
	LDI  R26,LOW(_SKAMBUTIS_8h)
	LDI  R27,HIGH(_SKAMBUTIS_8h)
	RCALL SUBOPT_0x26
	BRNE _0x229
	LDI  R26,LOW(_SKAMBUTIS_8dm)
	LDI  R27,HIGH(_SKAMBUTIS_8dm)
	RCALL SUBOPT_0x27
	BRNE _0x229
	LDI  R26,LOW(_SKAMBUTIS_8m)
	LDI  R27,HIGH(_SKAMBUTIS_8m)
	RCALL SUBOPT_0x28
	BREQ _0x22A
_0x229:
	RJMP _0x228
_0x22A:
; 0000 04FF       SKAMBUTIS_TURETU_SKAMBETI = 1;}
	LDI  R30,LOW(1)
	STS  _SKAMBUTIS_TURETU_SKAMBETI,R30
; 0000 0500 
; 0000 0501       if((SKAMBUTIS_9dh==desimtys_valandos)&&
_0x228:
; 0000 0502       (SKAMBUTIS_9h==valandos)&&
; 0000 0503       (SKAMBUTIS_9dm==desimtys_minutes)&&
; 0000 0504       (SKAMBUTIS_9m==minutes)){
	LDI  R26,LOW(_SKAMBUTIS_9dh)
	LDI  R27,HIGH(_SKAMBUTIS_9dh)
	RCALL SUBOPT_0x25
	BRNE _0x22C
	LDI  R26,LOW(_SKAMBUTIS_9h)
	LDI  R27,HIGH(_SKAMBUTIS_9h)
	RCALL SUBOPT_0x26
	BRNE _0x22C
	LDI  R26,LOW(_SKAMBUTIS_9dm)
	LDI  R27,HIGH(_SKAMBUTIS_9dm)
	RCALL SUBOPT_0x27
	BRNE _0x22C
	LDI  R26,LOW(_SKAMBUTIS_9m)
	LDI  R27,HIGH(_SKAMBUTIS_9m)
	RCALL SUBOPT_0x28
	BREQ _0x22D
_0x22C:
	RJMP _0x22B
_0x22D:
; 0000 0505       SKAMBUTIS_TURETU_SKAMBETI = 1;}
	LDI  R30,LOW(1)
	STS  _SKAMBUTIS_TURETU_SKAMBETI,R30
; 0000 0506 
; 0000 0507       if((SKAMBUTIS_10dh==desimtys_valandos)&&
_0x22B:
; 0000 0508       (SKAMBUTIS_10h==valandos)&&
; 0000 0509       (SKAMBUTIS_10dm==desimtys_minutes)&&
; 0000 050A       (SKAMBUTIS_10m==minutes)){
	LDI  R26,LOW(_SKAMBUTIS_10dh)
	LDI  R27,HIGH(_SKAMBUTIS_10dh)
	RCALL SUBOPT_0x25
	BRNE _0x22F
	LDI  R26,LOW(_SKAMBUTIS_10h)
	LDI  R27,HIGH(_SKAMBUTIS_10h)
	RCALL SUBOPT_0x26
	BRNE _0x22F
	LDI  R26,LOW(_SKAMBUTIS_10dm)
	LDI  R27,HIGH(_SKAMBUTIS_10dm)
	RCALL SUBOPT_0x27
	BRNE _0x22F
	LDI  R26,LOW(_SKAMBUTIS_10m)
	LDI  R27,HIGH(_SKAMBUTIS_10m)
	RCALL SUBOPT_0x28
	BREQ _0x230
_0x22F:
	RJMP _0x22E
_0x230:
; 0000 050B       SKAMBUTIS_TURETU_SKAMBETI = 1;}
	LDI  R30,LOW(1)
	STS  _SKAMBUTIS_TURETU_SKAMBETI,R30
; 0000 050C 
; 0000 050D       if((SKAMBUTIS_11dh==desimtys_valandos)&&
_0x22E:
; 0000 050E       (SKAMBUTIS_11h==valandos)&&
; 0000 050F       (SKAMBUTIS_11dm==desimtys_minutes)&&
; 0000 0510       (SKAMBUTIS_11m==minutes)){
	LDI  R26,LOW(_SKAMBUTIS_11dh)
	LDI  R27,HIGH(_SKAMBUTIS_11dh)
	RCALL SUBOPT_0x25
	BRNE _0x232
	LDI  R26,LOW(_SKAMBUTIS_11h)
	LDI  R27,HIGH(_SKAMBUTIS_11h)
	RCALL SUBOPT_0x26
	BRNE _0x232
	LDI  R26,LOW(_SKAMBUTIS_11dm)
	LDI  R27,HIGH(_SKAMBUTIS_11dm)
	RCALL SUBOPT_0x27
	BRNE _0x232
	LDI  R26,LOW(_SKAMBUTIS_11m)
	LDI  R27,HIGH(_SKAMBUTIS_11m)
	RCALL SUBOPT_0x28
	BREQ _0x233
_0x232:
	RJMP _0x231
_0x233:
; 0000 0511       SKAMBUTIS_TURETU_SKAMBETI = 1;}
	LDI  R30,LOW(1)
	STS  _SKAMBUTIS_TURETU_SKAMBETI,R30
; 0000 0512 
; 0000 0513       if((SKAMBUTIS_12dh==desimtys_valandos)&&
_0x231:
; 0000 0514       (SKAMBUTIS_12h==valandos)&&
; 0000 0515       (SKAMBUTIS_12dm==desimtys_minutes)&&
; 0000 0516       (SKAMBUTIS_12m==minutes)){
	LDI  R26,LOW(_SKAMBUTIS_12dh)
	LDI  R27,HIGH(_SKAMBUTIS_12dh)
	RCALL SUBOPT_0x25
	BRNE _0x235
	LDI  R26,LOW(_SKAMBUTIS_12h)
	LDI  R27,HIGH(_SKAMBUTIS_12h)
	RCALL SUBOPT_0x26
	BRNE _0x235
	LDI  R26,LOW(_SKAMBUTIS_12dm)
	LDI  R27,HIGH(_SKAMBUTIS_12dm)
	RCALL SUBOPT_0x27
	BRNE _0x235
	LDI  R26,LOW(_SKAMBUTIS_12m)
	LDI  R27,HIGH(_SKAMBUTIS_12m)
	RCALL SUBOPT_0x28
	BREQ _0x236
_0x235:
	RJMP _0x234
_0x236:
; 0000 0517       SKAMBUTIS_TURETU_SKAMBETI = 1;}
	LDI  R30,LOW(1)
	STS  _SKAMBUTIS_TURETU_SKAMBETI,R30
; 0000 0518 
; 0000 0519       if((SKAMBUTIS_13dh==desimtys_valandos)&&
_0x234:
; 0000 051A       (SKAMBUTIS_13h==valandos)&&
; 0000 051B       (SKAMBUTIS_13dm==desimtys_minutes)&&
; 0000 051C       (SKAMBUTIS_13m==minutes)){
	LDI  R26,LOW(_SKAMBUTIS_13dh)
	LDI  R27,HIGH(_SKAMBUTIS_13dh)
	RCALL SUBOPT_0x25
	BRNE _0x238
	LDI  R26,LOW(_SKAMBUTIS_13h)
	LDI  R27,HIGH(_SKAMBUTIS_13h)
	RCALL SUBOPT_0x26
	BRNE _0x238
	LDI  R26,LOW(_SKAMBUTIS_13dm)
	LDI  R27,HIGH(_SKAMBUTIS_13dm)
	RCALL SUBOPT_0x27
	BRNE _0x238
	LDI  R26,LOW(_SKAMBUTIS_13m)
	LDI  R27,HIGH(_SKAMBUTIS_13m)
	RCALL SUBOPT_0x28
	BREQ _0x239
_0x238:
	RJMP _0x237
_0x239:
; 0000 051D       SKAMBUTIS_TURETU_SKAMBETI = 1;}
	LDI  R30,LOW(1)
	STS  _SKAMBUTIS_TURETU_SKAMBETI,R30
; 0000 051E 
; 0000 051F       if((SKAMBUTIS_14dh==desimtys_valandos)&&
_0x237:
; 0000 0520       (SKAMBUTIS_14h==valandos)&&
; 0000 0521       (SKAMBUTIS_14dm==desimtys_minutes)&&
; 0000 0522       (SKAMBUTIS_14m==minutes)){
	LDI  R26,LOW(_SKAMBUTIS_14dh)
	LDI  R27,HIGH(_SKAMBUTIS_14dh)
	RCALL SUBOPT_0x25
	BRNE _0x23B
	LDI  R26,LOW(_SKAMBUTIS_14h)
	LDI  R27,HIGH(_SKAMBUTIS_14h)
	RCALL SUBOPT_0x26
	BRNE _0x23B
	LDI  R26,LOW(_SKAMBUTIS_14dm)
	LDI  R27,HIGH(_SKAMBUTIS_14dm)
	RCALL SUBOPT_0x27
	BRNE _0x23B
	LDI  R26,LOW(_SKAMBUTIS_14m)
	LDI  R27,HIGH(_SKAMBUTIS_14m)
	RCALL SUBOPT_0x28
	BREQ _0x23C
_0x23B:
	RJMP _0x23A
_0x23C:
; 0000 0523       SKAMBUTIS_TURETU_SKAMBETI = 1;}
	LDI  R30,LOW(1)
	STS  _SKAMBUTIS_TURETU_SKAMBETI,R30
; 0000 0524 
; 0000 0525       if((SKAMBUTIS_15dh==desimtys_valandos)&&
_0x23A:
; 0000 0526       (SKAMBUTIS_15h==valandos)&&
; 0000 0527       (SKAMBUTIS_15dm==desimtys_minutes)&&
; 0000 0528       (SKAMBUTIS_15m==minutes)){
	LDI  R26,LOW(_SKAMBUTIS_15dh)
	LDI  R27,HIGH(_SKAMBUTIS_15dh)
	RCALL SUBOPT_0x25
	BRNE _0x23E
	LDI  R26,LOW(_SKAMBUTIS_15h)
	LDI  R27,HIGH(_SKAMBUTIS_15h)
	RCALL SUBOPT_0x26
	BRNE _0x23E
	LDI  R26,LOW(_SKAMBUTIS_15dm)
	LDI  R27,HIGH(_SKAMBUTIS_15dm)
	RCALL SUBOPT_0x27
	BRNE _0x23E
	LDI  R26,LOW(_SKAMBUTIS_15m)
	LDI  R27,HIGH(_SKAMBUTIS_15m)
	RCALL SUBOPT_0x28
	BREQ _0x23F
_0x23E:
	RJMP _0x23D
_0x23F:
; 0000 0529       SKAMBUTIS_TURETU_SKAMBETI = 1;}
	LDI  R30,LOW(1)
	STS  _SKAMBUTIS_TURETU_SKAMBETI,R30
; 0000 052A 
; 0000 052B       if((SKAMBUTIS_16dh==desimtys_valandos)&&
_0x23D:
; 0000 052C       (SKAMBUTIS_16h==valandos)&&
; 0000 052D       (SKAMBUTIS_16dm==desimtys_minutes)&&
; 0000 052E       (SKAMBUTIS_16m==minutes)){
	LDI  R26,LOW(_SKAMBUTIS_16dh)
	LDI  R27,HIGH(_SKAMBUTIS_16dh)
	RCALL SUBOPT_0x25
	BRNE _0x241
	LDI  R26,LOW(_SKAMBUTIS_16h)
	LDI  R27,HIGH(_SKAMBUTIS_16h)
	RCALL SUBOPT_0x26
	BRNE _0x241
	LDI  R26,LOW(_SKAMBUTIS_16dm)
	LDI  R27,HIGH(_SKAMBUTIS_16dm)
	RCALL SUBOPT_0x27
	BRNE _0x241
	LDI  R26,LOW(_SKAMBUTIS_16m)
	LDI  R27,HIGH(_SKAMBUTIS_16m)
	RCALL SUBOPT_0x28
	BREQ _0x242
_0x241:
	RJMP _0x240
_0x242:
; 0000 052F       SKAMBUTIS_TURETU_SKAMBETI = 1;}
	LDI  R30,LOW(1)
	STS  _SKAMBUTIS_TURETU_SKAMBETI,R30
; 0000 0530 
; 0000 0531       if((SKAMBUTIS_17dh==desimtys_valandos)&&
_0x240:
; 0000 0532       (SKAMBUTIS_17h==valandos)&&
; 0000 0533       (SKAMBUTIS_17dm==desimtys_minutes)&&
; 0000 0534       (SKAMBUTIS_17m==minutes)){
	LDI  R26,LOW(_SKAMBUTIS_17dh)
	LDI  R27,HIGH(_SKAMBUTIS_17dh)
	RCALL SUBOPT_0x25
	BRNE _0x244
	LDI  R26,LOW(_SKAMBUTIS_17h)
	LDI  R27,HIGH(_SKAMBUTIS_17h)
	RCALL SUBOPT_0x26
	BRNE _0x244
	LDI  R26,LOW(_SKAMBUTIS_17dm)
	LDI  R27,HIGH(_SKAMBUTIS_17dm)
	RCALL SUBOPT_0x27
	BRNE _0x244
	LDI  R26,LOW(_SKAMBUTIS_17m)
	LDI  R27,HIGH(_SKAMBUTIS_17m)
	RCALL SUBOPT_0x28
	BREQ _0x245
_0x244:
	RJMP _0x243
_0x245:
; 0000 0535       SKAMBUTIS_TURETU_SKAMBETI = 1;}
	LDI  R30,LOW(1)
	STS  _SKAMBUTIS_TURETU_SKAMBETI,R30
; 0000 0536 
; 0000 0537       if((SKAMBUTIS_18dh==desimtys_valandos)&&
_0x243:
; 0000 0538       (SKAMBUTIS_18h==valandos)&&
; 0000 0539       (SKAMBUTIS_18dm==desimtys_minutes)&&
; 0000 053A       (SKAMBUTIS_18m==minutes)){
	LDI  R26,LOW(_SKAMBUTIS_18dh)
	LDI  R27,HIGH(_SKAMBUTIS_18dh)
	RCALL SUBOPT_0x25
	BRNE _0x247
	LDI  R26,LOW(_SKAMBUTIS_18h)
	LDI  R27,HIGH(_SKAMBUTIS_18h)
	RCALL SUBOPT_0x26
	BRNE _0x247
	LDI  R26,LOW(_SKAMBUTIS_18dm)
	LDI  R27,HIGH(_SKAMBUTIS_18dm)
	RCALL SUBOPT_0x27
	BRNE _0x247
	LDI  R26,LOW(_SKAMBUTIS_18m)
	LDI  R27,HIGH(_SKAMBUTIS_18m)
	RCALL SUBOPT_0x28
	BREQ _0x248
_0x247:
	RJMP _0x246
_0x248:
; 0000 053B       SKAMBUTIS_TURETU_SKAMBETI = 1;}
	LDI  R30,LOW(1)
	STS  _SKAMBUTIS_TURETU_SKAMBETI,R30
; 0000 053C 
; 0000 053D       if((SKAMBUTIS_19dh==desimtys_valandos)&&
_0x246:
; 0000 053E       (SKAMBUTIS_19h==valandos)&&
; 0000 053F       (SKAMBUTIS_19dm==desimtys_minutes)&&
; 0000 0540       (SKAMBUTIS_19m==minutes)){
	LDI  R26,LOW(_SKAMBUTIS_19dh)
	LDI  R27,HIGH(_SKAMBUTIS_19dh)
	RCALL SUBOPT_0x25
	BRNE _0x24A
	LDI  R26,LOW(_SKAMBUTIS_19h)
	LDI  R27,HIGH(_SKAMBUTIS_19h)
	RCALL SUBOPT_0x26
	BRNE _0x24A
	LDI  R26,LOW(_SKAMBUTIS_19dm)
	LDI  R27,HIGH(_SKAMBUTIS_19dm)
	RCALL SUBOPT_0x27
	BRNE _0x24A
	LDI  R26,LOW(_SKAMBUTIS_19m)
	LDI  R27,HIGH(_SKAMBUTIS_19m)
	RCALL SUBOPT_0x28
	BREQ _0x24B
_0x24A:
	RJMP _0x249
_0x24B:
; 0000 0541       SKAMBUTIS_TURETU_SKAMBETI = 1;}
	LDI  R30,LOW(1)
	STS  _SKAMBUTIS_TURETU_SKAMBETI,R30
; 0000 0542 
; 0000 0543       if((SKAMBUTIS_20dh==desimtys_valandos)&&
_0x249:
; 0000 0544       (SKAMBUTIS_20h==valandos)&&
; 0000 0545       (SKAMBUTIS_20dm==desimtys_minutes)&&
; 0000 0546       (SKAMBUTIS_20m==minutes)){
	LDI  R26,LOW(_SKAMBUTIS_20dh)
	LDI  R27,HIGH(_SKAMBUTIS_20dh)
	RCALL SUBOPT_0x25
	BRNE _0x24D
	LDI  R26,LOW(_SKAMBUTIS_20h)
	LDI  R27,HIGH(_SKAMBUTIS_20h)
	RCALL SUBOPT_0x26
	BRNE _0x24D
	LDI  R26,LOW(_SKAMBUTIS_20dm)
	LDI  R27,HIGH(_SKAMBUTIS_20dm)
	RCALL SUBOPT_0x27
	BRNE _0x24D
	LDI  R26,LOW(_SKAMBUTIS_20m)
	LDI  R27,HIGH(_SKAMBUTIS_20m)
	RCALL SUBOPT_0x28
	BREQ _0x24E
_0x24D:
	RJMP _0x24C
_0x24E:
; 0000 0547       SKAMBUTIS_TURETU_SKAMBETI = 1;}
	LDI  R30,LOW(1)
	STS  _SKAMBUTIS_TURETU_SKAMBETI,R30
; 0000 0548 
; 0000 0549       if(SKAMBUTIS_TURETU_SKAMBETI==0){
_0x24C:
	LDS  R30,_SKAMBUTIS_TURETU_SKAMBETI
	CPI  R30,0
	BRNE _0x24F
; 0000 054A       Sesios_sekundes = 0;}
	LDI  R30,LOW(0)
	STS  _Sesios_sekundes,R30
; 0000 054B 
; 0000 054C       if((SKAMBUTIS_TURETU_SKAMBETI==1)&&(Sesios_sekundes!=6)){
_0x24F:
	LDS  R26,_SKAMBUTIS_TURETU_SKAMBETI
	CPI  R26,LOW(0x1)
	BRNE _0x251
	LDS  R26,_Sesios_sekundes
	CPI  R26,LOW(0x6)
	BRNE _0x252
_0x251:
	RJMP _0x250
_0x252:
; 0000 054D       viena_sekunde3 = viena_sekunde3 + 1;}
	LDS  R30,_viena_sekunde3
	LDS  R31,_viena_sekunde3+1
	LDS  R22,_viena_sekunde3+2
	LDS  R23,_viena_sekunde3+3
	__ADDD1N 1
	STS  _viena_sekunde3,R30
	STS  _viena_sekunde3+1,R31
	STS  _viena_sekunde3+2,R22
	STS  _viena_sekunde3+3,R23
; 0000 054E 
; 0000 054F       if(viena_sekunde3==1000){
_0x250:
	LDS  R26,_viena_sekunde3
	LDS  R27,_viena_sekunde3+1
	LDS  R24,_viena_sekunde3+2
	LDS  R25,_viena_sekunde3+3
	__CPD2N 0x3E8
	BRNE _0x253
; 0000 0550       Sesios_sekundes = Sesios_sekundes + 1;
	LDS  R30,_Sesios_sekundes
	SUBI R30,-LOW(1)
	STS  _Sesios_sekundes,R30
; 0000 0551       viena_sekunde3 = 0;}
	LDI  R30,LOW(0)
	STS  _viena_sekunde3,R30
	STS  _viena_sekunde3+1,R30
	STS  _viena_sekunde3+2,R30
	STS  _viena_sekunde3+3,R30
; 0000 0552 
; 0000 0553       if((Sesios_sekundes!=0)&&(Sesios_sekundes!=6)&&
_0x253:
; 0000 0554       (REDAGAVIMAS==0)){
	LDS  R26,_Sesios_sekundes
	CPI  R26,LOW(0x0)
	BREQ _0x255
	CPI  R26,LOW(0x6)
	BREQ _0x255
	LDS  R26,_REDAGAVIMAS
	CPI  R26,LOW(0x0)
	BREQ _0x256
_0x255:
	RJMP _0x254
_0x256:
; 0000 0555       SKAMBUTIS_SKAMBA = 1;}
	LDI  R30,LOW(1)
	STS  _SKAMBUTIS_SKAMBA,R30
; 0000 0556 
; 0000 0557 
; 0000 0558       //VISUAL:
; 0000 0559       if(DB_LAIKO_RODYMAS==1){
_0x254:
	LDS  R26,_DB_LAIKO_RODYMAS
	CPI  R26,LOW(0x1)
	BREQ PC+3
	JMP _0x257
; 0000 055A       //tikras laikas:
; 0000 055B       if(EILUTES_SKAICIUS==0){
	LDS  R30,_EILUTES_SKAICIUS
	CPI  R30,0
	BREQ PC+3
	JMP _0x258
; 0000 055C 
; 0000 055D       viena_sekunde5 = viena_sekunde5 + 1;
	MOVW R30,R12
	ADIW R30,1
	MOVW R12,R30
; 0000 055E       if(viena_sekunde5==1000){
	LDI  R30,LOW(1000)
	LDI  R31,HIGH(1000)
	CP   R30,R12
	CPC  R31,R13
	BRNE _0x259
; 0000 055F       DESIMT_SEKUNDZIU = DESIMT_SEKUNDZIU + 1;
	LDS  R30,_DESIMT_SEKUNDZIU
	SUBI R30,-LOW(1)
	STS  _DESIMT_SEKUNDZIU,R30
; 0000 0560       viena_sekunde5 = 0;}
	CLR  R12
	CLR  R13
; 0000 0561       if(DESIMT_SEKUNDZIU==10){
_0x259:
	LDS  R26,_DESIMT_SEKUNDZIU
	CPI  R26,LOW(0xA)
	BRNE _0x25A
; 0000 0562       DESIMT_SEKUNDZIU = 0;}
	LDI  R30,LOW(0)
	STS  _DESIMT_SEKUNDZIU,R30
; 0000 0563 
; 0000 0564       if(DESIMT_SEKUNDZIU==1){
_0x25A:
	LDS  R26,_DESIMT_SEKUNDZIU
	CPI  R26,LOW(0x1)
	BRNE _0x25B
; 0000 0565       if(OSC==12){
	LDS  R26,_OSC
	CPI  R26,LOW(0xC)
	BRNE _0x25C
; 0000 0566       a = 14;}}
	LDI  R30,LOW(14)
	STS  _a,R30
_0x25C:
; 0000 0567 
; 0000 0568       if(DESIMT_SEKUNDZIU==2){
_0x25B:
	LDS  R26,_DESIMT_SEKUNDZIU
	CPI  R26,LOW(0x2)
	BRNE _0x25D
; 0000 0569       if(OSC==8){
	LDS  R26,_OSC
	CPI  R26,LOW(0x8)
	BRNE _0x25E
; 0000 056A       a = 14;}
	LDI  R30,LOW(14)
	STS  _a,R30
; 0000 056B       if(OSC==12){
_0x25E:
	LDS  R26,_OSC
	CPI  R26,LOW(0xC)
	BRNE _0x25F
; 0000 056C       a = 10;}}
	LDI  R30,LOW(10)
	STS  _a,R30
_0x25F:
; 0000 056D 
; 0000 056E       if(DESIMT_SEKUNDZIU==3){
_0x25D:
	LDS  R26,_DESIMT_SEKUNDZIU
	CPI  R26,LOW(0x3)
	BRNE _0x260
; 0000 056F       if(OSC==4){
	LDS  R26,_OSC
	CPI  R26,LOW(0x4)
	BRNE _0x261
; 0000 0570       a = 14;}
	LDI  R30,LOW(14)
	STS  _a,R30
; 0000 0571       if(OSC==8){
_0x261:
	LDS  R26,_OSC
	CPI  R26,LOW(0x8)
	BRNE _0x262
; 0000 0572       a = 10;}
	LDI  R30,LOW(10)
	STS  _a,R30
; 0000 0573       if(OSC==12){
_0x262:
	LDS  R26,_OSC
	CPI  R26,LOW(0xC)
	BRNE _0x263
; 0000 0574       a = 11;}}
	LDI  R30,LOW(11)
	STS  _a,R30
_0x263:
; 0000 0575 
; 0000 0576       if(DESIMT_SEKUNDZIU==4){
_0x260:
	LDS  R26,_DESIMT_SEKUNDZIU
	CPI  R26,LOW(0x4)
	BRNE _0x264
; 0000 0577       if(OSC==0){
	LDS  R30,_OSC
	CPI  R30,0
	BRNE _0x265
; 0000 0578       a = 14;}
	LDI  R30,LOW(14)
	STS  _a,R30
; 0000 0579       if(OSC==4){
_0x265:
	LDS  R26,_OSC
	CPI  R26,LOW(0x4)
	BRNE _0x266
; 0000 057A       a = 10;}
	LDI  R30,LOW(10)
	STS  _a,R30
; 0000 057B       if(OSC==8){
_0x266:
	LDS  R26,_OSC
	CPI  R26,LOW(0x8)
	BRNE _0x267
; 0000 057C       a = 11;}
	LDI  R30,LOW(11)
	STS  _a,R30
; 0000 057D       if(OSC==12){
_0x267:
	LDS  R26,_OSC
	CPI  R26,LOW(0xC)
	BRNE _0x268
; 0000 057E       a = 10;}}
	LDI  R30,LOW(10)
	STS  _a,R30
_0x268:
; 0000 057F 
; 0000 0580       if(DESIMT_SEKUNDZIU==5){
_0x264:
	LDS  R26,_DESIMT_SEKUNDZIU
	CPI  R26,LOW(0x5)
	BRNE _0x269
; 0000 0581       if(OSC==0){
	LDS  R30,_OSC
	CPI  R30,0
	BRNE _0x26A
; 0000 0582       a = 10;}
	LDI  R30,LOW(10)
	STS  _a,R30
; 0000 0583       if(OSC==4){
_0x26A:
	LDS  R26,_OSC
	CPI  R26,LOW(0x4)
	BRNE _0x26B
; 0000 0584       a = 11;}
	LDI  R30,LOW(11)
	STS  _a,R30
; 0000 0585       if(OSC==8){
_0x26B:
	LDS  R26,_OSC
	CPI  R26,LOW(0x8)
	BRNE _0x26C
; 0000 0586       a = 10;}
	LDI  R30,LOW(10)
	STS  _a,R30
; 0000 0587       if(OSC==12){
_0x26C:
	LDS  R26,_OSC
	CPI  R26,LOW(0xC)
	BRNE _0x26D
; 0000 0588       a = 30;}}
	LDI  R30,LOW(30)
	STS  _a,R30
_0x26D:
; 0000 0589 
; 0000 058A       if(DESIMT_SEKUNDZIU==6){
_0x269:
	LDS  R26,_DESIMT_SEKUNDZIU
	CPI  R26,LOW(0x6)
	BRNE _0x26E
; 0000 058B       if(OSC==0){
	LDS  R30,_OSC
	CPI  R30,0
	BRNE _0x26F
; 0000 058C       a = 11;}
	LDI  R30,LOW(11)
	STS  _a,R30
; 0000 058D       if(OSC==4){
_0x26F:
	LDS  R26,_OSC
	CPI  R26,LOW(0x4)
	BRNE _0x270
; 0000 058E       a = 10;}
	LDI  R30,LOW(10)
	STS  _a,R30
; 0000 058F       if(OSC==8){
_0x270:
	LDS  R26,_OSC
	CPI  R26,LOW(0x8)
	BRNE _0x271
; 0000 0590       a = 30;}}
	LDI  R30,LOW(30)
	STS  _a,R30
_0x271:
; 0000 0591 
; 0000 0592       if(DESIMT_SEKUNDZIU==7){
_0x26E:
	LDS  R26,_DESIMT_SEKUNDZIU
	CPI  R26,LOW(0x7)
	BRNE _0x272
; 0000 0593       if(OSC==0){
	LDS  R30,_OSC
	CPI  R30,0
	BRNE _0x273
; 0000 0594       a = 10;}
	LDI  R30,LOW(10)
	STS  _a,R30
; 0000 0595       if(OSC==4){
_0x273:
	LDS  R26,_OSC
	CPI  R26,LOW(0x4)
	BRNE _0x274
; 0000 0596       a = 30;}}
	LDI  R30,LOW(30)
	STS  _a,R30
_0x274:
; 0000 0597 
; 0000 0598       if(DESIMT_SEKUNDZIU==8){
_0x272:
	LDS  R26,_DESIMT_SEKUNDZIU
	CPI  R26,LOW(0x8)
	BRNE _0x275
; 0000 0599       if(OSC==0){
	LDS  R30,_OSC
	CPI  R30,0
	BRNE _0x276
; 0000 059A       a = 30;}}
	LDI  R30,LOW(30)
	STS  _a,R30
_0x276:
; 0000 059B 
; 0000 059C       if(OSC==16){
_0x275:
	LDS  R26,_OSC
	CPI  R26,LOW(0x10)
	BRNE _0x277
; 0000 059D       a = desimtys_valandos;}
	LDS  R30,_desimtys_valandos
	STS  _a,R30
; 0000 059E       if(OSC==20){
_0x277:
	LDS  R26,_OSC
	CPI  R26,LOW(0x14)
	BRNE _0x278
; 0000 059F       a = valandos;
	LDS  R30,_valandos
	RCALL SUBOPT_0x29
; 0000 05A0       segm_h = 1;}
; 0000 05A1       if(OSC==24){
_0x278:
	LDS  R26,_OSC
	CPI  R26,LOW(0x18)
	BRNE _0x279
; 0000 05A2       a = desimtys_minutes;}
	LDS  R30,_desimtys_minutes
	STS  _a,R30
; 0000 05A3       if(OSC==28){
_0x279:
	LDS  R26,_OSC
	CPI  R26,LOW(0x1C)
	BRNE _0x27A
; 0000 05A4       a = minutes;}
	LDS  R30,_minutes
	STS  _a,R30
; 0000 05A5 
; 0000 05A6       if((PINC.0==1)&&(OSC==12)){
_0x27A:
	SBIS 0x13,0
	RJMP _0x27C
	LDS  R26,_OSC
	CPI  R26,LOW(0xC)
	BREQ _0x27D
_0x27C:
	RJMP _0x27B
_0x27D:
; 0000 05A7       segm_h = 1;}}}
	LDI  R30,LOW(1)
	STS  _segm_h,R30
_0x27B:
_0x258:
; 0000 05A8       //skambucio laikas:
; 0000 05A9       if(EILUTES_SKAICIUS!=0){
_0x257:
	LDS  R30,_EILUTES_SKAICIUS
	CPI  R30,0
	BREQ _0x27E
; 0000 05AA       viena_sekunde5 = 0;
	CLR  R12
	CLR  R13
; 0000 05AB       if(OSC==0){
	LDS  R30,_OSC
	CPI  R30,0
	BRNE _0x27F
; 0000 05AC       a = 25;}
	LDI  R30,LOW(25)
	STS  _a,R30
; 0000 05AD       if(OSC==4){
_0x27F:
	LDS  R26,_OSC
	CPI  R26,LOW(0x4)
	BRNE _0x280
; 0000 05AE       a = 26;
	LDI  R30,LOW(26)
	RCALL SUBOPT_0x29
; 0000 05AF       segm_h = 1;}
; 0000 05B0       if(OSC==8){
_0x280:
	LDS  R26,_OSC
	CPI  R26,LOW(0x8)
	BRNE _0x281
; 0000 05B1       a = d;}
	LDS  R30,_d
	STS  _a,R30
; 0000 05B2       if(OSC==12){
_0x281:
	LDS  R26,_OSC
	CPI  R26,LOW(0xC)
	BRNE _0x282
; 0000 05B3       a = e;
	LDS  R30,_e
	RCALL SUBOPT_0x29
; 0000 05B4       segm_h = 1;}
; 0000 05B5       if(OSC==16){
_0x282:
	LDS  R26,_OSC
	CPI  R26,LOW(0x10)
	BRNE _0x283
; 0000 05B6       a = x;}
	LDS  R30,_x
	STS  _a,R30
; 0000 05B7       if(OSC==20){
_0x283:
	LDS  R26,_OSC
	CPI  R26,LOW(0x14)
	BRNE _0x284
; 0000 05B8       a = y;
	LDS  R30,_y
	RCALL SUBOPT_0x29
; 0000 05B9       segm_h = 1;}
; 0000 05BA       if(OSC==24){
_0x284:
	LDS  R26,_OSC
	CPI  R26,LOW(0x18)
	BRNE _0x285
; 0000 05BB       a = z;}
	LDS  R30,_z
	STS  _a,R30
; 0000 05BC       if(OSC==28){
_0x285:
	LDS  R26,_OSC
	CPI  R26,LOW(0x1C)
	BRNE _0x286
; 0000 05BD       a = k;}}
	LDS  R30,_k
	STS  _a,R30
_0x286:
; 0000 05BE 
; 0000 05BF 
; 0000 05C0       //BLYKCIOJIMAS:
; 0000 05C1       viena_sekunde1 = viena_sekunde1 + 1;
_0x27E:
	MOVW R30,R4
	ADIW R30,1
	MOVW R4,R30
; 0000 05C2       if((viena_sekunde1==1000)&&(BLYKCIOTI==0)){
	LDI  R30,LOW(1000)
	LDI  R31,HIGH(1000)
	CP   R30,R4
	CPC  R31,R5
	BRNE _0x288
	LDS  R26,_BLYKCIOTI
	CPI  R26,LOW(0x0)
	BREQ _0x289
_0x288:
	RJMP _0x287
_0x289:
; 0000 05C3       BLYKCIOTI = 1;
	LDI  R30,LOW(1)
	STS  _BLYKCIOTI,R30
; 0000 05C4       viena_sekunde1 = 0;}
	CLR  R4
	CLR  R5
; 0000 05C5       if((viena_sekunde1==1000)&&(BLYKCIOTI==1)){
_0x287:
	LDI  R30,LOW(1000)
	LDI  R31,HIGH(1000)
	CP   R30,R4
	CPC  R31,R5
	BRNE _0x28B
	LDS  R26,_BLYKCIOTI
	CPI  R26,LOW(0x1)
	BREQ _0x28C
_0x28B:
	RJMP _0x28A
_0x28C:
; 0000 05C6       BLYKCIOTI = 0;
	LDI  R30,LOW(0)
	STS  _BLYKCIOTI,R30
; 0000 05C7       viena_sekunde1 = 0;}
	CLR  R4
	CLR  R5
; 0000 05C8 
; 0000 05C9 
; 0000 05CA 
; 0000 05CB       if((REDAGAVIMAS==1)&&(REDAG_SK_NR==0)&&(BLYKCIOTI==1)){
_0x28A:
	LDS  R26,_REDAGAVIMAS
	CPI  R26,LOW(0x1)
	BRNE _0x28E
	LDS  R26,_REDAG_SK_NR
	CPI  R26,LOW(0x0)
	BRNE _0x28E
	LDS  R26,_BLYKCIOTI
	CPI  R26,LOW(0x1)
	BREQ _0x28F
_0x28E:
	RJMP _0x28D
_0x28F:
; 0000 05CC       if(OSC==16){
	LDS  R26,_OSC
	CPI  R26,LOW(0x10)
	BRNE _0x290
; 0000 05CD       a = 33;}}
	LDI  R30,LOW(33)
	STS  _a,R30
_0x290:
; 0000 05CE       if((REDAGAVIMAS==1)&&(REDAG_SK_NR==1)&&(BLYKCIOTI==1)){
_0x28D:
	LDS  R26,_REDAGAVIMAS
	CPI  R26,LOW(0x1)
	BRNE _0x292
	LDS  R26,_REDAG_SK_NR
	CPI  R26,LOW(0x1)
	BRNE _0x292
	LDS  R26,_BLYKCIOTI
	CPI  R26,LOW(0x1)
	BREQ _0x293
_0x292:
	RJMP _0x291
_0x293:
; 0000 05CF       if(OSC==20){
	LDS  R26,_OSC
	CPI  R26,LOW(0x14)
	BRNE _0x294
; 0000 05D0       a = 33;}}
	LDI  R30,LOW(33)
	STS  _a,R30
_0x294:
; 0000 05D1       if((REDAGAVIMAS==1)&&(REDAG_SK_NR==2)&&(BLYKCIOTI==1)){
_0x291:
	LDS  R26,_REDAGAVIMAS
	CPI  R26,LOW(0x1)
	BRNE _0x296
	LDS  R26,_REDAG_SK_NR
	CPI  R26,LOW(0x2)
	BRNE _0x296
	LDS  R26,_BLYKCIOTI
	CPI  R26,LOW(0x1)
	BREQ _0x297
_0x296:
	RJMP _0x295
_0x297:
; 0000 05D2       if(OSC==24){
	LDS  R26,_OSC
	CPI  R26,LOW(0x18)
	BRNE _0x298
; 0000 05D3       a = 33;}}
	LDI  R30,LOW(33)
	STS  _a,R30
_0x298:
; 0000 05D4       if((REDAGAVIMAS==1)&&(REDAG_SK_NR==3)&&(BLYKCIOTI==1)){
_0x295:
	LDS  R26,_REDAGAVIMAS
	CPI  R26,LOW(0x1)
	BRNE _0x29A
	LDS  R26,_REDAG_SK_NR
	CPI  R26,LOW(0x3)
	BRNE _0x29A
	LDS  R26,_BLYKCIOTI
	CPI  R26,LOW(0x1)
	BREQ _0x29B
_0x29A:
	RJMP _0x299
_0x29B:
; 0000 05D5       if(OSC==28){
	LDS  R26,_OSC
	CPI  R26,LOW(0x1C)
	BRNE _0x29C
; 0000 05D6       a = 33;}}}
	LDI  R30,LOW(33)
	STS  _a,R30
_0x29C:
_0x299:
; 0000 05D7 
; 0000 05D8       //KAI UZRAKINTA SVIESTI TASKELI
; 0000 05D9       if(UZRAKINTA==1){
_0x3D:
	LDS  R26,_UZRAKINTA
	CPI  R26,LOW(0x1)
	BRNE _0x29D
; 0000 05DA       if(OSC==28){
	LDS  R26,_OSC
	CPI  R26,LOW(0x1C)
	BRNE _0x29E
; 0000 05DB       segm_h = 1;}}
	LDI  R30,LOW(1)
	STS  _segm_h,R30
_0x29E:
; 0000 05DC 
; 0000 05DD       //SKAICIAI IR RAIDES:
; 0000 05DE       // a==10 (A)
; 0000 05DF       // a==11 (b)
; 0000 05E0       // a==12 (c)
; 0000 05E1       // a==13 (C)
; 0000 05E2       // a==14 (d)
; 0000 05E3       // a==15 (E)
; 0000 05E4       // a==16 (F)
; 0000 05E5       // a==17 (H)
; 0000 05E6       // a==18 (h)
; 0000 05E7       // a==19 (I)
; 0000 05E8       // a==20 (i)
; 0000 05E9       // a==21 (J)
; 0000 05EA       // a==22 (L)
; 0000 05EB       // a==23 (o)
; 0000 05EC       // a==24 (P)
; 0000 05ED       // a==25 (S)
; 0000 05EE       // a==26 (t)
; 0000 05EF       // a==27 (u)
; 0000 05F0       // a==28 (U)
; 0000 05F1       // a==29 (Z)
; 0000 05F2       // a==30 (r)
; 0000 05F3       // a==31 (_)
; 0000 05F4       // a==32 (-)
; 0000 05F5       // a==33 ( )
; 0000 05F6       // a==34 (n)
; 0000 05F7       if(a == 0){
_0x29D:
	LDS  R30,_a
	CPI  R30,0
	BRNE _0x29F
; 0000 05F8       segm_a = 1;
	RCALL SUBOPT_0x2A
; 0000 05F9       segm_b = 1;
; 0000 05FA       segm_c = 1;
	RCALL SUBOPT_0x2B
; 0000 05FB       segm_d = 1;
; 0000 05FC       segm_e = 1;
	RCALL SUBOPT_0x2C
; 0000 05FD       segm_f = 1;
; 0000 05FE       segm_g = 0;}
	LDI  R30,LOW(0)
	STS  _segm_g,R30
; 0000 05FF       if(a == 1){
_0x29F:
	LDS  R26,_a
	CPI  R26,LOW(0x1)
	BRNE _0x2A0
; 0000 0600       segm_a = 0;
	RCALL SUBOPT_0x2D
; 0000 0601       segm_b = 1;
; 0000 0602       segm_c = 1;
; 0000 0603       segm_d = 0;
; 0000 0604       segm_e = 0;
; 0000 0605       segm_f = 0;
	RCALL SUBOPT_0x2E
; 0000 0606       segm_g = 0;}
; 0000 0607       if(a == 2){
_0x2A0:
	LDS  R26,_a
	CPI  R26,LOW(0x2)
	BRNE _0x2A1
; 0000 0608       segm_a = 1;
	RCALL SUBOPT_0x2A
; 0000 0609       segm_b = 1;
; 0000 060A       segm_c = 0;
	RCALL SUBOPT_0x2F
; 0000 060B       segm_d = 1;
; 0000 060C       segm_e = 1;
; 0000 060D       segm_f = 0;
; 0000 060E       segm_g = 1;}
; 0000 060F       if(a == 3){
_0x2A1:
	LDS  R26,_a
	CPI  R26,LOW(0x3)
	BRNE _0x2A2
; 0000 0610       segm_a = 1;
	RCALL SUBOPT_0x2A
; 0000 0611       segm_b = 1;
; 0000 0612       segm_c = 1;
	RCALL SUBOPT_0x2B
; 0000 0613       segm_d = 1;
; 0000 0614       segm_e = 0;
	RCALL SUBOPT_0x30
; 0000 0615       segm_f = 0;
; 0000 0616       segm_g = 1;}
; 0000 0617       if(a == 4){
_0x2A2:
	LDS  R26,_a
	CPI  R26,LOW(0x4)
	BRNE _0x2A3
; 0000 0618       segm_a = 0;
	RCALL SUBOPT_0x2D
; 0000 0619       segm_b = 1;
; 0000 061A       segm_c = 1;
; 0000 061B       segm_d = 0;
; 0000 061C       segm_e = 0;
; 0000 061D       segm_f = 1;
	RCALL SUBOPT_0x31
; 0000 061E       segm_g = 1;}
; 0000 061F       if(a == 5){
_0x2A3:
	LDS  R26,_a
	CPI  R26,LOW(0x5)
	BRNE _0x2A4
; 0000 0620       segm_a = 1;
	RCALL SUBOPT_0x32
; 0000 0621       segm_b = 0;
; 0000 0622       segm_c = 1;
; 0000 0623       segm_d = 1;
; 0000 0624       segm_e = 0;
	RCALL SUBOPT_0x33
; 0000 0625       segm_f = 1;
; 0000 0626       segm_g = 1;}
; 0000 0627       if(a == 6){
_0x2A4:
	LDS  R26,_a
	CPI  R26,LOW(0x6)
	BRNE _0x2A5
; 0000 0628       segm_a = 1;
	RCALL SUBOPT_0x32
; 0000 0629       segm_b = 0;
; 0000 062A       segm_c = 1;
; 0000 062B       segm_d = 1;
; 0000 062C       segm_e = 1;
	RCALL SUBOPT_0x2C
; 0000 062D       segm_f = 1;
; 0000 062E       segm_g = 1;}
	LDI  R30,LOW(1)
	STS  _segm_g,R30
; 0000 062F       if(a == 7){
_0x2A5:
	LDS  R26,_a
	CPI  R26,LOW(0x7)
	BRNE _0x2A6
; 0000 0630       segm_a = 1;
	RCALL SUBOPT_0x2A
; 0000 0631       segm_b = 1;
; 0000 0632       segm_c = 1;
	RCALL SUBOPT_0x34
; 0000 0633       segm_d = 0;
; 0000 0634       segm_e = 0;
	RCALL SUBOPT_0x35
; 0000 0635       segm_f = 0;
; 0000 0636       segm_g = 0;}
; 0000 0637       if(a == 8){
_0x2A6:
	LDS  R26,_a
	CPI  R26,LOW(0x8)
	BRNE _0x2A7
; 0000 0638       segm_a = 1;
	RCALL SUBOPT_0x2A
; 0000 0639       segm_b = 1;
; 0000 063A       segm_c = 1;
	RCALL SUBOPT_0x2B
; 0000 063B       segm_d = 1;
; 0000 063C       segm_e = 1;
	RCALL SUBOPT_0x2C
; 0000 063D       segm_f = 1;
; 0000 063E       segm_g = 1;}
	LDI  R30,LOW(1)
	STS  _segm_g,R30
; 0000 063F       if(a == 9){
_0x2A7:
	LDS  R26,_a
	CPI  R26,LOW(0x9)
	BRNE _0x2A8
; 0000 0640       segm_a = 1;
	RCALL SUBOPT_0x2A
; 0000 0641       segm_b = 1;
; 0000 0642       segm_c = 1;
	RCALL SUBOPT_0x2B
; 0000 0643       segm_d = 1;
; 0000 0644       segm_e = 0;
	RCALL SUBOPT_0x33
; 0000 0645       segm_f = 1;
; 0000 0646       segm_g = 1;}
; 0000 0647       if(a ==10){
_0x2A8:
	LDS  R26,_a
	CPI  R26,LOW(0xA)
	BRNE _0x2A9
; 0000 0648       segm_a = 1;
	RCALL SUBOPT_0x2A
; 0000 0649       segm_b = 1;
; 0000 064A       segm_c = 1;
	RCALL SUBOPT_0x34
; 0000 064B       segm_d = 0;
; 0000 064C       segm_e = 1;
	RCALL SUBOPT_0x2C
; 0000 064D       segm_f = 1;
; 0000 064E       segm_g = 1;}
	LDI  R30,LOW(1)
	STS  _segm_g,R30
; 0000 064F       if(a ==11){
_0x2A9:
	LDS  R26,_a
	CPI  R26,LOW(0xB)
	BRNE _0x2AA
; 0000 0650       segm_a = 0;
	RCALL SUBOPT_0x36
; 0000 0651       segm_b = 0;
; 0000 0652       segm_c = 1;
	RCALL SUBOPT_0x2B
; 0000 0653       segm_d = 1;
; 0000 0654       segm_e = 1;
	RCALL SUBOPT_0x2C
; 0000 0655       segm_f = 1;
; 0000 0656       segm_g = 1;}
	LDI  R30,LOW(1)
	STS  _segm_g,R30
; 0000 0657       if(a ==12){
_0x2AA:
	LDS  R26,_a
	CPI  R26,LOW(0xC)
	BRNE _0x2AB
; 0000 0658       segm_a = 0;
	RCALL SUBOPT_0x36
; 0000 0659       segm_b = 0;
; 0000 065A       segm_c = 0;
	RCALL SUBOPT_0x2F
; 0000 065B       segm_d = 1;
; 0000 065C       segm_e = 1;
; 0000 065D       segm_f = 0;
; 0000 065E       segm_g = 1;}
; 0000 065F       if(a ==13){
_0x2AB:
	LDS  R26,_a
	CPI  R26,LOW(0xD)
	BRNE _0x2AC
; 0000 0660       segm_a = 1;
	RCALL SUBOPT_0x37
; 0000 0661       segm_b = 0;
; 0000 0662       segm_c = 0;
; 0000 0663       segm_d = 1;
; 0000 0664       segm_e = 1;
; 0000 0665       segm_f = 1;
; 0000 0666       segm_g = 0;}
	LDI  R30,LOW(0)
	STS  _segm_g,R30
; 0000 0667       if(a ==14){
_0x2AC:
	LDS  R26,_a
	CPI  R26,LOW(0xE)
	BRNE _0x2AD
; 0000 0668       segm_a = 0;
	RCALL SUBOPT_0x38
; 0000 0669       segm_b = 1;
; 0000 066A       segm_c = 1;
	RCALL SUBOPT_0x2B
; 0000 066B       segm_d = 1;
; 0000 066C       segm_e = 1;
	RCALL SUBOPT_0x39
; 0000 066D       segm_f = 0;
; 0000 066E       segm_g = 1;}
; 0000 066F       if(a ==15){
_0x2AD:
	LDS  R26,_a
	CPI  R26,LOW(0xF)
	BRNE _0x2AE
; 0000 0670       segm_a = 1;
	RCALL SUBOPT_0x37
; 0000 0671       segm_b = 0;
; 0000 0672       segm_c = 0;
; 0000 0673       segm_d = 1;
; 0000 0674       segm_e = 1;
; 0000 0675       segm_f = 1;
; 0000 0676       segm_g = 1;}
	LDI  R30,LOW(1)
	STS  _segm_g,R30
; 0000 0677       if(a ==16){
_0x2AE:
	LDS  R26,_a
	CPI  R26,LOW(0x10)
	BRNE _0x2AF
; 0000 0678       segm_a = 1;
	LDI  R30,LOW(1)
	STS  _segm_a,R30
; 0000 0679       segm_b = 0;
	LDI  R30,LOW(0)
	STS  _segm_b,R30
; 0000 067A       segm_c = 0;
	RCALL SUBOPT_0x3A
; 0000 067B       segm_d = 0;
; 0000 067C       segm_e = 1;
; 0000 067D       segm_f = 1;
; 0000 067E       segm_g = 1;}
	LDI  R30,LOW(1)
	STS  _segm_g,R30
; 0000 067F       if(a ==17){
_0x2AF:
	LDS  R26,_a
	CPI  R26,LOW(0x11)
	BRNE _0x2B0
; 0000 0680       segm_a = 0;
	RCALL SUBOPT_0x38
; 0000 0681       segm_b = 1;
; 0000 0682       segm_c = 1;
	RCALL SUBOPT_0x34
; 0000 0683       segm_d = 0;
; 0000 0684       segm_e = 1;
	RCALL SUBOPT_0x2C
; 0000 0685       segm_f = 1;
; 0000 0686       segm_g = 1;}
	LDI  R30,LOW(1)
	STS  _segm_g,R30
; 0000 0687       if(a ==18){
_0x2B0:
	LDS  R26,_a
	CPI  R26,LOW(0x12)
	BRNE _0x2B1
; 0000 0688       segm_a = 0;
	RCALL SUBOPT_0x36
; 0000 0689       segm_b = 0;
; 0000 068A       segm_c = 1;
	RCALL SUBOPT_0x34
; 0000 068B       segm_d = 0;
; 0000 068C       segm_e = 1;
	RCALL SUBOPT_0x2C
; 0000 068D       segm_f = 1;
; 0000 068E       segm_g = 1;}
	LDI  R30,LOW(1)
	STS  _segm_g,R30
; 0000 068F       if(a ==19){
_0x2B1:
	LDS  R26,_a
	CPI  R26,LOW(0x13)
	BRNE _0x2B2
; 0000 0690       segm_a = 0;
	RCALL SUBOPT_0x2D
; 0000 0691       segm_b = 1;
; 0000 0692       segm_c = 1;
; 0000 0693       segm_d = 0;
; 0000 0694       segm_e = 0;
; 0000 0695       segm_f = 0;
	RCALL SUBOPT_0x2E
; 0000 0696       segm_g = 0;}
; 0000 0697       if(a ==20){
_0x2B2:
	LDS  R26,_a
	CPI  R26,LOW(0x14)
	BRNE _0x2B3
; 0000 0698       segm_a = 0;
	RCALL SUBOPT_0x36
; 0000 0699       segm_b = 0;
; 0000 069A       segm_c = 1;
	RCALL SUBOPT_0x34
; 0000 069B       segm_d = 0;
; 0000 069C       segm_e = 0;
	RCALL SUBOPT_0x35
; 0000 069D       segm_f = 0;
; 0000 069E       segm_g = 0;}
; 0000 069F       if(a ==21){
_0x2B3:
	LDS  R26,_a
	CPI  R26,LOW(0x15)
	BRNE _0x2B4
; 0000 06A0       segm_a = 0;
	RCALL SUBOPT_0x38
; 0000 06A1       segm_b = 1;
; 0000 06A2       segm_c = 1;
	RCALL SUBOPT_0x2B
; 0000 06A3       segm_d = 1;
; 0000 06A4       segm_e = 0;
	RCALL SUBOPT_0x35
; 0000 06A5       segm_f = 0;
; 0000 06A6       segm_g = 0;}
; 0000 06A7       if(a ==22){
_0x2B4:
	LDS  R26,_a
	CPI  R26,LOW(0x16)
	BRNE _0x2B5
; 0000 06A8       segm_a = 0;
	RCALL SUBOPT_0x36
; 0000 06A9       segm_b = 0;
; 0000 06AA       segm_c = 0;
	RCALL SUBOPT_0x3B
; 0000 06AB       segm_d = 1;
; 0000 06AC       segm_e = 1;
; 0000 06AD       segm_f = 1;
; 0000 06AE       segm_g = 0;}
	LDI  R30,LOW(0)
	STS  _segm_g,R30
; 0000 06AF       if(a ==23){
_0x2B5:
	LDS  R26,_a
	CPI  R26,LOW(0x17)
	BRNE _0x2B6
; 0000 06B0       segm_a = 0;
	RCALL SUBOPT_0x36
; 0000 06B1       segm_b = 0;
; 0000 06B2       segm_c = 1;
	RCALL SUBOPT_0x2B
; 0000 06B3       segm_d = 1;
; 0000 06B4       segm_e = 1;
	RCALL SUBOPT_0x39
; 0000 06B5       segm_f = 0;
; 0000 06B6       segm_g = 1;}
; 0000 06B7       if(a ==24){
_0x2B6:
	LDS  R26,_a
	CPI  R26,LOW(0x18)
	BRNE _0x2B7
; 0000 06B8       segm_a = 1;
	RCALL SUBOPT_0x2A
; 0000 06B9       segm_b = 1;
; 0000 06BA       segm_c = 0;
	RCALL SUBOPT_0x3A
; 0000 06BB       segm_d = 0;
; 0000 06BC       segm_e = 1;
; 0000 06BD       segm_f = 1;
; 0000 06BE       segm_g = 1;}
	LDI  R30,LOW(1)
	STS  _segm_g,R30
; 0000 06BF       if(a ==25){
_0x2B7:
	LDS  R26,_a
	CPI  R26,LOW(0x19)
	BRNE _0x2B8
; 0000 06C0       segm_a = 1;
	RCALL SUBOPT_0x32
; 0000 06C1       segm_b = 0;
; 0000 06C2       segm_c = 1;
; 0000 06C3       segm_d = 1;
; 0000 06C4       segm_e = 0;
	RCALL SUBOPT_0x33
; 0000 06C5       segm_f = 1;
; 0000 06C6       segm_g = 1;}
; 0000 06C7       if(a ==26){
_0x2B8:
	LDS  R26,_a
	CPI  R26,LOW(0x1A)
	BRNE _0x2B9
; 0000 06C8       segm_a = 0;
	RCALL SUBOPT_0x36
; 0000 06C9       segm_b = 0;
; 0000 06CA       segm_c = 0;
	RCALL SUBOPT_0x3B
; 0000 06CB       segm_d = 1;
; 0000 06CC       segm_e = 1;
; 0000 06CD       segm_f = 1;
; 0000 06CE       segm_g = 1;}
	LDI  R30,LOW(1)
	STS  _segm_g,R30
; 0000 06CF       if(a ==27){
_0x2B9:
	LDS  R26,_a
	CPI  R26,LOW(0x1B)
	BRNE _0x2BA
; 0000 06D0       segm_a = 0;
	RCALL SUBOPT_0x36
; 0000 06D1       segm_b = 0;
; 0000 06D2       segm_c = 1;
	RCALL SUBOPT_0x2B
; 0000 06D3       segm_d = 1;
; 0000 06D4       segm_e = 1;
	RCALL SUBOPT_0x2C
; 0000 06D5       segm_f = 1;
; 0000 06D6       segm_g = 0;}
	LDI  R30,LOW(0)
	STS  _segm_g,R30
; 0000 06D7       if(a ==28){
_0x2BA:
	LDS  R26,_a
	CPI  R26,LOW(0x1C)
	BRNE _0x2BB
; 0000 06D8       segm_a = 0;
	RCALL SUBOPT_0x38
; 0000 06D9       segm_b = 1;
; 0000 06DA       segm_c = 1;
	RCALL SUBOPT_0x2B
; 0000 06DB       segm_d = 1;
; 0000 06DC       segm_e = 1;
	RCALL SUBOPT_0x2C
; 0000 06DD       segm_f = 1;
; 0000 06DE       segm_g = 0;}
	LDI  R30,LOW(0)
	STS  _segm_g,R30
; 0000 06DF       if(a ==29){
_0x2BB:
	LDS  R26,_a
	CPI  R26,LOW(0x1D)
	BRNE _0x2BC
; 0000 06E0       segm_a = 1;
	RCALL SUBOPT_0x2A
; 0000 06E1       segm_b = 1;
; 0000 06E2       segm_c = 0;
	RCALL SUBOPT_0x2F
; 0000 06E3       segm_d = 1;
; 0000 06E4       segm_e = 1;
; 0000 06E5       segm_f = 0;
; 0000 06E6       segm_g = 1;}
; 0000 06E7       if(a ==30){
_0x2BC:
	LDS  R26,_a
	CPI  R26,LOW(0x1E)
	BRNE _0x2BD
; 0000 06E8       segm_a = 0;
	RCALL SUBOPT_0x36
; 0000 06E9       segm_b = 0;
; 0000 06EA       segm_c = 0;
	RCALL SUBOPT_0x3C
; 0000 06EB       segm_d = 0;
; 0000 06EC       segm_e = 1;
	RCALL SUBOPT_0x39
; 0000 06ED       segm_f = 0;
; 0000 06EE       segm_g = 1;}
; 0000 06EF       if(a ==31){
_0x2BD:
	LDS  R26,_a
	CPI  R26,LOW(0x1F)
	BRNE _0x2BE
; 0000 06F0       segm_a = 0;
	RCALL SUBOPT_0x36
; 0000 06F1       segm_b = 0;
; 0000 06F2       segm_c = 0;
	LDI  R30,LOW(0)
	STS  _segm_c,R30
; 0000 06F3       segm_d = 1;
	LDI  R30,LOW(1)
	STS  _segm_d,R30
; 0000 06F4       segm_e = 0;
	RCALL SUBOPT_0x35
; 0000 06F5       segm_f = 0;
; 0000 06F6       segm_g = 0;}
; 0000 06F7       if(a ==32){
_0x2BE:
	LDS  R26,_a
	CPI  R26,LOW(0x20)
	BRNE _0x2BF
; 0000 06F8       segm_a = 0;
	RCALL SUBOPT_0x36
; 0000 06F9       segm_b = 0;
; 0000 06FA       segm_c = 0;
	RCALL SUBOPT_0x3C
; 0000 06FB       segm_d = 0;
; 0000 06FC       segm_e = 0;
	RCALL SUBOPT_0x30
; 0000 06FD       segm_f = 0;
; 0000 06FE       segm_g = 1;}
; 0000 06FF       if(a ==33){
_0x2BF:
	LDS  R26,_a
	CPI  R26,LOW(0x21)
	BRNE _0x2C0
; 0000 0700       segm_a = 0;
	RCALL SUBOPT_0x36
; 0000 0701       segm_b = 0;
; 0000 0702       segm_c = 0;
	RCALL SUBOPT_0x3C
; 0000 0703       segm_d = 0;
; 0000 0704       segm_e = 0;
	RCALL SUBOPT_0x35
; 0000 0705       segm_f = 0;
; 0000 0706       segm_g = 0;}
; 0000 0707       if(a ==34){
_0x2C0:
	LDS  R26,_a
	CPI  R26,LOW(0x22)
	BRNE _0x2C1
; 0000 0708       segm_a = 0;
	RCALL SUBOPT_0x36
; 0000 0709       segm_b = 0;
; 0000 070A       segm_c = 1;
	RCALL SUBOPT_0x34
; 0000 070B       segm_d = 0;
; 0000 070C       segm_e = 1;
	RCALL SUBOPT_0x39
; 0000 070D       segm_f = 0;
; 0000 070E       segm_g = 1;}
; 0000 070F 
; 0000 0710 
; 0000 0711       //            ISEJIMAI:
; 0000 0712       // RELES:
; 0000 0713       {if((SKAMBUTIS_SKAMBA==1)&&(KELINTADIENIS<=5)){
_0x2C1:
	LDS  R26,_SKAMBUTIS_SKAMBA
	CPI  R26,LOW(0x1)
	BRNE _0x2C3
	LDS  R26,_KELINTADIENIS
	CPI  R26,LOW(0x6)
	BRLO _0x2C4
_0x2C3:
	RJMP _0x2C2
_0x2C4:
; 0000 0714       PORTC.1 = 1;}
	SBI  0x15,1
; 0000 0715       else
	RJMP _0x2C7
_0x2C2:
; 0000 0716       PORTC.1 = 0;}
	CBI  0x15,1
_0x2C7:
; 0000 0717 
; 0000 0718       {if(ISKROVIMAS==1){
	LDS  R26,_ISKROVIMAS
	CPI  R26,LOW(0x1)
	BRNE _0x2CA
; 0000 0719       PORTA.3 = 1;}
	SBI  0x1B,3
; 0000 071A       else
	RJMP _0x2CD
_0x2CA:
; 0000 071B       PORTA.3 = 0;}
	CBI  0x1B,3
_0x2CD:
; 0000 071C 
; 0000 071D       {if(KROVIMAS==1){
	LDS  R26,_KROVIMAS
	CPI  R26,LOW(0x1)
	BRNE _0x2D0
; 0000 071E       PORTA.4 = 1;}
	SBI  0x1B,4
; 0000 071F       else
	RJMP _0x2D3
_0x2D0:
; 0000 0720       PORTA.4 = 0;}
	CBI  0x1B,4
_0x2D3:
; 0000 0721 
; 0000 0722       //SEGMENTU
; 0000 0723       {if(segm_a==1){
	LDS  R26,_segm_a
	CPI  R26,LOW(0x1)
	BRNE _0x2D6
; 0000 0724       PORTD.5 = 0;}
	CBI  0x12,5
; 0000 0725       else
	RJMP _0x2D9
_0x2D6:
; 0000 0726       PORTD.5 = 1;}
	SBI  0x12,5
_0x2D9:
; 0000 0727       {if(segm_b==1){
	LDS  R26,_segm_b
	CPI  R26,LOW(0x1)
	BRNE _0x2DC
; 0000 0728       PORTD.2 = 0;}
	CBI  0x12,2
; 0000 0729       else
	RJMP _0x2DF
_0x2DC:
; 0000 072A       PORTD.2 = 1;}
	SBI  0x12,2
_0x2DF:
; 0000 072B       {if(segm_c==1){
	LDS  R26,_segm_c
	CPI  R26,LOW(0x1)
	BRNE _0x2E2
; 0000 072C       PORTD.1 = 0;}
	CBI  0x12,1
; 0000 072D       else
	RJMP _0x2E5
_0x2E2:
; 0000 072E       PORTD.1 = 1;}
	SBI  0x12,1
_0x2E5:
; 0000 072F       {if(segm_d==1){
	LDS  R26,_segm_d
	CPI  R26,LOW(0x1)
	BRNE _0x2E8
; 0000 0730       PORTD.3 = 0;}
	CBI  0x12,3
; 0000 0731       else
	RJMP _0x2EB
_0x2E8:
; 0000 0732       PORTD.3 = 1;}
	SBI  0x12,3
_0x2EB:
; 0000 0733       {if(segm_e==1){
	LDS  R26,_segm_e
	CPI  R26,LOW(0x1)
	BRNE _0x2EE
; 0000 0734       PORTD.0 = 0;}
	CBI  0x12,0
; 0000 0735       else
	RJMP _0x2F1
_0x2EE:
; 0000 0736       PORTD.0 = 1;}
	SBI  0x12,0
_0x2F1:
; 0000 0737       {if(segm_f==1){
	LDS  R26,_segm_f
	CPI  R26,LOW(0x1)
	BRNE _0x2F4
; 0000 0738       PORTD.7 = 0;}
	CBI  0x12,7
; 0000 0739       else
	RJMP _0x2F7
_0x2F4:
; 0000 073A       PORTD.7 = 1;}
	SBI  0x12,7
_0x2F7:
; 0000 073B       {if(segm_g==1){
	LDS  R26,_segm_g
	CPI  R26,LOW(0x1)
	BRNE _0x2FA
; 0000 073C       PORTD.6 = 0;}
	CBI  0x12,6
; 0000 073D       else
	RJMP _0x2FD
_0x2FA:
; 0000 073E       PORTD.6 = 1;}
	SBI  0x12,6
_0x2FD:
; 0000 073F       {if(segm_h==1){
	LDS  R26,_segm_h
	CPI  R26,LOW(0x1)
	BRNE _0x300
; 0000 0740       PORTD.4 = 0;}
	CBI  0x12,4
; 0000 0741       else
	RJMP _0x303
_0x300:
; 0000 0742       PORTD.4 = 1;}
	SBI  0x12,4
_0x303:
; 0000 0743 
; 0000 0744       //SKAICIU:
; 0000 0745       {if(OSC==0){
	LDS  R30,_OSC
	CPI  R30,0
	BRNE _0x306
; 0000 0746       PORTB.3 = 1;}
	SBI  0x18,3
; 0000 0747       else              // SKAICIUS NR.0
	RJMP _0x309
_0x306:
; 0000 0748       PORTB.3 = 0;}
	CBI  0x18,3
_0x309:
; 0000 0749 
; 0000 074A       {if(OSC==4){
	LDS  R26,_OSC
	CPI  R26,LOW(0x4)
	BRNE _0x30C
; 0000 074B       PORTB.5 = 1;}
	SBI  0x18,5
; 0000 074C       else              // SKAICIUS NR.1
	RJMP _0x30F
_0x30C:
; 0000 074D       PORTB.5 = 0;}
	CBI  0x18,5
_0x30F:
; 0000 074E 
; 0000 074F       {if(OSC==8){
	LDS  R26,_OSC
	CPI  R26,LOW(0x8)
	BRNE _0x312
; 0000 0750       PORTB.2 = 1;}
	SBI  0x18,2
; 0000 0751       else              // SKAICIUS NR.2
	RJMP _0x315
_0x312:
; 0000 0752       PORTB.2 = 0;}
	CBI  0x18,2
_0x315:
; 0000 0753 
; 0000 0754       {if(OSC==12){
	LDS  R26,_OSC
	CPI  R26,LOW(0xC)
	BRNE _0x318
; 0000 0755       PORTB.0 = 1;}
	SBI  0x18,0
; 0000 0756       else              // SKAICIUS NR.3
	RJMP _0x31B
_0x318:
; 0000 0757       PORTB.0 = 0;}
	CBI  0x18,0
_0x31B:
; 0000 0758 
; 0000 0759       {if(OSC==16){
	LDS  R26,_OSC
	CPI  R26,LOW(0x10)
	BRNE _0x31E
; 0000 075A       PORTB.1 = 1;}
	SBI  0x18,1
; 0000 075B       else              // SKAICIUS NR.4
	RJMP _0x321
_0x31E:
; 0000 075C       PORTB.1 = 0;}
	CBI  0x18,1
_0x321:
; 0000 075D 
; 0000 075E       {if(OSC==20){
	LDS  R26,_OSC
	CPI  R26,LOW(0x14)
	BRNE _0x324
; 0000 075F       PORTB.6 = 1;}
	SBI  0x18,6
; 0000 0760       else              // SKAICIUS NR.5
	RJMP _0x327
_0x324:
; 0000 0761       PORTB.6 = 0;}
	CBI  0x18,6
_0x327:
; 0000 0762 
; 0000 0763       {if(OSC==24){
	LDS  R26,_OSC
	CPI  R26,LOW(0x18)
	BRNE _0x32A
; 0000 0764       PORTB.7 = 1;}
	SBI  0x18,7
; 0000 0765       else              // SKAICIUS NR.6
	RJMP _0x32D
_0x32A:
; 0000 0766       PORTB.7 = 0;}
	CBI  0x18,7
_0x32D:
; 0000 0767 
; 0000 0768       {if(OSC==28){
	LDS  R26,_OSC
	CPI  R26,LOW(0x1C)
	BRNE _0x330
; 0000 0769       PORTB.4 = 1;}
	SBI  0x18,4
; 0000 076A       else              // SKAICIUS NR.7
	RJMP _0x333
_0x330:
; 0000 076B       PORTB.4 = 0;}
	CBI  0x18,4
_0x333:
; 0000 076C 
; 0000 076D       //PIRMINIS FILTRAVIMAS:
; 0000 076E       SKAMBUTIS_TURETU_SKAMBETI = 0;
	LDI  R30,LOW(0)
	STS  _SKAMBUTIS_TURETU_SKAMBETI,R30
; 0000 076F       a = 33;
	LDI  R30,LOW(33)
	STS  _a,R30
; 0000 0770       segm_a = 0;
	RCALL SUBOPT_0x36
; 0000 0771       segm_b = 0;
; 0000 0772       segm_c = 0;
	RCALL SUBOPT_0x3C
; 0000 0773       segm_d = 0;
; 0000 0774       segm_e = 0;
	RCALL SUBOPT_0x35
; 0000 0775       segm_f = 0;
; 0000 0776       segm_g = 0;
; 0000 0777       segm_h = 0;
	LDI  R30,LOW(0)
	STS  _segm_h,R30
; 0000 0778       DB_LAIKO_RODYMAS = 1;
	LDI  R30,LOW(1)
	STS  _DB_LAIKO_RODYMAS,R30
; 0000 0779       SKAMBUTIS_SKAMBA = 0;
	LDI  R30,LOW(0)
	STS  _SKAMBUTIS_SKAMBA,R30
; 0000 077A       ISPEJAMASIS_SKAMBUTIS = 0;
	STS  _ISPEJAMASIS_SKAMBUTIS,R30
; 0000 077B       }
; 0000 077C while (1);}
	JMP  _0x4
_0x336:
	RJMP _0x336

	.DSEG
_puse_sekundes:
	.BYTE 0x2
_viena_minute5:
	.BYTE 0x4
_viena_sekunde3:
	.BYTE 0x4
_PILNAS:
	.BYTE 0x1
_TUSCIAS:
	.BYTE 0x1
_KROVIMAS:
	.BYTE 0x1
_ISKROVIMAS:
	.BYTE 0x1
_BATERIJOS_BUSENA:
	.BYTE 0x1
_OSC:
	.BYTE 0x1
_MYGTUKAS_1:
	.BYTE 0x1
_MYGTUKAS_2:
	.BYTE 0x1
_MYGTUKAS_3:
	.BYTE 0x1
_MYGTUKAS_4:
	.BYTE 0x1
_MYGTUKAS_5:
	.BYTE 0x1
_MYGTUKAS_6:
	.BYTE 0x1
_MYGTUKAS_7:
	.BYTE 0x1
_MYGTUKAS_PASPAUSTAS:
	.BYTE 0x1
_segm_a:
	.BYTE 0x1
_segm_b:
	.BYTE 0x1
_segm_c:
	.BYTE 0x1
_segm_d:
	.BYTE 0x1
_segm_e:
	.BYTE 0x1
_segm_f:
	.BYTE 0x1
_segm_g:
	.BYTE 0x1
_segm_h:
	.BYTE 0x1
_LAIKRODIS:
	.BYTE 0x1
_sekundes:
	.BYTE 0x1
_minutes:
	.BYTE 0x1
_desimtys_minutes:
	.BYTE 0x1
_valandos:
	.BYTE 0x1
_desimtys_valandos:
	.BYTE 0x1
_a:
	.BYTE 0x1
_x:
	.BYTE 0x1
_y:
	.BYTE 0x1
_z:
	.BYTE 0x1
_k:
	.BYTE 0x1
_a2:
	.BYTE 0x1
_b2:
	.BYTE 0x1
_c2:
	.BYTE 0x1
_d2:
	.BYTE 0x1
_b:
	.BYTE 0x1
_d:
	.BYTE 0x1
_e:
	.BYTE 0x1
_f:
	.BYTE 0x1
_g:
	.BYTE 0x1
_i:
	.BYTE 0x1
_REDAGAVIMAS:
	.BYTE 0x1
_REDAG_SK_NR:
	.BYTE 0x1
_EILUTES_SKAICIUS:
	.BYTE 0x1
_EIL_SK:
	.BYTE 0x1
_BLYKCIOTI:
	.BYTE 0x1
_PENKIOLIKA_SEKUNDZIU:
	.BYTE 0x1
_DESIMT_SEKUNDZIU:
	.BYTE 0x1
_SKAMBUTIS_TURETU_SKAMBETI:
	.BYTE 0x1
_Sesios_sekundes:
	.BYTE 0x1
_SKAMBUTIS_SKAMBA:
	.BYTE 0x1
_ISPEJAMASIS_SKAMBUTIS:
	.BYTE 0x1
_DB_LAIKO_RODYMAS:
	.BYTE 0x1
_UZRAKINTA:
	.BYTE 0x1
_UZRAKTO_KODAS_1:
	.BYTE 0x1
_UZRAKTO_KODAS_2:
	.BYTE 0x1
_UZRAKTO_KODAS_3:
	.BYTE 0x1
_UZRAKTO_KODAS_4:
	.BYTE 0x1
_REDAG_UZRAKT_SKAIC:
	.BYTE 0x1
_a1:
	.BYTE 0x1
_b1:
	.BYTE 0x1
_c1:
	.BYTE 0x1
_d1:
	.BYTE 0x1
_KELINTADIENIO_PERZIURA:
	.BYTE 0x1
_KELINTADIENIS:
	.BYTE 0x1
_KELINTADIENIO_REDAGAVIMAS:
	.BYTE 0x1

	.ESEG
_SKAMBUTIS_1dh:
	.BYTE 0x1
_SKAMBUTIS_1h:
	.BYTE 0x1
_SKAMBUTIS_1dm:
	.BYTE 0x1
_SKAMBUTIS_1m:
	.BYTE 0x1
_SKAMBUTIS_2dh:
	.BYTE 0x1
_SKAMBUTIS_2h:
	.BYTE 0x1
_SKAMBUTIS_2dm:
	.BYTE 0x1
_SKAMBUTIS_2m:
	.BYTE 0x1
_SKAMBUTIS_3dh:
	.BYTE 0x1
_SKAMBUTIS_3h:
	.BYTE 0x1
_SKAMBUTIS_3dm:
	.BYTE 0x1
_SKAMBUTIS_3m:
	.BYTE 0x1
_SKAMBUTIS_4dh:
	.BYTE 0x1
_SKAMBUTIS_4h:
	.BYTE 0x1
_SKAMBUTIS_4dm:
	.BYTE 0x1
_SKAMBUTIS_4m:
	.BYTE 0x1
_SKAMBUTIS_5dh:
	.BYTE 0x1
_SKAMBUTIS_5h:
	.BYTE 0x1
_SKAMBUTIS_5dm:
	.BYTE 0x1
_SKAMBUTIS_5m:
	.BYTE 0x1
_SKAMBUTIS_6dh:
	.BYTE 0x1
_SKAMBUTIS_6h:
	.BYTE 0x1
_SKAMBUTIS_6dm:
	.BYTE 0x1
_SKAMBUTIS_6m:
	.BYTE 0x1
_SKAMBUTIS_7dh:
	.BYTE 0x1
_SKAMBUTIS_7h:
	.BYTE 0x1
_SKAMBUTIS_7dm:
	.BYTE 0x1
_SKAMBUTIS_7m:
	.BYTE 0x1
_SKAMBUTIS_8dh:
	.BYTE 0x1
_SKAMBUTIS_8h:
	.BYTE 0x1
_SKAMBUTIS_8dm:
	.BYTE 0x1
_SKAMBUTIS_8m:
	.BYTE 0x1
_SKAMBUTIS_9dh:
	.BYTE 0x1
_SKAMBUTIS_9h:
	.BYTE 0x1
_SKAMBUTIS_9dm:
	.BYTE 0x1
_SKAMBUTIS_9m:
	.BYTE 0x1
_SKAMBUTIS_10dh:
	.BYTE 0x1
_SKAMBUTIS_10h:
	.BYTE 0x1
_SKAMBUTIS_10dm:
	.BYTE 0x1
_SKAMBUTIS_10m:
	.BYTE 0x1
_SKAMBUTIS_11dh:
	.BYTE 0x1
_SKAMBUTIS_11h:
	.BYTE 0x1
_SKAMBUTIS_11dm:
	.BYTE 0x1
_SKAMBUTIS_11m:
	.BYTE 0x1
_SKAMBUTIS_12dh:
	.BYTE 0x1
_SKAMBUTIS_12h:
	.BYTE 0x1
_SKAMBUTIS_12dm:
	.BYTE 0x1
_SKAMBUTIS_12m:
	.BYTE 0x1
_SKAMBUTIS_13dh:
	.BYTE 0x1
_SKAMBUTIS_13h:
	.BYTE 0x1
_SKAMBUTIS_13dm:
	.BYTE 0x1
_SKAMBUTIS_13m:
	.BYTE 0x1
_SKAMBUTIS_14dh:
	.BYTE 0x1
_SKAMBUTIS_14h:
	.BYTE 0x1
_SKAMBUTIS_14dm:
	.BYTE 0x1
_SKAMBUTIS_14m:
	.BYTE 0x1
_SKAMBUTIS_15dh:
	.BYTE 0x1
_SKAMBUTIS_15h:
	.BYTE 0x1
_SKAMBUTIS_15dm:
	.BYTE 0x1
_SKAMBUTIS_15m:
	.BYTE 0x1
_SKAMBUTIS_16dh:
	.BYTE 0x1
_SKAMBUTIS_16h:
	.BYTE 0x1
_SKAMBUTIS_16dm:
	.BYTE 0x1
_SKAMBUTIS_16m:
	.BYTE 0x1
_SKAMBUTIS_17dh:
	.BYTE 0x1
_SKAMBUTIS_17h:
	.BYTE 0x1
_SKAMBUTIS_17dm:
	.BYTE 0x1
_SKAMBUTIS_17m:
	.BYTE 0x1
_SKAMBUTIS_18dh:
	.BYTE 0x1
_SKAMBUTIS_18h:
	.BYTE 0x1
_SKAMBUTIS_18dm:
	.BYTE 0x1
_SKAMBUTIS_18m:
	.BYTE 0x1
_SKAMBUTIS_19dh:
	.BYTE 0x1
_SKAMBUTIS_19h:
	.BYTE 0x1
_SKAMBUTIS_19dm:
	.BYTE 0x1
_SKAMBUTIS_19m:
	.BYTE 0x1
_SKAMBUTIS_20dh:
	.BYTE 0x1
_SKAMBUTIS_20h:
	.BYTE 0x1
_SKAMBUTIS_20dm:
	.BYTE 0x1
_SKAMBUTIS_20m:
	.BYTE 0x1

	.DSEG
_krovimo_uzlaikymas0:
	.BYTE 0x2
_krovimo_uzlaikymas1:
	.BYTE 0x1
_krovimo_uzlaikymas2:
	.BYTE 0x1

	.CSEG
;OPTIMIZER ADDED SUBROUTINE, CALLED 4 TIMES, CODE SIZE REDUCTION:3 WORDS
SUBOPT_0x0:
	LDI  R26,0
	SBIC 0x19,2
	LDI  R26,1
	CPI  R26,LOW(0x0)
	RET

;OPTIMIZER ADDED SUBROUTINE, CALLED 4 TIMES, CODE SIZE REDUCTION:3 WORDS
SUBOPT_0x1:
	LDI  R26,0
	SBIC 0x19,1
	LDI  R26,1
	CPI  R26,LOW(0x0)
	RET

;OPTIMIZER ADDED SUBROUTINE, CALLED 4 TIMES, CODE SIZE REDUCTION:3 WORDS
SUBOPT_0x2:
	LDI  R26,0
	SBIC 0x19,0
	LDI  R26,1
	CPI  R26,LOW(0x0)
	RET

;OPTIMIZER ADDED SUBROUTINE, CALLED 2 TIMES, CODE SIZE REDUCTION:3 WORDS
SUBOPT_0x3:
	STS  _viena_minute5,R30
	STS  _viena_minute5+1,R31
	STS  _viena_minute5+2,R22
	STS  _viena_minute5+3,R23
	RET

;OPTIMIZER ADDED SUBROUTINE, CALLED 2 TIMES, CODE SIZE REDUCTION:4 WORDS
SUBOPT_0x4:
	LDI  R30,LOW(0)
	STS  _viena_minute5,R30
	STS  _viena_minute5+1,R30
	STS  _viena_minute5+2,R30
	STS  _viena_minute5+3,R30
	RET

;OPTIMIZER ADDED SUBROUTINE, CALLED 2 TIMES, CODE SIZE REDUCTION:5 WORDS
SUBOPT_0x5:
	LDS  R30,_viena_minute5
	LDS  R31,_viena_minute5+1
	LDS  R22,_viena_minute5+2
	LDS  R23,_viena_minute5+3
	CALL __CPD10
	RET

;OPTIMIZER ADDED SUBROUTINE, CALLED 2 TIMES, CODE SIZE REDUCTION:7 WORDS
SUBOPT_0x6:
	LDI  R30,LOW(0)
	STS  _a1,R30
	STS  _b1,R30
	STS  _c1,R30
	STS  _d1,R30
	RET

;OPTIMIZER ADDED SUBROUTINE, CALLED 15 TIMES, CODE SIZE REDUCTION:25 WORDS
SUBOPT_0x7:
	LDI  R31,0
	SBRC R30,7
	SER  R31
	SBIW R30,1
	RET

;OPTIMIZER ADDED SUBROUTINE, CALLED 3 TIMES, CODE SIZE REDUCTION:1 WORDS
SUBOPT_0x8:
	LDI  R30,LOW(0)
	STS  _REDAGAVIMAS,R30
	RET

;OPTIMIZER ADDED SUBROUTINE, CALLED 2 TIMES, CODE SIZE REDUCTION:15 WORDS
SUBOPT_0x9:
	STS  _MYGTUKAS_1,R30
	LDI  R30,LOW(0)
	STS  _MYGTUKAS_2,R30
	STS  _MYGTUKAS_3,R30
	STS  _MYGTUKAS_4,R30
	STS  _MYGTUKAS_5,R30
	STS  _MYGTUKAS_6,R30
	STS  _MYGTUKAS_7,R30
	RET

;OPTIMIZER ADDED SUBROUTINE, CALLED 2 TIMES, CODE SIZE REDUCTION:4 WORDS
SUBOPT_0xA:
	LDI  R30,LOW(0)
	STS  _KELINTADIENIO_PERZIURA,R30
	STS  _KELINTADIENIO_REDAGAVIMAS,R30
	STS  _BATERIJOS_BUSENA,R30
	RET

;OPTIMIZER ADDED SUBROUTINE, CALLED 3 TIMES, CODE SIZE REDUCTION:1 WORDS
SUBOPT_0xB:
	LDI  R30,LOW(0)
	STS  _MYGTUKAS_3,R30
	RET

;OPTIMIZER ADDED SUBROUTINE, CALLED 2 TIMES, CODE SIZE REDUCTION:1 WORDS
SUBOPT_0xC:
	STS  _MYGTUKAS_4,R30
	LDI  R30,LOW(0)
	STS  _MYGTUKAS_5,R30
	RET

;OPTIMIZER ADDED SUBROUTINE, CALLED 4 TIMES, CODE SIZE REDUCTION:6 WORDS
SUBOPT_0xD:
	STS  _EILUTES_SKAICIUS,R30
	LDI  R30,LOW(1)
	STS  _g,R30
	RET

;OPTIMIZER ADDED SUBROUTINE, CALLED 3 TIMES, CODE SIZE REDUCTION:1 WORDS
SUBOPT_0xE:
	LDI  R26,LOW(_SKAMBUTIS_1dh)
	LDI  R27,HIGH(_SKAMBUTIS_1dh)
	CALL __EEPROMRDB
	RET

;OPTIMIZER ADDED SUBROUTINE, CALLED 3 TIMES, CODE SIZE REDUCTION:1 WORDS
SUBOPT_0xF:
	LDI  R26,LOW(_SKAMBUTIS_1h)
	LDI  R27,HIGH(_SKAMBUTIS_1h)
	CALL __EEPROMRDB
	RET

;OPTIMIZER ADDED SUBROUTINE, CALLED 3 TIMES, CODE SIZE REDUCTION:1 WORDS
SUBOPT_0x10:
	LDI  R26,LOW(_SKAMBUTIS_1dm)
	LDI  R27,HIGH(_SKAMBUTIS_1dm)
	CALL __EEPROMRDB
	RET

;OPTIMIZER ADDED SUBROUTINE, CALLED 3 TIMES, CODE SIZE REDUCTION:1 WORDS
SUBOPT_0x11:
	LDI  R26,LOW(_SKAMBUTIS_1m)
	LDI  R27,HIGH(_SKAMBUTIS_1m)
	CALL __EEPROMRDB
	RET

;OPTIMIZER ADDED SUBROUTINE, CALLED 19 TIMES, CODE SIZE REDUCTION:33 WORDS
SUBOPT_0x12:
	CALL __EEPROMRDB
	STS  _x,R30
	RET

;OPTIMIZER ADDED SUBROUTINE, CALLED 19 TIMES, CODE SIZE REDUCTION:33 WORDS
SUBOPT_0x13:
	CALL __EEPROMRDB
	STS  _y,R30
	RET

;OPTIMIZER ADDED SUBROUTINE, CALLED 19 TIMES, CODE SIZE REDUCTION:33 WORDS
SUBOPT_0x14:
	CALL __EEPROMRDB
	STS  _z,R30
	RET

;OPTIMIZER ADDED SUBROUTINE, CALLED 19 TIMES, CODE SIZE REDUCTION:33 WORDS
SUBOPT_0x15:
	CALL __EEPROMRDB
	STS  _k,R30
	RET

;OPTIMIZER ADDED SUBROUTINE, CALLED 20 TIMES, CODE SIZE REDUCTION:35 WORDS
SUBOPT_0x16:
	CALL __EEPROMWRB
	LDS  R30,_y
	RET

;OPTIMIZER ADDED SUBROUTINE, CALLED 20 TIMES, CODE SIZE REDUCTION:35 WORDS
SUBOPT_0x17:
	CALL __EEPROMWRB
	LDS  R30,_z
	RET

;OPTIMIZER ADDED SUBROUTINE, CALLED 20 TIMES, CODE SIZE REDUCTION:35 WORDS
SUBOPT_0x18:
	CALL __EEPROMWRB
	LDS  R30,_k
	RET

;OPTIMIZER ADDED SUBROUTINE, CALLED 10 TIMES, CODE SIZE REDUCTION:15 WORDS
SUBOPT_0x19:
	MOV  R26,R30
	LDS  R30,_a2
	CP   R30,R26
	RET

;OPTIMIZER ADDED SUBROUTINE, CALLED 10 TIMES, CODE SIZE REDUCTION:15 WORDS
SUBOPT_0x1A:
	MOV  R26,R30
	LDS  R30,_b2
	CP   R30,R26
	RET

;OPTIMIZER ADDED SUBROUTINE, CALLED 10 TIMES, CODE SIZE REDUCTION:15 WORDS
SUBOPT_0x1B:
	MOV  R26,R30
	LDS  R30,_c2
	CP   R30,R26
	RET

;OPTIMIZER ADDED SUBROUTINE, CALLED 10 TIMES, CODE SIZE REDUCTION:15 WORDS
SUBOPT_0x1C:
	MOV  R26,R30
	LDS  R30,_d2
	CP   R30,R26
	RET

;OPTIMIZER ADDED SUBROUTINE, CALLED 9 TIMES, CODE SIZE REDUCTION:13 WORDS
SUBOPT_0x1D:
	CALL __EEPROMRDB
	RJMP SUBOPT_0x19

;OPTIMIZER ADDED SUBROUTINE, CALLED 9 TIMES, CODE SIZE REDUCTION:13 WORDS
SUBOPT_0x1E:
	CALL __EEPROMRDB
	RJMP SUBOPT_0x1A

;OPTIMIZER ADDED SUBROUTINE, CALLED 9 TIMES, CODE SIZE REDUCTION:13 WORDS
SUBOPT_0x1F:
	CALL __EEPROMRDB
	RJMP SUBOPT_0x1B

;OPTIMIZER ADDED SUBROUTINE, CALLED 9 TIMES, CODE SIZE REDUCTION:13 WORDS
SUBOPT_0x20:
	CALL __EEPROMRDB
	RJMP SUBOPT_0x1C

;OPTIMIZER ADDED SUBROUTINE, CALLED 20 TIMES, CODE SIZE REDUCTION:35 WORDS
SUBOPT_0x21:
	MOV  R26,R30
	LDS  R30,_desimtys_valandos
	CP   R30,R26
	RET

;OPTIMIZER ADDED SUBROUTINE, CALLED 20 TIMES, CODE SIZE REDUCTION:35 WORDS
SUBOPT_0x22:
	MOV  R26,R30
	LDS  R30,_valandos
	CP   R30,R26
	RET

;OPTIMIZER ADDED SUBROUTINE, CALLED 20 TIMES, CODE SIZE REDUCTION:35 WORDS
SUBOPT_0x23:
	MOV  R26,R30
	LDS  R30,_desimtys_minutes
	CP   R30,R26
	RET

;OPTIMIZER ADDED SUBROUTINE, CALLED 20 TIMES, CODE SIZE REDUCTION:35 WORDS
SUBOPT_0x24:
	MOV  R26,R30
	LDS  R30,_minutes
	CP   R30,R26
	RET

;OPTIMIZER ADDED SUBROUTINE, CALLED 19 TIMES, CODE SIZE REDUCTION:33 WORDS
SUBOPT_0x25:
	CALL __EEPROMRDB
	RJMP SUBOPT_0x21

;OPTIMIZER ADDED SUBROUTINE, CALLED 19 TIMES, CODE SIZE REDUCTION:33 WORDS
SUBOPT_0x26:
	CALL __EEPROMRDB
	RJMP SUBOPT_0x22

;OPTIMIZER ADDED SUBROUTINE, CALLED 19 TIMES, CODE SIZE REDUCTION:33 WORDS
SUBOPT_0x27:
	CALL __EEPROMRDB
	RJMP SUBOPT_0x23

;OPTIMIZER ADDED SUBROUTINE, CALLED 19 TIMES, CODE SIZE REDUCTION:33 WORDS
SUBOPT_0x28:
	CALL __EEPROMRDB
	RJMP SUBOPT_0x24

;OPTIMIZER ADDED SUBROUTINE, CALLED 4 TIMES, CODE SIZE REDUCTION:6 WORDS
SUBOPT_0x29:
	STS  _a,R30
	LDI  R30,LOW(1)
	STS  _segm_h,R30
	RET

;OPTIMIZER ADDED SUBROUTINE, CALLED 9 TIMES, CODE SIZE REDUCTION:29 WORDS
SUBOPT_0x2A:
	LDI  R30,LOW(1)
	STS  _segm_a,R30
	STS  _segm_b,R30
	RET

;OPTIMIZER ADDED SUBROUTINE, CALLED 13 TIMES, CODE SIZE REDUCTION:45 WORDS
SUBOPT_0x2B:
	LDI  R30,LOW(1)
	STS  _segm_c,R30
	STS  _segm_d,R30
	RET

;OPTIMIZER ADDED SUBROUTINE, CALLED 15 TIMES, CODE SIZE REDUCTION:53 WORDS
SUBOPT_0x2C:
	LDI  R30,LOW(1)
	STS  _segm_e,R30
	STS  _segm_f,R30
	RET

;OPTIMIZER ADDED SUBROUTINE, CALLED 3 TIMES, CODE SIZE REDUCTION:23 WORDS
SUBOPT_0x2D:
	LDI  R30,LOW(0)
	STS  _segm_a,R30
	LDI  R30,LOW(1)
	STS  _segm_b,R30
	STS  _segm_c,R30
	LDI  R30,LOW(0)
	STS  _segm_d,R30
	STS  _segm_e,R30
	RET

;OPTIMIZER ADDED SUBROUTINE, CALLED 8 TIMES, CODE SIZE REDUCTION:25 WORDS
SUBOPT_0x2E:
	LDI  R30,LOW(0)
	STS  _segm_f,R30
	STS  _segm_g,R30
	RET

;OPTIMIZER ADDED SUBROUTINE, CALLED 3 TIMES, CODE SIZE REDUCTION:23 WORDS
SUBOPT_0x2F:
	LDI  R30,LOW(0)
	STS  _segm_c,R30
	LDI  R30,LOW(1)
	STS  _segm_d,R30
	STS  _segm_e,R30
	LDI  R30,LOW(0)
	STS  _segm_f,R30
	LDI  R30,LOW(1)
	STS  _segm_g,R30
	RET

;OPTIMIZER ADDED SUBROUTINE, CALLED 2 TIMES, CODE SIZE REDUCTION:4 WORDS
SUBOPT_0x30:
	LDI  R30,LOW(0)
	STS  _segm_e,R30
	STS  _segm_f,R30
	LDI  R30,LOW(1)
	STS  _segm_g,R30
	RET

;OPTIMIZER ADDED SUBROUTINE, CALLED 4 TIMES, CODE SIZE REDUCTION:9 WORDS
SUBOPT_0x31:
	LDI  R30,LOW(1)
	STS  _segm_f,R30
	STS  _segm_g,R30
	RET

;OPTIMIZER ADDED SUBROUTINE, CALLED 3 TIMES, CODE SIZE REDUCTION:9 WORDS
SUBOPT_0x32:
	LDI  R30,LOW(1)
	STS  _segm_a,R30
	LDI  R30,LOW(0)
	STS  _segm_b,R30
	RJMP SUBOPT_0x2B

;OPTIMIZER ADDED SUBROUTINE, CALLED 3 TIMES, CODE SIZE REDUCTION:3 WORDS
SUBOPT_0x33:
	LDI  R30,LOW(0)
	STS  _segm_e,R30
	RJMP SUBOPT_0x31

;OPTIMIZER ADDED SUBROUTINE, CALLED 6 TIMES, CODE SIZE REDUCTION:17 WORDS
SUBOPT_0x34:
	LDI  R30,LOW(1)
	STS  _segm_c,R30
	LDI  R30,LOW(0)
	STS  _segm_d,R30
	RET

;OPTIMIZER ADDED SUBROUTINE, CALLED 6 TIMES, CODE SIZE REDUCTION:12 WORDS
SUBOPT_0x35:
	LDI  R30,LOW(0)
	STS  _segm_e,R30
	RJMP SUBOPT_0x2E

;OPTIMIZER ADDED SUBROUTINE, CALLED 14 TIMES, CODE SIZE REDUCTION:49 WORDS
SUBOPT_0x36:
	LDI  R30,LOW(0)
	STS  _segm_a,R30
	STS  _segm_b,R30
	RET

;OPTIMIZER ADDED SUBROUTINE, CALLED 2 TIMES, CODE SIZE REDUCTION:9 WORDS
SUBOPT_0x37:
	LDI  R30,LOW(1)
	STS  _segm_a,R30
	LDI  R30,LOW(0)
	STS  _segm_b,R30
	STS  _segm_c,R30
	LDI  R30,LOW(1)
	STS  _segm_d,R30
	RJMP SUBOPT_0x2C

;OPTIMIZER ADDED SUBROUTINE, CALLED 4 TIMES, CODE SIZE REDUCTION:9 WORDS
SUBOPT_0x38:
	LDI  R30,LOW(0)
	STS  _segm_a,R30
	LDI  R30,LOW(1)
	STS  _segm_b,R30
	RET

;OPTIMIZER ADDED SUBROUTINE, CALLED 4 TIMES, CODE SIZE REDUCTION:18 WORDS
SUBOPT_0x39:
	LDI  R30,LOW(1)
	STS  _segm_e,R30
	LDI  R30,LOW(0)
	STS  _segm_f,R30
	LDI  R30,LOW(1)
	STS  _segm_g,R30
	RET

;OPTIMIZER ADDED SUBROUTINE, CALLED 2 TIMES, CODE SIZE REDUCTION:3 WORDS
SUBOPT_0x3A:
	LDI  R30,LOW(0)
	STS  _segm_c,R30
	STS  _segm_d,R30
	RJMP SUBOPT_0x2C

;OPTIMIZER ADDED SUBROUTINE, CALLED 2 TIMES, CODE SIZE REDUCTION:3 WORDS
SUBOPT_0x3B:
	LDI  R30,LOW(0)
	STS  _segm_c,R30
	LDI  R30,LOW(1)
	STS  _segm_d,R30
	RJMP SUBOPT_0x2C

;OPTIMIZER ADDED SUBROUTINE, CALLED 4 TIMES, CODE SIZE REDUCTION:9 WORDS
SUBOPT_0x3C:
	LDI  R30,LOW(0)
	STS  _segm_c,R30
	STS  _segm_d,R30
	RET


	.CSEG
__ANEGW1:
	NEG  R31
	NEG  R30
	SBCI R31,0
	RET

__DIVW21U:
	CLR  R0
	CLR  R1
	LDI  R25,16
__DIVW21U1:
	LSL  R26
	ROL  R27
	ROL  R0
	ROL  R1
	SUB  R0,R30
	SBC  R1,R31
	BRCC __DIVW21U2
	ADD  R0,R30
	ADC  R1,R31
	RJMP __DIVW21U3
__DIVW21U2:
	SBR  R26,1
__DIVW21U3:
	DEC  R25
	BRNE __DIVW21U1
	MOVW R30,R26
	MOVW R26,R0
	RET

__DIVW21:
	RCALL __CHKSIGNW
	RCALL __DIVW21U
	BRTC __DIVW211
	RCALL __ANEGW1
__DIVW211:
	RET

__CHKSIGNW:
	CLT
	SBRS R31,7
	RJMP __CHKSW1
	RCALL __ANEGW1
	SET
__CHKSW1:
	SBRS R27,7
	RJMP __CHKSW2
	COM  R26
	COM  R27
	ADIW R26,1
	BLD  R0,0
	INC  R0
	BST  R0,0
__CHKSW2:
	RET

__EEPROMRDB:
	SBIC EECR,EEWE
	RJMP __EEPROMRDB
	PUSH R31
	IN   R31,SREG
	CLI
	OUT  EEARL,R26
	OUT  EEARH,R27
	SBI  EECR,EERE
	IN   R30,EEDR
	OUT  SREG,R31
	POP  R31
	RET

__EEPROMWRB:
	SBIS EECR,EEWE
	RJMP __EEPROMWRB1
	WDR
	RJMP __EEPROMWRB
__EEPROMWRB1:
	IN   R25,SREG
	CLI
	OUT  EEARL,R26
	OUT  EEARH,R27
	SBI  EECR,EERE
	IN   R24,EEDR
	CP   R30,R24
	BREQ __EEPROMWRB0
	OUT  EEDR,R30
	SBI  EECR,EEMWE
	SBI  EECR,EEWE
__EEPROMWRB0:
	OUT  SREG,R25
	RET

__CPD10:
	SBIW R30,0
	SBCI R22,0
	SBCI R23,0
	RET

__CPD02:
	CLR  R0
	CP   R0,R26
	CPC  R0,R27
	CPC  R0,R24
	CPC  R0,R25
	RET

;END OF CODE MARKER
__END_OF_CODE:
