
AVRASM ver. 2.1.30  D:\TOMOSIUKS\-=CPU=-\Petrui valdikl v1 -=C=-\List\Petrui valdikl.asm Fri Nov 18 17:16:27 2011

D:\TOMOSIUKS\-=CPU=-\Petrui valdikl v1 -=C=-\List\Petrui valdikl.asm(1051): warning: Register r5 already defined by the .DEF directive
D:\TOMOSIUKS\-=CPU=-\Petrui valdikl v1 -=C=-\List\Petrui valdikl.asm(1052): warning: Register r4 already defined by the .DEF directive
D:\TOMOSIUKS\-=CPU=-\Petrui valdikl v1 -=C=-\List\Petrui valdikl.asm(1053): warning: Register r7 already defined by the .DEF directive
D:\TOMOSIUKS\-=CPU=-\Petrui valdikl v1 -=C=-\List\Petrui valdikl.asm(1054): warning: Register r6 already defined by the .DEF directive
D:\TOMOSIUKS\-=CPU=-\Petrui valdikl v1 -=C=-\List\Petrui valdikl.asm(1055): warning: Register r9 already defined by the .DEF directive
D:\TOMOSIUKS\-=CPU=-\Petrui valdikl v1 -=C=-\List\Petrui valdikl.asm(1056): warning: Register r8 already defined by the .DEF directive
D:\TOMOSIUKS\-=CPU=-\Petrui valdikl v1 -=C=-\List\Petrui valdikl.asm(1057): warning: Register r11 already defined by the .DEF directive
D:\TOMOSIUKS\-=CPU=-\Petrui valdikl v1 -=C=-\List\Petrui valdikl.asm(1058): warning: Register r10 already defined by the .DEF directive
D:\TOMOSIUKS\-=CPU=-\Petrui valdikl v1 -=C=-\List\Petrui valdikl.asm(1059): warning: Register r13 already defined by the .DEF directive
D:\TOMOSIUKS\-=CPU=-\Petrui valdikl v1 -=C=-\List\Petrui valdikl.asm(1060): warning: Register r12 already defined by the .DEF directive
                 
                 
                 ;CodeVisionAVR C Compiler V2.04.4a Advanced
                 ;(C) Copyright 1998-2009 Pavel Haiduc, HP InfoTech s.r.l.
                 ;http://www.hpinfotech.com
                 
                 ;Chip type                : ATmega32
                 ;Program type             : Application
                 ;Clock frequency          : 4.000000 MHz
                 ;Memory model             : Small
                 ;Optimize for             : Size
                 ;(s)printf features       : int, width
                 ;(s)scanf features        : int, width
                 ;External RAM size        : 0
                 ;Data Stack size          : 512 byte(s)
                 ;Heap size                : 0 byte(s)
                 ;Promote 'char' to 'int'  : Yes
                 ;'char' is unsigned       : Yes
                 ;8 bit enums              : Yes
                 ;global 'const' stored in FLASH: No
                 ;Enhanced core instructions    : On
                 ;Smart register allocation     : On
                 ;Automatic register allocation : On
                 
                 	#pragma AVRPART ADMIN PART_NAME ATmega32
                 	#pragma AVRPART MEMORY PROG_FLASH 32768
                 	#pragma AVRPART MEMORY EEPROM 1024
                 	#pragma AVRPART MEMORY INT_SRAM SIZE 2048
                 	#pragma AVRPART MEMORY INT_SRAM START_ADDR 0x60
                 
                 	.LISTMAC
                 	.EQU UDRE=0x5
                 	.EQU RXC=0x7
                 	.EQU USR=0xB
                 	.EQU UDR=0xC
                 	.EQU SPSR=0xE
                 	.EQU SPDR=0xF
                 	.EQU EERE=0x0
                 	.EQU EEWE=0x1
                 	.EQU EEMWE=0x2
                 	.EQU EECR=0x1C
                 	.EQU EEDR=0x1D
                 	.EQU EEARL=0x1E
                 	.EQU EEARH=0x1F
                 	.EQU WDTCR=0x21
                 	.EQU MCUCR=0x35
                 	.EQU GICR=0x3B
                 	.EQU SPL=0x3D
                 	.EQU SPH=0x3E
                 	.EQU SREG=0x3F
                 
                 	.DEF R0X0=R0
                 	.DEF R0X1=R1
                 	.DEF R0X2=R2
                 	.DEF R0X3=R3
                 	.DEF R0X4=R4
                 	.DEF R0X5=R5
                 	.DEF R0X6=R6
                 	.DEF R0X7=R7
                 	.DEF R0X8=R8
                 	.DEF R0X9=R9
                 	.DEF R0XA=R10
                 	.DEF R0XB=R11
                 	.DEF R0XC=R12
                 	.DEF R0XD=R13
                 	.DEF R0XE=R14
                 	.DEF R0XF=R15
                 	.DEF R0X10=R16
                 	.DEF R0X11=R17
                 	.DEF R0X12=R18
                 	.DEF R0X13=R19
                 	.DEF R0X14=R20
                 	.DEF R0X15=R21
                 	.DEF R0X16=R22
                 	.DEF R0X17=R23
                 	.DEF R0X18=R24
                 	.DEF R0X19=R25
                 	.DEF R0X1A=R26
                 	.DEF R0X1B=R27
                 	.DEF R0X1C=R28
                 	.DEF R0X1D=R29
                 	.DEF R0X1E=R30
                 	.DEF R0X1F=R31
                 
                 	.MACRO __CPD1N
                 	CPI  R30,LOW(@0)
                 	LDI  R26,HIGH(@0)
                 	CPC  R31,R26
                 	LDI  R26,BYTE3(@0)
                 	CPC  R22,R26
                 	LDI  R26,BYTE4(@0)
                 	CPC  R23,R26
                 	.ENDM
                 
                 	.MACRO __CPD2N
                 	CPI  R26,LOW(@0)
                 	LDI  R30,HIGH(@0)
                 	CPC  R27,R30
                 	LDI  R30,BYTE3(@0)
                 	CPC  R24,R30
                 	LDI  R30,BYTE4(@0)
                 	CPC  R25,R30
                 	.ENDM
                 
                 	.MACRO __CPWRR
                 	CP   R@0,R@2
                 	CPC  R@1,R@3
                 	.ENDM
                 
                 	.MACRO __CPWRN
                 	CPI  R@0,LOW(@2)
                 	LDI  R30,HIGH(@2)
                 	CPC  R@1,R30
                 	.ENDM
                 
                 	.MACRO __ADDB1MN
                 	SUBI R30,LOW(-@0-(@1))
                 	.ENDM
                 
                 	.MACRO __ADDB2MN
                 	SUBI R26,LOW(-@0-(@1))
                 	.ENDM
                 
                 	.MACRO __ADDW1MN
                 	SUBI R30,LOW(-@0-(@1))
                 	SBCI R31,HIGH(-@0-(@1))
                 	.ENDM
                 
                 	.MACRO __ADDW2MN
                 	SUBI R26,LOW(-@0-(@1))
                 	SBCI R27,HIGH(-@0-(@1))
                 	.ENDM
                 
                 	.MACRO __ADDW1FN
                 	SUBI R30,LOW(-2*@0-(@1))
                 	SBCI R31,HIGH(-2*@0-(@1))
                 	.ENDM
                 
                 	.MACRO __ADDD1FN
                 	SUBI R30,LOW(-2*@0-(@1))
                 	SBCI R31,HIGH(-2*@0-(@1))
                 	SBCI R22,BYTE3(-2*@0-(@1))
                 	.ENDM
                 
                 	.MACRO __ADDD1N
                 	SUBI R30,LOW(-@0)
                 	SBCI R31,HIGH(-@0)
                 	SBCI R22,BYTE3(-@0)
                 	SBCI R23,BYTE4(-@0)
                 	.ENDM
                 
                 	.MACRO __ADDD2N
                 	SUBI R26,LOW(-@0)
                 	SBCI R27,HIGH(-@0)
                 	SBCI R24,BYTE3(-@0)
                 	SBCI R25,BYTE4(-@0)
                 	.ENDM
                 
                 	.MACRO __SUBD1N
                 	SUBI R30,LOW(@0)
                 	SBCI R31,HIGH(@0)
                 	SBCI R22,BYTE3(@0)
                 	SBCI R23,BYTE4(@0)
                 	.ENDM
                 
                 	.MACRO __SUBD2N
                 	SUBI R26,LOW(@0)
                 	SBCI R27,HIGH(@0)
                 	SBCI R24,BYTE3(@0)
                 	SBCI R25,BYTE4(@0)
                 	.ENDM
                 
                 	.MACRO __ANDBMNN
                 	LDS  R30,@0+(@1)
                 	ANDI R30,LOW(@2)
                 	STS  @0+(@1),R30
                 	.ENDM
                 
                 	.MACRO __ANDWMNN
                 	LDS  R30,@0+(@1)
                 	ANDI R30,LOW(@2)
                 	STS  @0+(@1),R30
                 	LDS  R30,@0+(@1)+1
                 	ANDI R30,HIGH(@2)
                 	STS  @0+(@1)+1,R30
                 	.ENDM
                 
                 	.MACRO __ANDD1N
                 	ANDI R30,LOW(@0)
                 	ANDI R31,HIGH(@0)
                 	ANDI R22,BYTE3(@0)
                 	ANDI R23,BYTE4(@0)
                 	.ENDM
                 
                 	.MACRO __ANDD2N
                 	ANDI R26,LOW(@0)
                 	ANDI R27,HIGH(@0)
                 	ANDI R24,BYTE3(@0)
                 	ANDI R25,BYTE4(@0)
                 	.ENDM
                 
                 	.MACRO __ORBMNN
                 	LDS  R30,@0+(@1)
                 	ORI  R30,LOW(@2)
                 	STS  @0+(@1),R30
                 	.ENDM
                 
                 	.MACRO __ORWMNN
                 	LDS  R30,@0+(@1)
                 	ORI  R30,LOW(@2)
                 	STS  @0+(@1),R30
                 	LDS  R30,@0+(@1)+1
                 	ORI  R30,HIGH(@2)
                 	STS  @0+(@1)+1,R30
                 	.ENDM
                 
                 	.MACRO __ORD1N
                 	ORI  R30,LOW(@0)
                 	ORI  R31,HIGH(@0)
                 	ORI  R22,BYTE3(@0)
                 	ORI  R23,BYTE4(@0)
                 	.ENDM
                 
                 	.MACRO __ORD2N
                 	ORI  R26,LOW(@0)
                 	ORI  R27,HIGH(@0)
                 	ORI  R24,BYTE3(@0)
                 	ORI  R25,BYTE4(@0)
                 	.ENDM
                 
                 	.MACRO __DELAY_USB
                 	LDI  R24,LOW(@0)
                 __DELAY_USB_LOOP:
                 	DEC  R24
                 	BRNE __DELAY_USB_LOOP
                 	.ENDM
                 
                 	.MACRO __DELAY_USW
                 	LDI  R24,LOW(@0)
                 	LDI  R25,HIGH(@0)
                 __DELAY_USW_LOOP:
                 	SBIW R24,1
                 	BRNE __DELAY_USW_LOOP
                 	.ENDM
                 
                 	.MACRO __GETD1S
                 	LDD  R30,Y+@0
                 	LDD  R31,Y+@0+1
                 	LDD  R22,Y+@0+2
                 	LDD  R23,Y+@0+3
                 	.ENDM
                 
                 	.MACRO __GETD2S
                 	LDD  R26,Y+@0
                 	LDD  R27,Y+@0+1
                 	LDD  R24,Y+@0+2
                 	LDD  R25,Y+@0+3
                 	.ENDM
                 
                 	.MACRO __PUTD1S
                 	STD  Y+@0,R30
                 	STD  Y+@0+1,R31
                 	STD  Y+@0+2,R22
                 	STD  Y+@0+3,R23
                 	.ENDM
                 
                 	.MACRO __PUTD2S
                 	STD  Y+@0,R26
                 	STD  Y+@0+1,R27
                 	STD  Y+@0+2,R24
                 	STD  Y+@0+3,R25
                 	.ENDM
                 
                 	.MACRO __PUTDZ2
                 	STD  Z+@0,R26
                 	STD  Z+@0+1,R27
                 	STD  Z+@0+2,R24
                 	STD  Z+@0+3,R25
                 	.ENDM
                 
                 	.MACRO __CLRD1S
                 	STD  Y+@0,R30
                 	STD  Y+@0+1,R30
                 	STD  Y+@0+2,R30
                 	STD  Y+@0+3,R30
                 	.ENDM
                 
                 	.MACRO __POINTB1MN
                 	LDI  R30,LOW(@0+(@1))
                 	.ENDM
                 
                 	.MACRO __POINTW1MN
                 	LDI  R30,LOW(@0+(@1))
                 	LDI  R31,HIGH(@0+(@1))
                 	.ENDM
                 
                 	.MACRO __POINTD1M
                 	LDI  R30,LOW(@0)
                 	LDI  R31,HIGH(@0)
                 	LDI  R22,BYTE3(@0)
                 	LDI  R23,BYTE4(@0)
                 	.ENDM
                 
                 	.MACRO __POINTW1FN
                 	LDI  R30,LOW(2*@0+(@1))
                 	LDI  R31,HIGH(2*@0+(@1))
                 	.ENDM
                 
                 	.MACRO __POINTD1FN
                 	LDI  R30,LOW(2*@0+(@1))
                 	LDI  R31,HIGH(2*@0+(@1))
                 	LDI  R22,BYTE3(2*@0+(@1))
                 	LDI  R23,BYTE4(2*@0+(@1))
                 	.ENDM
                 
                 	.MACRO __POINTB2MN
                 	LDI  R26,LOW(@0+(@1))
                 	.ENDM
                 
                 	.MACRO __POINTW2MN
                 	LDI  R26,LOW(@0+(@1))
                 	LDI  R27,HIGH(@0+(@1))
                 	.ENDM
                 
                 	.MACRO __POINTBRM
                 	LDI  R@0,LOW(@1)
                 	.ENDM
                 
                 	.MACRO __POINTWRM
                 	LDI  R@0,LOW(@2)
                 	LDI  R@1,HIGH(@2)
                 	.ENDM
                 
                 	.MACRO __POINTBRMN
                 	LDI  R@0,LOW(@1+(@2))
                 	.ENDM
                 
                 	.MACRO __POINTWRMN
                 	LDI  R@0,LOW(@2+(@3))
                 	LDI  R@1,HIGH(@2+(@3))
                 	.ENDM
                 
                 	.MACRO __POINTWRFN
                 	LDI  R@0,LOW(@2*2+(@3))
                 	LDI  R@1,HIGH(@2*2+(@3))
                 	.ENDM
                 
                 	.MACRO __GETD1N
                 	LDI  R30,LOW(@0)
                 	LDI  R31,HIGH(@0)
                 	LDI  R22,BYTE3(@0)
                 	LDI  R23,BYTE4(@0)
                 	.ENDM
                 
                 	.MACRO __GETD2N
                 	LDI  R26,LOW(@0)
                 	LDI  R27,HIGH(@0)
                 	LDI  R24,BYTE3(@0)
                 	LDI  R25,BYTE4(@0)
                 	.ENDM
                 
                 	.MACRO __GETB1MN
                 	LDS  R30,@0+(@1)
                 	.ENDM
                 
                 	.MACRO __GETB1HMN
                 	LDS  R31,@0+(@1)
                 	.ENDM
                 
                 	.MACRO __GETW1MN
                 	LDS  R30,@0+(@1)
                 	LDS  R31,@0+(@1)+1
                 	.ENDM
                 
                 	.MACRO __GETD1MN
                 	LDS  R30,@0+(@1)
                 	LDS  R31,@0+(@1)+1
                 	LDS  R22,@0+(@1)+2
                 	LDS  R23,@0+(@1)+3
                 	.ENDM
                 
                 	.MACRO __GETBRMN
                 	LDS  R@0,@1+(@2)
                 	.ENDM
                 
                 	.MACRO __GETWRMN
                 	LDS  R@0,@2+(@3)
                 	LDS  R@1,@2+(@3)+1
                 	.ENDM
                 
                 	.MACRO __GETWRZ
                 	LDD  R@0,Z+@2
                 	LDD  R@1,Z+@2+1
                 	.ENDM
                 
                 	.MACRO __GETD2Z
                 	LDD  R26,Z+@0
                 	LDD  R27,Z+@0+1
                 	LDD  R24,Z+@0+2
                 	LDD  R25,Z+@0+3
                 	.ENDM
                 
                 	.MACRO __GETB2MN
                 	LDS  R26,@0+(@1)
                 	.ENDM
                 
                 	.MACRO __GETW2MN
                 	LDS  R26,@0+(@1)
                 	LDS  R27,@0+(@1)+1
                 	.ENDM
                 
                 	.MACRO __GETD2MN
                 	LDS  R26,@0+(@1)
                 	LDS  R27,@0+(@1)+1
                 	LDS  R24,@0+(@1)+2
                 	LDS  R25,@0+(@1)+3
                 	.ENDM
                 
                 	.MACRO __PUTB1MN
                 	STS  @0+(@1),R30
                 	.ENDM
                 
                 	.MACRO __PUTW1MN
                 	STS  @0+(@1),R30
                 	STS  @0+(@1)+1,R31
                 	.ENDM
                 
                 	.MACRO __PUTD1MN
                 	STS  @0+(@1),R30
                 	STS  @0+(@1)+1,R31
                 	STS  @0+(@1)+2,R22
                 	STS  @0+(@1)+3,R23
                 	.ENDM
                 
                 	.MACRO __PUTB1EN
                 	LDI  R26,LOW(@0+(@1))
                 	LDI  R27,HIGH(@0+(@1))
                 	CALL __EEPROMWRB
                 	.ENDM
                 
                 	.MACRO __PUTW1EN
                 	LDI  R26,LOW(@0+(@1))
                 	LDI  R27,HIGH(@0+(@1))
                 	CALL __EEPROMWRW
                 	.ENDM
                 
                 	.MACRO __PUTD1EN
                 	LDI  R26,LOW(@0+(@1))
                 	LDI  R27,HIGH(@0+(@1))
                 	CALL __EEPROMWRD
                 	.ENDM
                 
                 	.MACRO __PUTBR0MN
                 	STS  @0+(@1),R0
                 	.ENDM
                 
                 	.MACRO __PUTBMRN
                 	STS  @0+(@1),R@2
                 	.ENDM
                 
                 	.MACRO __PUTWMRN
                 	STS  @0+(@1),R@2
                 	STS  @0+(@1)+1,R@3
                 	.ENDM
                 
                 	.MACRO __PUTBZR
                 	STD  Z+@1,R@0
                 	.ENDM
                 
                 	.MACRO __PUTWZR
                 	STD  Z+@2,R@0
                 	STD  Z+@2+1,R@1
                 	.ENDM
                 
                 	.MACRO __GETW1R
                 	MOV  R30,R@0
                 	MOV  R31,R@1
                 	.ENDM
                 
                 	.MACRO __GETW2R
                 	MOV  R26,R@0
                 	MOV  R27,R@1
                 	.ENDM
                 
                 	.MACRO __GETWRN
                 	LDI  R@0,LOW(@2)
                 	LDI  R@1,HIGH(@2)
                 	.ENDM
                 
                 	.MACRO __PUTW1R
                 	MOV  R@0,R30
                 	MOV  R@1,R31
                 	.ENDM
                 
                 	.MACRO __PUTW2R
                 	MOV  R@0,R26
                 	MOV  R@1,R27
                 	.ENDM
                 
                 	.MACRO __ADDWRN
                 	SUBI R@0,LOW(-@2)
                 	SBCI R@1,HIGH(-@2)
                 	.ENDM
                 
                 	.MACRO __ADDWRR
                 	ADD  R@0,R@2
                 	ADC  R@1,R@3
                 	.ENDM
                 
                 	.MACRO __SUBWRN
                 	SUBI R@0,LOW(@2)
                 	SBCI R@1,HIGH(@2)
                 	.ENDM
                 
                 	.MACRO __SUBWRR
                 	SUB  R@0,R@2
                 	SBC  R@1,R@3
                 	.ENDM
                 
                 	.MACRO __ANDWRN
                 	ANDI R@0,LOW(@2)
                 	ANDI R@1,HIGH(@2)
                 	.ENDM
                 
                 	.MACRO __ANDWRR
                 	AND  R@0,R@2
                 	AND  R@1,R@3
                 	.ENDM
                 
                 	.MACRO __ORWRN
                 	ORI  R@0,LOW(@2)
                 	ORI  R@1,HIGH(@2)
                 	.ENDM
                 
                 	.MACRO __ORWRR
                 	OR   R@0,R@2
                 	OR   R@1,R@3
                 	.ENDM
                 
                 	.MACRO __EORWRR
                 	EOR  R@0,R@2
                 	EOR  R@1,R@3
                 	.ENDM
                 
                 	.MACRO __GETWRS
                 	LDD  R@0,Y+@2
                 	LDD  R@1,Y+@2+1
                 	.ENDM
                 
                 	.MACRO __PUTBSR
                 	STD  Y+@1,R@0
                 	.ENDM
                 
                 	.MACRO __PUTWSR
                 	STD  Y+@2,R@0
                 	STD  Y+@2+1,R@1
                 	.ENDM
                 
                 	.MACRO __MOVEWRR
                 	MOV  R@0,R@2
                 	MOV  R@1,R@3
                 	.ENDM
                 
                 	.MACRO __INWR
                 	IN   R@0,@2
                 	IN   R@1,@2+1
                 	.ENDM
                 
                 	.MACRO __OUTWR
                 	OUT  @2+1,R@1
                 	OUT  @2,R@0
                 	.ENDM
                 
                 	.MACRO __CALL1MN
                 	LDS  R30,@0+(@1)
                 	LDS  R31,@0+(@1)+1
                 	ICALL
                 	.ENDM
                 
                 	.MACRO __CALL1FN
                 	LDI  R30,LOW(2*@0+(@1))
                 	LDI  R31,HIGH(2*@0+(@1))
                 	CALL __GETW1PF
                 	ICALL
                 	.ENDM
                 
                 	.MACRO __CALL2EN
                 	LDI  R26,LOW(@0+(@1))
                 	LDI  R27,HIGH(@0+(@1))
                 	CALL __EEPROMRDW
                 	ICALL
                 	.ENDM
                 
                 	.MACRO __GETW1STACK
                 	IN   R26,SPL
                 	IN   R27,SPH
                 	ADIW R26,@0+1
                 	LD   R30,X+
                 	LD   R31,X
                 	.ENDM
                 
                 	.MACRO __GETD1STACK
                 	IN   R26,SPL
                 	IN   R27,SPH
                 	ADIW R26,@0+1
                 	LD   R30,X+
                 	LD   R31,X+
                 	LD   R22,X
                 	.ENDM
                 
                 	.MACRO __NBST
                 	BST  R@0,@1
                 	IN   R30,SREG
                 	LDI  R31,0x40
                 	EOR  R30,R31
                 	OUT  SREG,R30
                 	.ENDM
                 
                 
                 	.MACRO __PUTB1SN
                 	LDD  R26,Y+@0
                 	LDD  R27,Y+@0+1
                 	SUBI R26,LOW(-@1)
                 	SBCI R27,HIGH(-@1)
                 	ST   X,R30
                 	.ENDM
                 
                 	.MACRO __PUTW1SN
                 	LDD  R26,Y+@0
                 	LDD  R27,Y+@0+1
                 	SUBI R26,LOW(-@1)
                 	SBCI R27,HIGH(-@1)
                 	ST   X+,R30
                 	ST   X,R31
                 	.ENDM
                 
                 	.MACRO __PUTD1SN
                 	LDD  R26,Y+@0
                 	LDD  R27,Y+@0+1
                 	SUBI R26,LOW(-@1)
                 	SBCI R27,HIGH(-@1)
                 	CALL __PUTDP1
                 	.ENDM
                 
                 	.MACRO __PUTB1SNS
                 	LDD  R26,Y+@0
                 	LDD  R27,Y+@0+1
                 	ADIW R26,@1
                 	ST   X,R30
                 	.ENDM
                 
                 	.MACRO __PUTW1SNS
                 	LDD  R26,Y+@0
                 	LDD  R27,Y+@0+1
                 	ADIW R26,@1
                 	ST   X+,R30
                 	ST   X,R31
                 	.ENDM
                 
                 	.MACRO __PUTD1SNS
                 	LDD  R26,Y+@0
                 	LDD  R27,Y+@0+1
                 	ADIW R26,@1
                 	CALL __PUTDP1
                 	.ENDM
                 
                 	.MACRO __PUTB1PMN
                 	LDS  R26,@0
                 	LDS  R27,@0+1
                 	SUBI R26,LOW(-@1)
                 	SBCI R27,HIGH(-@1)
                 	ST   X,R30
                 	.ENDM
                 
                 	.MACRO __PUTW1PMN
                 	LDS  R26,@0
                 	LDS  R27,@0+1
                 	SUBI R26,LOW(-@1)
                 	SBCI R27,HIGH(-@1)
                 	ST   X+,R30
                 	ST   X,R31
                 	.ENDM
                 
                 	.MACRO __PUTD1PMN
                 	LDS  R26,@0
                 	LDS  R27,@0+1
                 	SUBI R26,LOW(-@1)
                 	SBCI R27,HIGH(-@1)
                 	CALL __PUTDP1
                 	.ENDM
                 
                 	.MACRO __PUTB1PMNS
                 	LDS  R26,@0
                 	LDS  R27,@0+1
                 	ADIW R26,@1
                 	ST   X,R30
                 	.ENDM
                 
                 	.MACRO __PUTW1PMNS
                 	LDS  R26,@0
                 	LDS  R27,@0+1
                 	ADIW R26,@1
                 	ST   X+,R30
                 	ST   X,R31
                 	.ENDM
                 
                 	.MACRO __PUTD1PMNS
                 	LDS  R26,@0
                 	LDS  R27,@0+1
                 	ADIW R26,@1
                 	CALL __PUTDP1
                 	.ENDM
                 
                 	.MACRO __PUTB1RN
                 	MOVW R26,R@0
                 	SUBI R26,LOW(-@1)
                 	SBCI R27,HIGH(-@1)
                 	ST   X,R30
                 	.ENDM
                 
                 	.MACRO __PUTW1RN
                 	MOVW R26,R@0
                 	SUBI R26,LOW(-@1)
                 	SBCI R27,HIGH(-@1)
                 	ST   X+,R30
                 	ST   X,R31
                 	.ENDM
                 
                 	.MACRO __PUTD1RN
                 	MOVW R26,R@0
                 	SUBI R26,LOW(-@1)
                 	SBCI R27,HIGH(-@1)
                 	CALL __PUTDP1
                 	.ENDM
                 
                 	.MACRO __PUTB1RNS
                 	MOVW R26,R@0
                 	ADIW R26,@1
                 	ST   X,R30
                 	.ENDM
                 
                 	.MACRO __PUTW1RNS
                 	MOVW R26,R@0
                 	ADIW R26,@1
                 	ST   X+,R30
                 	ST   X,R31
                 	.ENDM
                 
                 	.MACRO __PUTD1RNS
                 	MOVW R26,R@0
                 	ADIW R26,@1
                 	CALL __PUTDP1
                 	.ENDM
                 
                 	.MACRO __PUTB1RON
                 	MOV  R26,R@0
                 	MOV  R27,R@1
                 	SUBI R26,LOW(-@2)
                 	SBCI R27,HIGH(-@2)
                 	ST   X,R30
                 	.ENDM
                 
                 	.MACRO __PUTW1RON
                 	MOV  R26,R@0
                 	MOV  R27,R@1
                 	SUBI R26,LOW(-@2)
                 	SBCI R27,HIGH(-@2)
                 	ST   X+,R30
                 	ST   X,R31
                 	.ENDM
                 
                 	.MACRO __PUTD1RON
                 	MOV  R26,R@0
                 	MOV  R27,R@1
                 	SUBI R26,LOW(-@2)
                 	SBCI R27,HIGH(-@2)
                 	CALL __PUTDP1
                 	.ENDM
                 
                 	.MACRO __PUTB1RONS
                 	MOV  R26,R@0
                 	MOV  R27,R@1
                 	ADIW R26,@2
                 	ST   X,R30
                 	.ENDM
                 
                 	.MACRO __PUTW1RONS
                 	MOV  R26,R@0
                 	MOV  R27,R@1
                 	ADIW R26,@2
                 	ST   X+,R30
                 	ST   X,R31
                 	.ENDM
                 
                 	.MACRO __PUTD1RONS
                 	MOV  R26,R@0
                 	MOV  R27,R@1
                 	ADIW R26,@2
                 	CALL __PUTDP1
                 	.ENDM
                 
                 
                 	.MACRO __GETB1SX
                 	MOVW R30,R28
                 	SUBI R30,LOW(-@0)
                 	SBCI R31,HIGH(-@0)
                 	LD   R30,Z
                 	.ENDM
                 
                 	.MACRO __GETB1HSX
                 	MOVW R30,R28
                 	SUBI R30,LOW(-@0)
                 	SBCI R31,HIGH(-@0)
                 	LD   R31,Z
                 	.ENDM
                 
                 	.MACRO __GETW1SX
                 	MOVW R30,R28
                 	SUBI R30,LOW(-@0)
                 	SBCI R31,HIGH(-@0)
                 	LD   R0,Z+
                 	LD   R31,Z
                 	MOV  R30,R0
                 	.ENDM
                 
                 	.MACRO __GETD1SX
                 	MOVW R30,R28
                 	SUBI R30,LOW(-@0)
                 	SBCI R31,HIGH(-@0)
                 	LD   R0,Z+
                 	LD   R1,Z+
                 	LD   R22,Z+
                 	LD   R23,Z
                 	MOVW R30,R0
                 	.ENDM
                 
                 	.MACRO __GETB2SX
                 	MOVW R26,R28
                 	SUBI R26,LOW(-@0)
                 	SBCI R27,HIGH(-@0)
                 	LD   R26,X
                 	.ENDM
                 
                 	.MACRO __GETW2SX
                 	MOVW R26,R28
                 	SUBI R26,LOW(-@0)
                 	SBCI R27,HIGH(-@0)
                 	LD   R0,X+
                 	LD   R27,X
                 	MOV  R26,R0
                 	.ENDM
                 
                 	.MACRO __GETD2SX
                 	MOVW R26,R28
                 	SUBI R26,LOW(-@0)
                 	SBCI R27,HIGH(-@0)
                 	LD   R0,X+
                 	LD   R1,X+
                 	LD   R24,X+
                 	LD   R25,X
                 	MOVW R26,R0
                 	.ENDM
                 
                 	.MACRO __GETBRSX
                 	MOVW R30,R28
                 	SUBI R30,LOW(-@1)
                 	SBCI R31,HIGH(-@1)
                 	LD   R@0,Z
                 	.ENDM
                 
                 	.MACRO __GETWRSX
                 	MOVW R30,R28
                 	SUBI R30,LOW(-@2)
                 	SBCI R31,HIGH(-@2)
                 	LD   R@0,Z+
                 	LD   R@1,Z
                 	.ENDM
                 
                 	.MACRO __GETBRSX2
                 	MOVW R26,R28
                 	SUBI R26,LOW(-@1)
                 	SBCI R27,HIGH(-@1)
                 	LD   R@0,X
                 	.ENDM
                 
                 	.MACRO __GETWRSX2
                 	MOVW R26,R28
                 	SUBI R26,LOW(-@2)
                 	SBCI R27,HIGH(-@2)
                 	LD   R@0,X+
                 	LD   R@1,X
                 	.ENDM
                 
                 	.MACRO __LSLW8SX
                 	MOVW R30,R28
                 	SUBI R30,LOW(-@0)
                 	SBCI R31,HIGH(-@0)
                 	LD   R31,Z
                 	CLR  R30
                 	.ENDM
                 
                 	.MACRO __PUTB1SX
                 	MOVW R26,R28
                 	SUBI R26,LOW(-@0)
                 	SBCI R27,HIGH(-@0)
                 	ST   X,R30
                 	.ENDM
                 
                 	.MACRO __PUTW1SX
                 	MOVW R26,R28
                 	SUBI R26,LOW(-@0)
                 	SBCI R27,HIGH(-@0)
                 	ST   X+,R30
                 	ST   X,R31
                 	.ENDM
                 
                 	.MACRO __PUTD1SX
                 	MOVW R26,R28
                 	SUBI R26,LOW(-@0)
                 	SBCI R27,HIGH(-@0)
                 	ST   X+,R30
                 	ST   X+,R31
                 	ST   X+,R22
                 	ST   X,R23
                 	.ENDM
                 
                 	.MACRO __CLRW1SX
                 	MOVW R26,R28
                 	SUBI R26,LOW(-@0)
                 	SBCI R27,HIGH(-@0)
                 	ST   X+,R30
                 	ST   X,R30
                 	.ENDM
                 
                 	.MACRO __CLRD1SX
                 	MOVW R26,R28
                 	SUBI R26,LOW(-@0)
                 	SBCI R27,HIGH(-@0)
                 	ST   X+,R30
                 	ST   X+,R30
                 	ST   X+,R30
                 	ST   X,R30
                 	.ENDM
                 
                 	.MACRO __PUTB2SX
                 	MOVW R30,R28
                 	SUBI R30,LOW(-@0)
                 	SBCI R31,HIGH(-@0)
                 	ST   Z,R26
                 	.ENDM
                 
                 	.MACRO __PUTW2SX
                 	MOVW R30,R28
                 	SUBI R30,LOW(-@0)
                 	SBCI R31,HIGH(-@0)
                 	ST   Z+,R26
                 	ST   Z,R27
                 	.ENDM
                 
                 	.MACRO __PUTD2SX
                 	MOVW R30,R28
                 	SUBI R30,LOW(-@0)
                 	SBCI R31,HIGH(-@0)
                 	ST   Z+,R26
                 	ST   Z+,R27
                 	ST   Z+,R24
                 	ST   Z,R25
                 	.ENDM
                 
                 	.MACRO __PUTBSRX
                 	MOVW R30,R28
                 	SUBI R30,LOW(-@1)
                 	SBCI R31,HIGH(-@1)
                 	ST   Z,R@0
                 	.ENDM
                 
                 	.MACRO __PUTWSRX
                 	MOVW R30,R28
                 	SUBI R30,LOW(-@2)
                 	SBCI R31,HIGH(-@2)
                 	ST   Z+,R@0
                 	ST   Z,R@1
                 	.ENDM
                 
                 	.MACRO __PUTB1SNX
                 	MOVW R26,R28
                 	SUBI R26,LOW(-@0)
                 	SBCI R27,HIGH(-@0)
                 	LD   R0,X+
                 	LD   R27,X
                 	MOV  R26,R0
                 	SUBI R26,LOW(-@1)
                 	SBCI R27,HIGH(-@1)
                 	ST   X,R30
                 	.ENDM
                 
                 	.MACRO __PUTW1SNX
                 	MOVW R26,R28
                 	SUBI R26,LOW(-@0)
                 	SBCI R27,HIGH(-@0)
                 	LD   R0,X+
                 	LD   R27,X
                 	MOV  R26,R0
                 	SUBI R26,LOW(-@1)
                 	SBCI R27,HIGH(-@1)
                 	ST   X+,R30
                 	ST   X,R31
                 	.ENDM
                 
                 	.MACRO __PUTD1SNX
                 	MOVW R26,R28
                 	SUBI R26,LOW(-@0)
                 	SBCI R27,HIGH(-@0)
                 	LD   R0,X+
                 	LD   R27,X
                 	MOV  R26,R0
                 	SUBI R26,LOW(-@1)
                 	SBCI R27,HIGH(-@1)
                 	ST   X+,R30
                 	ST   X+,R31
                 	ST   X+,R22
                 	ST   X,R23
                 	.ENDM
                 
                 	.MACRO __MULBRR
                 	MULS R@0,R@1
                 	MOVW R30,R0
                 	.ENDM
                 
                 	.MACRO __MULBRRU
                 	MUL  R@0,R@1
                 	MOVW R30,R0
                 	.ENDM
                 
                 	.MACRO __MULBRR0
                 	MULS R@0,R@1
                 	.ENDM
                 
                 	.MACRO __MULBRRU0
                 	MUL  R@0,R@1
                 	.ENDM
                 
                 	.MACRO __MULBNWRU
                 	LDI  R26,@2
                 	MUL  R26,R@0
                 	MOVW R30,R0
                 	MUL  R26,R@1
                 	ADD  R31,R0
                 	.ENDM
                 
                 ;NAME DEFINITIONS FOR GLOBAL VARIABLES ALLOCATED TO REGISTERS
                 	.DEF _RealTimeSecond=R5
                 	.DEF _RefreshLcd=R4
                 	.DEF _PAGRINDINIS_LANGAS=R7
                 	.DEF _Call_1Second=R6
                 	.DEF _MenuRow=R9
                 	.DEF _MenuLowestRow=R8
                 	.DEF _MenuHighestRow=R11
                 	.DEF _MenuColumn=R10
                 	.DEF _MenuLowestColumn=R13
                 	.DEF _MenuHighestColumn=R12
                 
                 	.CSEG
                 	.ORG 0x00
                 
                 ;INTERRUPT VECTORS
000000 940c 00da 	JMP  __RESET
000002 940c 0000 	JMP  0x00
000004 940c 0000 	JMP  0x00
000006 940c 0000 	JMP  0x00
000008 940c 0000 	JMP  0x00
00000a 940c 0000 	JMP  0x00
00000c 940c 0000 	JMP  0x00
00000e 940c 0000 	JMP  0x00
000010 940c 0000 	JMP  0x00
000012 940c 0000 	JMP  0x00
000014 940c 0000 	JMP  0x00
000016 940c 02ac 	JMP  _timer0_ovf_isr
000018 940c 0000 	JMP  0x00
00001a 940c 0000 	JMP  0x00
00001c 940c 0000 	JMP  0x00
00001e 940c 0000 	JMP  0x00
000020 940c 0000 	JMP  0x00
000022 940c 0000 	JMP  0x00
000024 940c 0000 	JMP  0x00
000026 940c 0000 	JMP  0x00
000028 940c 0000 	JMP  0x00
                 
                 _0x0:
00002a 5245
00002b 4f52
00002c 3a52
00002d 4300      	.DB  0x45,0x52,0x52,0x4F,0x52,0x3A,0x0,0x43
00002e 4552
00002f 5441
000030 4e49
000031 2047      	.DB  0x52,0x45,0x41,0x54,0x49,0x4E,0x47,0x20
000032 454d
000033 554e
000034 5220
000035 574f      	.DB  0x4D,0x45,0x4E,0x55,0x20,0x52,0x4F,0x57
000036 4620
000037 4941
000038 454c
000039 2e44      	.DB  0x20,0x46,0x41,0x49,0x4C,0x45,0x44,0x2E
00003a 2000
00003b 4150
00003c 5247
00003d 4e49      	.DB  0x0,0x20,0x50,0x41,0x47,0x52,0x49,0x4E
00003e 4944
00003f 494e
000040 2053
000041 454d      	.DB  0x44,0x49,0x4E,0x49,0x53,0x20,0x4D,0x45
000042 494e
000043 0055
000044 2e31
000045 414c      	.DB  0x4E,0x49,0x55,0x0,0x31,0x2E,0x4C,0x41
000046 4b49
000047 5341
000048 203a
000049 3030      	.DB  0x49,0x4B,0x41,0x53,0x3A,0x20,0x30,0x30
00004a 303a
00004b 0030
00004c 2e32
00004d 4144      	.DB  0x3A,0x30,0x30,0x0,0x32,0x2E,0x44,0x41
00004e 4154
00004f 203a
000050 3032
000051 3131      	.DB  0x54,0x41,0x3A,0x20,0x32,0x30,0x31,0x31
000052 312e
000053 2e31
000054 3831
000055 3300      	.DB  0x2E,0x31,0x31,0x2E,0x31,0x38,0x0,0x33
000056 532e
000057 414b
000058 424d
000059 4a45      	.DB  0x2E,0x53,0x4B,0x41,0x4D,0x42,0x45,0x4A
00005a 4d49
00005b 4941
00005c 3400
00005d 4e2e      	.DB  0x49,0x4D,0x41,0x49,0x0,0x34,0x2E,0x4E
00005e 5355
00005f 4154
000060 5954
000061 414d      	.DB  0x55,0x53,0x54,0x41,0x54,0x59,0x4D,0x41
000062 0049
000063 3c20
000064 2000
000065 0020      	.DB  0x49,0x0,0x20,0x3C,0x0,0x20,0x20,0x0
000066 7c7c
000067 3e00
000068 2000
000069 207c      	.DB  0x7C,0x7C,0x0,0x3E,0x0,0x20,0x7C,0x20
00006a 2000
00006b 2020
00006c 2b00
00006d 2d00      	.DB  0x0,0x20,0x20,0x20,0x0,0x2B,0x0,0x2D
00006e 2a00
00006f 0020
000070 414c
000071 4b49      	.DB  0x0,0x2A,0x20,0x0,0x4C,0x41,0x49,0x4B
000072 5341
000073 203a
000074 4400
000075 5441      	.DB  0x41,0x53,0x3A,0x20,0x0,0x44,0x41,0x54
000076 3a41
000077 2000
000078 2020
000079 0020      	.DB  0x41,0x3A,0x0,0x20,0x20,0x20,0x20,0x0
00007a 4b53
00007b 4d41
00007c 4542
00007d 494a      	.DB  0x53,0x4B,0x41,0x4D,0x42,0x45,0x4A,0x49
00007e 414d
00007f 2049
000080 2020
000081 2020      	.DB  0x4D,0x41,0x49,0x20,0x20,0x20,0x20,0x20
000082 2020
000083 0020
000084 554e
000085 5453      	.DB  0x20,0x20,0x20,0x0,0x4E,0x55,0x53,0x54
000086 5441
000087 4d59
000088 4941
000089 2020      	.DB  0x41,0x54,0x59,0x4D,0x41,0x49,0x20,0x20
00008a 2020
00008b 2020
00008c 2020
00008d 0020      	.DB  0x20,0x20,0x20,0x20,0x20,0x20,0x20,0x0
00008e 2e31
00008f 4556
000090 594c
000091 554b      	.DB  0x31,0x2E,0x56,0x45,0x4C,0x59,0x4B,0x55
000092 4c20
000093 4941
000094 414b
000095 0053      	.DB  0x20,0x4C,0x41,0x49,0x4B,0x41,0x53,0x0
000096 2e32
000097 414b
000098 454c
000099 5544      	.DB  0x32,0x2E,0x4B,0x41,0x4C,0x45,0x44,0x55
00009a 4c20
00009b 4941
00009c 414b
00009d 0053      	.DB  0x20,0x4C,0x41,0x49,0x4B,0x41,0x53,0x0
00009e 2e33
00009f 4945
0000a0 494c
0000a1 494e      	.DB  0x33,0x2E,0x45,0x49,0x4C,0x49,0x4E,0x49
0000a2 2053
0000a3 414c
0000a4 4b49
0000a5 002e      	.DB  0x53,0x20,0x4C,0x41,0x49,0x4B,0x2E,0x0
0000a6 4f4b
0000a7 4144
0000a8 3a53
0000a9 0020      	.DB  0x4B,0x4F,0x44,0x41,0x53,0x3A,0x20,0x0
0000aa 2020
0000ab 2020
0000ac 414c
0000ad 4b49      	.DB  0x20,0x20,0x20,0x20,0x4C,0x41,0x49,0x4B
0000ae 5341
0000af 2020
0000b0 2020
0000b1 2020      	.DB  0x41,0x53,0x20,0x20,0x20,0x20,0x20,0x20
0000b2 2000
0000b3 2020
0000b4 4220
0000b5 4941      	.DB  0x0,0x20,0x20,0x20,0x20,0x42,0x41,0x49
0000b6 4547
0000b7 4953
0000b8 2020
0000b9 2020      	.DB  0x47,0x45,0x53,0x49,0x20,0x20,0x20,0x20
0000ba 0020
0000bb 2020
0000bc 2020
0000bd 4b20      	.DB  0x20,0x0,0x20,0x20,0x20,0x20,0x20,0x4B
0000be 444f
0000bf 5341
0000c0 2020
0000c1 2020      	.DB  0x4F,0x44,0x41,0x53,0x20,0x20,0x20,0x20
0000c2 2020
0000c3 2000
0000c4 2020
0000c5 4554      	.DB  0x20,0x20,0x0,0x20,0x20,0x20,0x54,0x45
0000c6 5349
0000c7 4e49
0000c8 4147
0000c9 2053      	.DB  0x49,0x53,0x49,0x4E,0x47,0x41,0x53,0x20
0000ca 2020
0000cb 0020
0000cc 2020
0000cd 454e      	.DB  0x20,0x20,0x20,0x0,0x20,0x20,0x4E,0x45
0000ce 4554
0000cf 5349
0000d0 4e49
0000d1 4147      	.DB  0x54,0x45,0x49,0x53,0x49,0x4E,0x47,0x41
0000d2 2053
0000d3 2020
D:\TOMOSIUKS\-=CPU=-\Petrui valdikl v1 -=C=-\List\Petrui valdikl.asm(1131): warning: .cseg .db misalignment - padding zero byte
0000d4 0000      	.DB  0x53,0x20,0x20,0x20,0x0
                 _0x2000003:
0000d5 c080      	.DB  0x80,0xC0
                 
                 __GLOBAL_INI_TBL:
0000d6 0002      	.DW  0x02
0000d7 0291      	.DW  __base_y_G100
0000d8 01aa      	.DW  _0x2000003*2
                 
                 _0xFFFFFFFF:
0000d9 0000      	.DW  0
                 
                 __RESET:
0000da 94f8      	CLI
0000db 27ee      	CLR  R30
0000dc bbec      	OUT  EECR,R30
                 
                 ;INTERRUPT VECTORS ARE PLACED
                 ;AT THE START OF FLASH
0000dd e0f1      	LDI  R31,1
0000de bffb      	OUT  GICR,R31
0000df bfeb      	OUT  GICR,R30
0000e0 bfe5      	OUT  MCUCR,R30
                 
                 ;DISABLE WATCHDOG
0000e1 e1f8      	LDI  R31,0x18
0000e2 bdf1      	OUT  WDTCR,R31
0000e3 bde1      	OUT  WDTCR,R30
                 
                 ;CLEAR R2-R14
0000e4 e08d      	LDI  R24,(14-2)+1
0000e5 e0a2      	LDI  R26,2
0000e6 27bb      	CLR  R27
                 __CLEAR_REG:
0000e7 93ed      	ST   X+,R30
0000e8 958a      	DEC  R24
0000e9 f7e9      	BRNE __CLEAR_REG
                 
                 ;CLEAR SRAM
0000ea e080      	LDI  R24,LOW(0x800)
0000eb e098      	LDI  R25,HIGH(0x800)
0000ec e6a0      	LDI  R26,0x60
                 __CLEAR_SRAM:
0000ed 93ed      	ST   X+,R30
0000ee 9701      	SBIW R24,1
0000ef f7e9      	BRNE __CLEAR_SRAM
                 
                 ;GLOBAL VARIABLES INITIALIZATION
0000f0 eaec      	LDI  R30,LOW(__GLOBAL_INI_TBL*2)
0000f1 e0f1      	LDI  R31,HIGH(__GLOBAL_INI_TBL*2)
                 __GLOBAL_INI_NEXT:
0000f2 9185      	LPM  R24,Z+
0000f3 9195      	LPM  R25,Z+
0000f4 9700      	SBIW R24,0
0000f5 f061      	BREQ __GLOBAL_INI_END
0000f6 91a5      	LPM  R26,Z+
0000f7 91b5      	LPM  R27,Z+
0000f8 9005      	LPM  R0,Z+
0000f9 9015      	LPM  R1,Z+
0000fa 01bf      	MOVW R22,R30
0000fb 01f0      	MOVW R30,R0
                 __GLOBAL_INI_LOOP:
0000fc 9005      	LPM  R0,Z+
0000fd 920d      	ST   X+,R0
0000fe 9701      	SBIW R24,1
0000ff f7e1      	BRNE __GLOBAL_INI_LOOP
000100 01fb      	MOVW R30,R22
000101 cff0      	RJMP __GLOBAL_INI_NEXT
                 __GLOBAL_INI_END:
                 
                 ;STACK POINTER INITIALIZATION
000102 e5ef      	LDI  R30,LOW(0x85F)
000103 bfed      	OUT  SPL,R30
000104 e0e8      	LDI  R30,HIGH(0x85F)
000105 bfee      	OUT  SPH,R30
                 
                 ;DATA STACK POINTER INITIALIZATION
000106 e6c0      	LDI  R28,LOW(0x260)
000107 e0d2      	LDI  R29,HIGH(0x260)
                 
000108 940c 02f3 	JMP  _main
                 
                 	.ESEG
                 	.ORG 0
                 
                 	.DSEG
                 	.ORG 0x260
                 
                 	.CSEG
                 ;/*****************************************************
                 ;This program was produced by the
                 ;CodeWizardAVR V2.04.4a Advanced
                 ;Automatic Program Generator
                 ;© Copyright 1998-2009 Pavel Haiduc, HP InfoTech s.r.l.
                 ;http://www.hpinfotech.com
                 ;
                 ;Project :
                 ;Version :
                 ;Date    : 10/7/2011
                 ;Author  : NeVaDa
                 ;Company : Home
                 ;Comments:
                 ;
                 ;
                 ;Chip type               : ATmega32
                 ;Program type            : Application
                 ;AVR Core Clock frequency: 4.000000 MHz
                 ;Memory model            : Small
                 ;External RAM size       : 0
                 ;Data Stack size         : 512
                 ;*****************************************************/
                 ;
                 ;#include <mega32.h>
                 	#ifndef __SLEEP_DEFINED__
                 	#define __SLEEP_DEFINED__
                 	.EQU __se_bit=0x80
                 	.EQU __sm_mask=0x70
                 	.EQU __sm_powerdown=0x20
                 	.EQU __sm_powersave=0x30
                 	.EQU __sm_standby=0x60
                 	.EQU __sm_ext_standby=0x70
                 	.EQU __sm_adc_noise_red=0x10
                 	.SET power_ctrl_reg=mcucr
                 	#endif
                 ;#include <delay.h>
                 ;
                 ;// Alphanumeric LCD Module functions portc
                 ;#asm
                    .equ __lcd_port=0x15
                 ; 0000 001E #endasm
                 ;#include <lcd.h>
                 ;
                 ;///////////// BUTTONS /////////////
                 ;// " <||> | +||-||* "
                 ;#define BUTTON_DESCRIPTION1   " <"
                 ;#define BUTTON_DESCRIPTION1_0 "  "
                 ;
                 ;#define BUTTON_DESCRIPTION2   "||"
                 ;#define BUTTON_DESCRIPTION2_0 "  "
                 ;
                 ;#define BUTTON_DESCRIPTION3   ">"
                 ;#define BUTTON_DESCRIPTION3_0 " "
                 ;
                 ;#define BUTTON_DESCRIPTION4   " | "
                 ;#define BUTTON_DESCRIPTION4_0 "   "
                 ;
                 ;#define BUTTON_DESCRIPTION5   "+"
                 ;#define BUTTON_DESCRIPTION5_0 " "
                 ;
                 ;#define BUTTON_DESCRIPTION6   "||"
                 ;#define BUTTON_DESCRIPTION6_0 "  "
                 ;
                 ;#define BUTTON_DESCRIPTION7   "-"
                 ;#define BUTTON_DESCRIPTION7_0 " "
                 ;
                 ;#define BUTTON_DESCRIPTION8   "||"
                 ;#define BUTTON_DESCRIPTION8_0 "  "
                 ;
                 ;#define BUTTON_DESCRIPTION9   "* "
                 ;#define BUTTON_DESCRIPTION9_0 "  "
                 ;
                 ;// BUTTON FILTRATION
                 ;#define ButtonFiltrationTimer 20 // x*cycle (cycle~1ms)
                 ;
                 ;// PINS
                 ;#define BUTTON_INPUT1 PIND.6
                 ;#define BUTTON_INPUT2 PIND.5
                 ;#define BUTTON_INPUT3 PIND.4
                 ;#define BUTTON_INPUT4 PIND.3
                 ;#define BUTTON_INPUT5 PIND.2
                 ;///////////////////////////////////
                 ;
                 ;
                 ;// Inputs / Outputs
                 ;#define LCD_LED PORTA.7
                 ;
                 ;// Real Time
                 ;eeprom unsigned int RealTimeYear;
                 ;eeprom signed char RealTimeMonth, RealTimeDay, RealTimeHour, RealTimeMinute;
                 ;unsigned char RealTimeSecond;
                 ;
                 ;// Lcd Address
                 ;signed char Address[3];
                 ;char RefreshLcd;
                 ;
                 ;// Other
                 ;char PAGRINDINIS_LANGAS;
                 ;char Call_1Second;
                 ;
                 ;
                 ;// Meniu sistema
                 ;#define LCD_LENGHT 20
                 ;#define LCD_WIDTH 4
                 ;
                 ;#define MAX_MENU_TABLES 10
                 ;#define MAX_MENU_ROWS_ON_TABLE 10
                 ;#define MAX_MENU_CHARACTERS_IN_ROW 20
                 ;#define MAX_MENU_ABSOLUTE_ROWS 10
                 ;#define MAX_MENU_BUTTONS 5
                 ;
                 ;#define pokeb(addr,data) *((unsigned char *)(addr))=(data)
                 ;#define pokew(addr,data) *((unsigned int *)(addr))=(data)
                 ;#define peekb(addr) *((unsigned char *)(addr))
                 ;#define peekw(addr) *((unsigned int *)(addr))
                 ;
                 ;unsigned char MenuAddress[3];
                 ;
                 ;unsigned char MenuRow;
                 ;unsigned char MenuLowestRow;
                 ;unsigned char MenuHighestRow;
                 ;
                 ;unsigned char MenuColumn;
                 ;unsigned char MenuLowestColumn;
                 ;unsigned char MenuHighestColumn;
                 ;
                 ;
                 ;unsigned char MenuCreated[MAX_MENU_TABLES];
                 ;unsigned char MenuRowTableId[MAX_MENU_ABSOLUTE_ROWS];
                 ;unsigned char MenuRowIdInTable[MAX_MENU_ABSOLUTE_ROWS];
                 ;unsigned char MenuRowText[MAX_MENU_ABSOLUTE_ROWS][MAX_MENU_CHARACTERS_IN_ROW];
                 ;unsigned char MenuRowLinksTo[MAX_MENU_ABSOLUTE_ROWS][3];
                 ;
                 ;void MenuShowError(char flash *string){
                 ; 0000 007B void MenuShowError(char flash *string){
                 
                 	.CSEG
                 ; 0000 007C lcd_clear();
                 ;	*string -> Y+0
                 ; 0000 007D lcd_putsf("ERROR:");
                 ; 0000 007E lcd_putsf(string);
                 ; 0000 007F delay_ms(15000);
                 ; 0000 0080 }
                 ;
                 ;unsigned char CreateMenuTable(unsigned char x, unsigned char y, unsigned char z,
                 ; 0000 0083                         unsigned char Rows, unsigned char RowUpButton, unsigned char RowDownButton,
                 ; 0000 0084                         unsigned char ColumnCount){
                 ; 0000 0085 
                 ; 0000 0086 /*unsigned char MenuID;
                 ; 0000 0087     for(MenuID=0;MenuID<MAX_MENU_COUNT;MenuID++){
                 ; 0000 0088         if(MenuCreated[MenuID]==false){
                 ; 0000 0089         MenuAddress[MenuID] = Address;
                 ; 0000 008A         MenuCreated[MenuID] = true;
                 ; 0000 008B         return MenuID;
                 ; 0000 008C         }
                 ; 0000 008D     } */
                 ; 0000 008E return 0;
                 ;	x -> Y+6
                 ;	y -> Y+5
                 ;	z -> Y+4
                 ;	Rows -> Y+3
                 ;	RowUpButton -> Y+2
                 ;	RowDownButton -> Y+1
                 ;	ColumnCount -> Y+0
                 ; 0000 008F }
                 ;
                 ;unsigned char CreateMenuRow(unsigned char TableId, unsigned char Row, char flash *string, unsigned char IsSelectable, unsigned char LocateToX, unsigned char LocateToY, unsigned char LocateToZ){
                 ; 0000 0091 unsigned char CreateMenuRow(unsigned char TableId, unsigned char Row, char flash *string, unsigned char IsSelectable, unsigned char LocateToX, unsigned char LocateToY, unsigned char LocateToZ){
                 ; 0000 0092     if(MenuCreated[TableId]==1){
                 ;	TableId -> Y+7
                 ;	Row -> Y+6
                 ;	*string -> Y+4
                 ;	IsSelectable -> Y+3
                 ;	LocateToX -> Y+2
                 ;	LocateToY -> Y+1
                 ;	LocateToZ -> Y+0
                 ; 0000 0093 
                 ; 0000 0094 
                 ; 0000 0095     }
                 ; 0000 0096 MenuShowError("CREATING MENU ROW FAILED.");
                 ; 0000 0097 return 0;
                 ; 0000 0098 }
                 ;
                 ;void RefreshMenu(){
                 ; 0000 009A void RefreshMenu(){
                 ; 0000 009B 
                 ; 0000 009C }
                 ;
                 ;
                 ;void InitMenuTexts(){
                 ; 0000 009F void InitMenuTexts(){
                 ; 0000 00A0 unsigned char TableId = CreateMenuTable(0,0,0,4,0,1,20);
                 ; 0000 00A1 CreateMenuRow(TableId,0, " PAGRINDINIS MENIU",  0, 0,0,0);
                 ;	TableId -> R17
                 ; 0000 00A2 CreateMenuRow(TableId,1, "1.LAIKAS: 00:00",     1, 1,0,0);
                 ; 0000 00A3 CreateMenuRow(TableId,2, "2.DATA: 2011.11.18",  1, 2,0,0);
                 ; 0000 00A4 CreateMenuRow(TableId,3, "3.SKAMBEJIMAI",       1, 3,0,0);
                 ; 0000 00A5 CreateMenuRow(TableId,4, "4.NUSTATYMAI",        1, 4,0,0);
                 ; 0000 00A6 
                 ; 0000 00A7 
                 ; 0000 00A8 
                 ; 0000 00A9 
                 ; 0000 00AA 
                 ; 0000 00AB TableId = CreateMenuTable(3,0,0,4,0,1,20);
                 ; 0000 00AC 
                 ; 0000 00AD 
                 ; 0000 00AE 
                 ; 0000 00AF }
                 ;
                 ;void UpdateMenuTexts(){
                 ; 0000 00B1 void UpdateMenuTexts(){
                 ; 0000 00B2 
                 ; 0000 00B3 }
                 ;
                 ;void UpdateMenuVariables(){
                 ; 0000 00B5 void UpdateMenuVariables(){
                 ; 0000 00B6 
                 ; 0000 00B7 }
                 ;
                 ;///////////////////////////// FUNCTIONS /////////////////////////////////////////
                 ;char NumToIndex(char Num){
                 ; 0000 00BA char NumToIndex(char Num){
                 _NumToIndex:
                 ; 0000 00BB     if(Num==0){     return '0';}
                 ;	Num -> Y+0
00010a 81e8      	LD   R30,Y
00010b 30e0      	CPI  R30,0
00010c f411      	BRNE _0x4
00010d e3e0      	LDI  R30,LOW(48)
00010e c02e      	RJMP _0x2020004
                 ; 0000 00BC     else if(Num==1){return '1';}
                 _0x4:
00010f 81a8      	LD   R26,Y
000110 30a1      	CPI  R26,LOW(0x1)
000111 f411      	BRNE _0x6
000112 e3e1      	LDI  R30,LOW(49)
000113 c029      	RJMP _0x2020004
                 ; 0000 00BD     else if(Num==2){return '2';}
                 _0x6:
000114 81a8      	LD   R26,Y
000115 30a2      	CPI  R26,LOW(0x2)
000116 f411      	BRNE _0x8
000117 e3e2      	LDI  R30,LOW(50)
000118 c024      	RJMP _0x2020004
                 ; 0000 00BE     else if(Num==3){return '3';}
                 _0x8:
000119 81a8      	LD   R26,Y
00011a 30a3      	CPI  R26,LOW(0x3)
00011b f411      	BRNE _0xA
00011c e3e3      	LDI  R30,LOW(51)
00011d c01f      	RJMP _0x2020004
                 ; 0000 00BF     else if(Num==4){return '4';}
                 _0xA:
00011e 81a8      	LD   R26,Y
00011f 30a4      	CPI  R26,LOW(0x4)
000120 f411      	BRNE _0xC
000121 e3e4      	LDI  R30,LOW(52)
000122 c01a      	RJMP _0x2020004
                 ; 0000 00C0     else if(Num==5){return '5';}
                 _0xC:
000123 81a8      	LD   R26,Y
000124 30a5      	CPI  R26,LOW(0x5)
000125 f411      	BRNE _0xE
000126 e3e5      	LDI  R30,LOW(53)
000127 c015      	RJMP _0x2020004
                 ; 0000 00C1     else if(Num==6){return '6';}
                 _0xE:
000128 81a8      	LD   R26,Y
000129 30a6      	CPI  R26,LOW(0x6)
00012a f411      	BRNE _0x10
00012b e3e6      	LDI  R30,LOW(54)
00012c c010      	RJMP _0x2020004
                 ; 0000 00C2     else if(Num==7){return '7';}
                 _0x10:
00012d 81a8      	LD   R26,Y
00012e 30a7      	CPI  R26,LOW(0x7)
00012f f411      	BRNE _0x12
000130 e3e7      	LDI  R30,LOW(55)
000131 c00b      	RJMP _0x2020004
                 ; 0000 00C3     else if(Num==8){return '8';}
                 _0x12:
000132 81a8      	LD   R26,Y
000133 30a8      	CPI  R26,LOW(0x8)
000134 f411      	BRNE _0x14
000135 e3e8      	LDI  R30,LOW(56)
000136 c006      	RJMP _0x2020004
                 ; 0000 00C4     else if(Num==9){return '9';}
                 _0x14:
000137 81a8      	LD   R26,Y
000138 30a9      	CPI  R26,LOW(0x9)
000139 f411      	BRNE _0x16
00013a e3e9      	LDI  R30,LOW(57)
00013b c001      	RJMP _0x2020004
                 ; 0000 00C5     else{           return '-';}
                 _0x16:
00013c e2ed      	LDI  R30,LOW(45)
                 ; 0000 00C6 return 0;
                 _0x2020004:
00013d 9621      	ADIW R28,1
00013e 9508      	RET
                 ; 0000 00C7 }
                 ;
                 ;char DayCountInMonth(unsigned int year, char month){
                 ; 0000 00C9 char DayCountInMonth(unsigned int year, char month){
                 _DayCountInMonth:
                 ; 0000 00CA     if((month==1)||(month==3)||(month==5)||(month==7)||(month==8)||(month==10)||(month==12)){
                 ;	year -> Y+1
                 ;	month -> Y+0
00013f 81a8      	LD   R26,Y
000140 30a1      	CPI  R26,LOW(0x1)
000141 f061      	BREQ _0x19
000142 30a3      	CPI  R26,LOW(0x3)
000143 f051      	BREQ _0x19
000144 30a5      	CPI  R26,LOW(0x5)
000145 f041      	BREQ _0x19
000146 30a7      	CPI  R26,LOW(0x7)
000147 f031      	BREQ _0x19
000148 30a8      	CPI  R26,LOW(0x8)
000149 f021      	BREQ _0x19
00014a 30aa      	CPI  R26,LOW(0xA)
00014b f011      	BREQ _0x19
00014c 30ac      	CPI  R26,LOW(0xC)
00014d f411      	BRNE _0x18
                 _0x19:
                 ; 0000 00CB     return 31;
00014e e1ef      	LDI  R30,LOW(31)
00014f c02a      	RJMP _0x2020003
                 ; 0000 00CC     }
                 ; 0000 00CD     else if((month==4)||(month==6)||(month==9)||(month==11)){
                 _0x18:
000150 81a8      	LD   R26,Y
000151 30a4      	CPI  R26,LOW(0x4)
000152 f031      	BREQ _0x1D
000153 30a6      	CPI  R26,LOW(0x6)
000154 f021      	BREQ _0x1D
000155 30a9      	CPI  R26,LOW(0x9)
000156 f011      	BREQ _0x1D
000157 30ab      	CPI  R26,LOW(0xB)
000158 f411      	BRNE _0x1C
                 _0x1D:
                 ; 0000 00CE     return 30;
000159 e1ee      	LDI  R30,LOW(30)
00015a c01f      	RJMP _0x2020003
                 ; 0000 00CF     }
                 ; 0000 00D0     else if(month==2){
                 _0x1C:
00015b 81a8      	LD   R26,Y
00015c 30a2      	CPI  R26,LOW(0x2)
00015d f4d9      	BRNE _0x20
                 ; 0000 00D1     unsigned int a;
                 ; 0000 00D2     a = year/4;
00015e 9722      	SBIW R28,2
                 ;	year -> Y+3
                 ;	month -> Y+2
                 ;	a -> Y+0
00015f 81eb      	LDD  R30,Y+3
000160 81fc      	LDD  R31,Y+3+1
000161 940e 0ae9 	CALL __LSRW2
000163 83e8      	ST   Y,R30
000164 83f9      	STD  Y+1,R31
                 ; 0000 00D3     a = a*4;
000165 81a8      	LD   R26,Y
000166 81b9      	LDD  R27,Y+1
000167 e0e4      	LDI  R30,LOW(4)
000168 940e 0b20 	CALL __MULB1W2U
00016a 83e8      	ST   Y,R30
00016b 83f9      	STD  Y+1,R31
                 ; 0000 00D4         if(a==year){
00016c 81eb      	LDD  R30,Y+3
00016d 81fc      	LDD  R31,Y+3+1
00016e 81a8      	LD   R26,Y
00016f 81b9      	LDD  R27,Y+1
000170 17ea      	CP   R30,R26
000171 07fb      	CPC  R31,R27
000172 f419      	BRNE _0x21
                 ; 0000 00D5         return 29;
000173 e1ed      	LDI  R30,LOW(29)
000174 9622      	ADIW R28,2
000175 c004      	RJMP _0x2020003
                 ; 0000 00D6         }
                 ; 0000 00D7         else{
                 _0x21:
                 ; 0000 00D8         return 28;
000176 e1ec      	LDI  R30,LOW(28)
000177 9622      	ADIW R28,2
000178 c001      	RJMP _0x2020003
                 ; 0000 00D9         }
                 ; 0000 00DA     }
                 ; 0000 00DB     else{
                 _0x20:
                 ; 0000 00DC     return 0;
000179 e0e0      	LDI  R30,LOW(0)
                 ; 0000 00DD     }
                 ; 0000 00DE }
                 _0x2020003:
00017a 9623      	ADIW R28,3
00017b 9508      	RET
                 ;
                 ;unsigned int WhatIsTheCode(){
                 ; 0000 00E0 unsigned int WhatIsTheCode(){
                 _WhatIsTheCode:
                 ; 0000 00E1 return (RealTimeYear-2000)*RealTimeMonth*RealTimeDay;
00017c 940e 0978 	CALL SUBOPT_0x0
00017e 5de0      	SUBI R30,LOW(2000)
00017f 40f7      	SBCI R31,HIGH(2000)
000180 010f      	MOVW R0,R30
000181 940e 097d 	CALL SUBOPT_0x1
000183 940e 0982 	CALL SUBOPT_0x2
000185 010f      	MOVW R0,R30
000186 940e 0989 	CALL SUBOPT_0x3
000188 940e 0982 	CALL SUBOPT_0x2
00018a 9508      	RET
                 ; 0000 00E2 }
                 ;
                 ;char lcd_put_number(char Type, char Lenght, char IsSign,
                 ; 0000 00E5 
                 ; 0000 00E6                     char NumbersAfterDot,
                 ; 0000 00E7 
                 ; 0000 00E8                     unsigned long int Number0,
                 ; 0000 00E9                     signed long int Number1){
                 _lcd_put_number:
                 ; 0000 00EA     if(Lenght>0){
                 ;	Type -> Y+11
                 ;	Lenght -> Y+10
                 ;	IsSign -> Y+9
                 ;	NumbersAfterDot -> Y+8
                 ;	Number0 -> Y+4
                 ;	Number1 -> Y+0
00018b 85aa      	LDD  R26,Y+10
00018c 30a1      	CPI  R26,LOW(0x1)
00018d f410      	BRSH PC+3
00018e 940c 022b 	JMP _0x24
                 ; 0000 00EB     unsigned long int k = 1;
                 ; 0000 00EC     unsigned char i;
                 ; 0000 00ED         for(i=0;i<Lenght-1;i++) k = k*10;
000190 9725      	SBIW R28,5
000191 e0e1      	LDI  R30,LOW(1)
000192 83e9      	STD  Y+1,R30
000193 e0e0      	LDI  R30,LOW(0)
000194 83ea      	STD  Y+2,R30
000195 83eb      	STD  Y+3,R30
000196 83ec      	STD  Y+4,R30
                 ;	Type -> Y+16
                 ;	Lenght -> Y+15
                 ;	IsSign -> Y+14
                 ;	NumbersAfterDot -> Y+13
                 ;	Number0 -> Y+9
                 ;	Number1 -> Y+5
                 ;	k -> Y+1
                 ;	i -> Y+0
000197 83e8      	ST   Y,R30
                 _0x26:
000198 85ef      	LDD  R30,Y+15
000199 e0f0      	LDI  R31,0
00019a 9731      	SBIW R30,1
00019b 81a8      	LD   R26,Y
00019c e0b0      	LDI  R27,0
00019d 17ae      	CP   R26,R30
00019e 07bf      	CPC  R27,R31
00019f f454      	BRGE _0x27
0001a0 940e 098e 	CALL SUBOPT_0x4
0001a2 940e 0993 	CALL SUBOPT_0x5
0001a4 940e 099a 	CALL SUBOPT_0x6
0001a6 81e8      	LD   R30,Y
0001a7 5fef      	SUBI R30,-LOW(1)
0001a8 83e8      	ST   Y,R30
0001a9 cfee      	RJMP _0x26
                 _0x27:
                 ; 0000 00EF if(Type==0){
0001aa 89e8      	LDD  R30,Y+16
0001ab 30e0      	CPI  R30,0
0001ac f5a1      	BRNE _0x28
                 ; 0000 00F0         unsigned long int a;
                 ; 0000 00F1         unsigned char b;
                 ; 0000 00F2         a = Number0;
0001ad 9725      	SBIW R28,5
                 ;	Type -> Y+21
                 ;	Lenght -> Y+20
                 ;	IsSign -> Y+19
                 ;	NumbersAfterDot -> Y+18
                 ;	Number0 -> Y+14
                 ;	Number1 -> Y+10
                 ;	k -> Y+6
                 ;	i -> Y+5
                 ;	a -> Y+1
                 ;	b -> Y+0
                +
0001ae 85ee     +LDD R30 , Y + 14
0001af 85ff     +LDD R31 , Y + 14 + 1
0001b0 8968     +LDD R22 , Y + 14 + 2
0001b1 8979     +LDD R23 , Y + 14 + 3
                 	__GETD1S 14
0001b2 940e 099a 	CALL SUBOPT_0x6
                 ; 0000 00F3 
                 ; 0000 00F4             if(IsSign==1){
0001b4 89ab      	LDD  R26,Y+19
0001b5 30a1      	CPI  R26,LOW(0x1)
0001b6 f421      	BRNE _0x29
                 ; 0000 00F5             lcd_putchar('+');
0001b7 e2eb      	LDI  R30,LOW(43)
0001b8 93ea      	ST   -Y,R30
0001b9 940e 0901 	CALL _lcd_putchar
                 ; 0000 00F6             }
                 ; 0000 00F7 
                 ; 0000 00F8             if(a<0){
                 _0x29:
0001bb 940e 099f 	CALL SUBOPT_0x7
                 ; 0000 00F9             a = a*(-1);
                 ; 0000 00FA             }
                 ; 0000 00FB 
                 ; 0000 00FC             if(k*10<a){
0001bd 940e 09a4 	CALL SUBOPT_0x8
0001bf 940e 09a9 	CALL SUBOPT_0x9
0001c1 f420      	BRSH _0x2B
                 ; 0000 00FD             a = k*10 - 1;
0001c2 940e 09a4 	CALL SUBOPT_0x8
0001c4 940e 09af 	CALL SUBOPT_0xA
                 ; 0000 00FE             }
                 ; 0000 00FF 
                 ; 0000 0100             for(i=0;i<Lenght;i++){
                 _0x2B:
0001c6 e0e0      	LDI  R30,LOW(0)
0001c7 83ed      	STD  Y+5,R30
                 _0x2D:
0001c8 89ec      	LDD  R30,Y+20
0001c9 81ad      	LDD  R26,Y+5
0001ca 17ae      	CP   R26,R30
0001cb f490      	BRSH _0x2E
                 ; 0000 0101                 if(NumbersAfterDot!=0){
0001cc 89ea      	LDD  R30,Y+18
0001cd 30e0      	CPI  R30,0
0001ce f039      	BREQ _0x2F
                 ; 0000 0102                     if(Lenght-NumbersAfterDot==i){
0001cf 940e 09b4 	CALL SUBOPT_0xB
0001d1 f421      	BRNE _0x30
                 ; 0000 0103                     lcd_putchar('.');
0001d2 e2ee      	LDI  R30,LOW(46)
0001d3 93ea      	ST   -Y,R30
0001d4 940e 0901 	CALL _lcd_putchar
                 ; 0000 0104                     }
                 ; 0000 0105                 }
                 _0x30:
                 ; 0000 0106             b = a/k;
                 _0x2F:
0001d6 940e 09bf 	CALL SUBOPT_0xC
0001d8 940e 09c4 	CALL SUBOPT_0xD
                 ; 0000 0107             lcd_putchar( NumToIndex( b ) );
                 ; 0000 0108             a = a - b*k;
                 ; 0000 0109             k = k/10;
                 ; 0000 010A             }
0001da 81ed      	LDD  R30,Y+5
0001db 5fef      	SUBI R30,-LOW(1)
0001dc 83ed      	STD  Y+5,R30
0001dd cfea      	RJMP _0x2D
                 _0x2E:
                 ; 0000 010B         return 1;
0001de e0e1      	LDI  R30,LOW(1)
0001df 962a      	ADIW R28,10
0001e0 c04b      	RJMP _0x2020002
                 ; 0000 010C         }
                 ; 0000 010D 
                 ; 0000 010E         else if(Type==1){
                 _0x28:
0001e1 89a8      	LDD  R26,Y+16
0001e2 30a1      	CPI  R26,LOW(0x1)
0001e3 f011      	BREQ PC+3
0001e4 940c 022a 	JMP _0x32
                 ; 0000 010F         signed long int a;
                 ; 0000 0110         unsigned char b;
                 ; 0000 0111         a = Number1;
0001e6 9725      	SBIW R28,5
                 ;	Type -> Y+21
                 ;	Lenght -> Y+20
                 ;	IsSign -> Y+19
                 ;	NumbersAfterDot -> Y+18
                 ;	Number0 -> Y+14
                 ;	Number1 -> Y+10
                 ;	k -> Y+6
                 ;	i -> Y+5
                 ;	a -> Y+1
                 ;	b -> Y+0
                +
0001e7 85ea     +LDD R30 , Y + 10
0001e8 85fb     +LDD R31 , Y + 10 + 1
0001e9 856c     +LDD R22 , Y + 10 + 2
0001ea 857d     +LDD R23 , Y + 10 + 3
                 	__GETD1S 10
0001eb 940e 099a 	CALL SUBOPT_0x6
                 ; 0000 0112 
                 ; 0000 0113             if(IsSign==1){
0001ed 89ab      	LDD  R26,Y+19
0001ee 30a1      	CPI  R26,LOW(0x1)
0001ef f449      	BRNE _0x33
                 ; 0000 0114                 if(a>=0){
0001f0 81ac      	LDD  R26,Y+4
0001f1 23aa      	TST  R26
0001f2 f012      	BRMI _0x34
                 ; 0000 0115                 lcd_putchar('+');
0001f3 e2eb      	LDI  R30,LOW(43)
0001f4 c001      	RJMP _0x15C
                 ; 0000 0116                 }
                 ; 0000 0117                 else{
                 _0x34:
                 ; 0000 0118                 lcd_putchar('-');
0001f5 e2ed      	LDI  R30,LOW(45)
                 _0x15C:
0001f6 93ea      	ST   -Y,R30
0001f7 940e 0901 	CALL _lcd_putchar
                 ; 0000 0119                 }
                 ; 0000 011A             }
                 ; 0000 011B 
                 ; 0000 011C             if(a<0){
                 _0x33:
0001f9 81ac      	LDD  R26,Y+4
0001fa 23aa      	TST  R26
0001fb f452      	BRPL _0x36
                 ; 0000 011D             a = a*(-1);
0001fc 940e 098e 	CALL SUBOPT_0x4
                +
0001fe efaf     +LDI R26 , LOW ( 0xFFFFFFFF )
0001ff efbf     +LDI R27 , HIGH ( 0xFFFFFFFF )
000200 ef8f     +LDI R24 , BYTE3 ( 0xFFFFFFFF )
000201 ef9f     +LDI R25 , BYTE4 ( 0xFFFFFFFF )
                 	__GETD2N 0xFFFFFFFF
000202 940e 0b26 	CALL __MULD12
000204 940e 099a 	CALL SUBOPT_0x6
                 ; 0000 011E             }
                 ; 0000 011F 
                 ; 0000 0120             if(k*10<a){
                 _0x36:
000206 940e 09a4 	CALL SUBOPT_0x8
000208 940e 09a9 	CALL SUBOPT_0x9
00020a f420      	BRSH _0x37
                 ; 0000 0121             a = k*10 - 1;
00020b 940e 09a4 	CALL SUBOPT_0x8
00020d 940e 09af 	CALL SUBOPT_0xA
                 ; 0000 0122             }
                 ; 0000 0123 
                 ; 0000 0124             for(i=0;i<Lenght;i++){
                 _0x37:
00020f e0e0      	LDI  R30,LOW(0)
000210 83ed      	STD  Y+5,R30
                 _0x39:
000211 89ec      	LDD  R30,Y+20
000212 81ad      	LDD  R26,Y+5
000213 17ae      	CP   R26,R30
000214 f490      	BRSH _0x3A
                 ; 0000 0125                 if(NumbersAfterDot!=0){
000215 89ea      	LDD  R30,Y+18
000216 30e0      	CPI  R30,0
000217 f039      	BREQ _0x3B
                 ; 0000 0126                     if(Lenght-NumbersAfterDot==i){
000218 940e 09b4 	CALL SUBOPT_0xB
00021a f421      	BRNE _0x3C
                 ; 0000 0127                     lcd_putchar('.');
00021b e2ee      	LDI  R30,LOW(46)
00021c 93ea      	ST   -Y,R30
00021d 940e 0901 	CALL _lcd_putchar
                 ; 0000 0128                     }
                 ; 0000 0129                 }
                 _0x3C:
                 ; 0000 012A             b = a/k;
                 _0x3B:
00021f 940e 09bf 	CALL SUBOPT_0xC
000221 940e 09c4 	CALL SUBOPT_0xD
                 ; 0000 012B             lcd_putchar( NumToIndex( b ) );
                 ; 0000 012C             a = a - b*k;
                 ; 0000 012D             k = k/10;
                 ; 0000 012E             }
000223 81ed      	LDD  R30,Y+5
000224 5fef      	SUBI R30,-LOW(1)
000225 83ed      	STD  Y+5,R30
000226 cfea      	RJMP _0x39
                 _0x3A:
                 ; 0000 012F         return 1;
000227 e0e1      	LDI  R30,LOW(1)
000228 962a      	ADIW R28,10
000229 c002      	RJMP _0x2020002
                 ; 0000 0130         }
                 ; 0000 0131     }
                 _0x32:
00022a 9625      	ADIW R28,5
                 ; 0000 0132 return 0;
                 _0x24:
00022b e0e0      	LDI  R30,LOW(0)
                 _0x2020002:
00022c 962c      	ADIW R28,12
00022d 9508      	RET
                 ; 0000 0133 }
                 ;
                 ;char lcd_put_runing_text(   unsigned char Start_x,
                 ; 0000 0136                             unsigned char Start_y,
                 ; 0000 0137 
                 ; 0000 0138                             unsigned int Lenght,
                 ; 0000 0139                             unsigned int Position,
                 ; 0000 013A 
                 ; 0000 013B                             char flash *str,
                 ; 0000 013C                             unsigned int StrLenght){
                 ; 0000 013D signed int i,a;
                 ; 0000 013E lcd_gotoxy(Start_x,Start_y);
                 ;	Start_x -> Y+13
                 ;	Start_y -> Y+12
                 ;	Lenght -> Y+10
                 ;	Position -> Y+8
                 ;	*str -> Y+6
                 ;	StrLenght -> Y+4
                 ;	i -> R16,R17
                 ;	a -> R18,R19
                 ; 0000 013F 
                 ; 0000 0140     for(i=0;i<Lenght;i++){
                 ; 0000 0141     a = i + Position - Lenght;
                 ; 0000 0142         if(a>=0){
                 ; 0000 0143             if(a<StrLenght){
                 ; 0000 0144             lcd_putchar(str[a]);
                 ; 0000 0145             }
                 ; 0000 0146             else{
                 ; 0000 0147                 if(i==0){
                 ; 0000 0148                 return 1;
                 ; 0000 0149                 }
                 ; 0000 014A             }
                 ; 0000 014B         }
                 ; 0000 014C         else{
                 ; 0000 014D         lcd_putchar(' ');
                 ; 0000 014E         }
                 ; 0000 014F     }
                 ; 0000 0150 return 0;
                 ; 0000 0151 }
                 ;
                 ;char lcd_cursor(unsigned char x, unsigned char y){
                 ; 0000 0153 char lcd_cursor(unsigned char x, unsigned char y){
                 _lcd_cursor:
                 ; 0000 0154 lcd_gotoxy(x,y);
                 ;	x -> Y+1
                 ;	y -> Y+0
00022e 81e9      	LDD  R30,Y+1
00022f 93ea      	ST   -Y,R30
000230 81e9      	LDD  R30,Y+1
000231 93ea      	ST   -Y,R30
000232 940e 08d5 	CALL _lcd_gotoxy
                 ; 0000 0155 _lcd_ready();
000234 940e 089a 	CALL __lcd_ready
                 ; 0000 0156 _lcd_write_data(0xe);
000236 e0ee      	LDI  R30,LOW(14)
000237 93ea      	ST   -Y,R30
000238 940e 08b5 	CALL __lcd_write_data
                 ; 0000 0157 return 1;
00023a e0e1      	LDI  R30,LOW(1)
00023b 9622      	ADIW R28,2
00023c 9508      	RET
                 ; 0000 0158 }
                 ;
                 ;static unsigned char CODE_IsEntering;
                 ;static unsigned char CODE_SuccessXYZ[3];
                 ;static unsigned char CODE_FailedXYZ[3];
                 ;static unsigned char CODE_TimeLeft;
                 ;static unsigned int  CODE_EnteringCode;
                 ;static unsigned char CODE_ExecutingDigit;
                 ;char EnterCode(char FailX,char FailY,char FailZ,
                 ; 0000 0161         char SuccessX,char SuccessY,char SuccessZ){
                 ; 0000 0162     if(CODE_IsEntering==0){
                 ;	FailX -> Y+5
                 ;	FailY -> Y+4
                 ;	FailZ -> Y+3
                 ;	SuccessX -> Y+2
                 ;	SuccessY -> Y+1
                 ;	SuccessZ -> Y+0
                 ; 0000 0163     CODE_IsEntering = 1;
                 ; 0000 0164 
                 ; 0000 0165     CODE_SuccessXYZ[0] = SuccessX;
                 ; 0000 0166     CODE_SuccessXYZ[1] = SuccessY;
                 ; 0000 0167     CODE_SuccessXYZ[2] = SuccessZ;
                 ; 0000 0168 
                 ; 0000 0169     CODE_FailedXYZ[0] = FailX;
                 ; 0000 016A     CODE_FailedXYZ[1] = FailY;
                 ; 0000 016B     CODE_FailedXYZ[2] = FailZ;
                 ; 0000 016C 
                 ; 0000 016D     CODE_TimeLeft = 99;
                 ; 0000 016E     CODE_EnteringCode = 0;
                 ; 0000 016F     CODE_ExecutingDigit = 0;
                 ; 0000 0170     return 1;
                 ; 0000 0171     }
                 ; 0000 0172 return 0;
                 ; 0000 0173 }
                 ;
                 ;char lcd_buttons(char Left,char Right, char Plius,char Minus,
                 ; 0000 0176     char Patvirtinti, char DualButton1,char DualButton2,char DualButton3,
                 ; 0000 0177         char DualButton4){
                 _lcd_buttons:
                 ; 0000 0178 
                 ; 0000 0179     if(Left==1){
                 ;	Left -> Y+8
                 ;	Right -> Y+7
                 ;	Plius -> Y+6
                 ;	Minus -> Y+5
                 ;	Patvirtinti -> Y+4
                 ;	DualButton1 -> Y+3
                 ;	DualButton2 -> Y+2
                 ;	DualButton3 -> Y+1
                 ;	DualButton4 -> Y+0
00023d 85a8      	LDD  R26,Y+8
00023e 30a1      	CPI  R26,LOW(0x1)
00023f f419      	BRNE _0x46
                 ; 0000 017A     lcd_putsf(BUTTON_DESCRIPTION1);
                +
000240 ece6     +LDI R30 , LOW ( 2 * _0x0 + ( 114 ) )
000241 e0f0     +LDI R31 , HIGH ( 2 * _0x0 + ( 114 ) )
                 	__POINTW1FN _0x0,114
000242 c002      	RJMP _0x15D
                 ; 0000 017B     }
                 ; 0000 017C     else{
                 _0x46:
                 ; 0000 017D     lcd_putsf(BUTTON_DESCRIPTION1_0);
                +
000243 ece9     +LDI R30 , LOW ( 2 * _0x0 + ( 117 ) )
000244 e0f0     +LDI R31 , HIGH ( 2 * _0x0 + ( 117 ) )
                 	__POINTW1FN _0x0,117
                 _0x15D:
000245 93fa      	ST   -Y,R31
000246 93ea      	ST   -Y,R30
000247 940e 0928 	CALL _lcd_putsf
                 ; 0000 017E     }
                 ; 0000 017F 
                 ; 0000 0180     if(DualButton1==1){
000249 81ab      	LDD  R26,Y+3
00024a 30a1      	CPI  R26,LOW(0x1)
00024b f419      	BRNE _0x48
                 ; 0000 0181     lcd_putsf(BUTTON_DESCRIPTION2);
                +
00024c ecec     +LDI R30 , LOW ( 2 * _0x0 + ( 120 ) )
00024d e0f0     +LDI R31 , HIGH ( 2 * _0x0 + ( 120 ) )
                 	__POINTW1FN _0x0,120
00024e c002      	RJMP _0x15E
                 ; 0000 0182     }
                 ; 0000 0183     else{
                 _0x48:
                 ; 0000 0184     lcd_putsf(BUTTON_DESCRIPTION2_0);
                +
00024f ece9     +LDI R30 , LOW ( 2 * _0x0 + ( 117 ) )
000250 e0f0     +LDI R31 , HIGH ( 2 * _0x0 + ( 117 ) )
                 	__POINTW1FN _0x0,117
                 _0x15E:
000251 93fa      	ST   -Y,R31
000252 93ea      	ST   -Y,R30
000253 940e 0928 	CALL _lcd_putsf
                 ; 0000 0185     }
                 ; 0000 0186 
                 ; 0000 0187     if(Right==1){
000255 81af      	LDD  R26,Y+7
000256 30a1      	CPI  R26,LOW(0x1)
000257 f419      	BRNE _0x4A
                 ; 0000 0188     lcd_putsf(BUTTON_DESCRIPTION3);
                +
000258 ecef     +LDI R30 , LOW ( 2 * _0x0 + ( 123 ) )
000259 e0f0     +LDI R31 , HIGH ( 2 * _0x0 + ( 123 ) )
                 	__POINTW1FN _0x0,123
00025a c002      	RJMP _0x15F
                 ; 0000 0189     }
                 ; 0000 018A     else{
                 _0x4A:
                 ; 0000 018B     lcd_putsf(BUTTON_DESCRIPTION3_0);
                +
00025b ecea     +LDI R30 , LOW ( 2 * _0x0 + ( 118 ) )
00025c e0f0     +LDI R31 , HIGH ( 2 * _0x0 + ( 118 ) )
                 	__POINTW1FN _0x0,118
                 _0x15F:
00025d 93fa      	ST   -Y,R31
00025e 93ea      	ST   -Y,R30
00025f 940e 0928 	CALL _lcd_putsf
                 ; 0000 018C     }
                 ; 0000 018D 
                 ; 0000 018E     if(DualButton2==1){
000261 81aa      	LDD  R26,Y+2
000262 30a1      	CPI  R26,LOW(0x1)
000263 f419      	BRNE _0x4C
                 ; 0000 018F     lcd_putsf(BUTTON_DESCRIPTION4);
                +
000264 ede1     +LDI R30 , LOW ( 2 * _0x0 + ( 125 ) )
000265 e0f0     +LDI R31 , HIGH ( 2 * _0x0 + ( 125 ) )
                 	__POINTW1FN _0x0,125
000266 c002      	RJMP _0x160
                 ; 0000 0190     }
                 ; 0000 0191     else{
                 _0x4C:
                 ; 0000 0192     lcd_putsf(BUTTON_DESCRIPTION4_0);
                +
000267 ede5     +LDI R30 , LOW ( 2 * _0x0 + ( 129 ) )
000268 e0f0     +LDI R31 , HIGH ( 2 * _0x0 + ( 129 ) )
                 	__POINTW1FN _0x0,129
                 _0x160:
000269 93fa      	ST   -Y,R31
00026a 93ea      	ST   -Y,R30
00026b 940e 0928 	CALL _lcd_putsf
                 ; 0000 0193     }
                 ; 0000 0194 
                 ; 0000 0195     if(Plius==1){
00026d 81ae      	LDD  R26,Y+6
00026e 30a1      	CPI  R26,LOW(0x1)
00026f f419      	BRNE _0x4E
                 ; 0000 0196     lcd_putsf(BUTTON_DESCRIPTION5);
                +
000270 ede9     +LDI R30 , LOW ( 2 * _0x0 + ( 133 ) )
000271 e0f0     +LDI R31 , HIGH ( 2 * _0x0 + ( 133 ) )
                 	__POINTW1FN _0x0,133
000272 c002      	RJMP _0x161
                 ; 0000 0197     }
                 ; 0000 0198     else{
                 _0x4E:
                 ; 0000 0199     lcd_putsf(BUTTON_DESCRIPTION5_0);
                +
000273 ecea     +LDI R30 , LOW ( 2 * _0x0 + ( 118 ) )
000274 e0f0     +LDI R31 , HIGH ( 2 * _0x0 + ( 118 ) )
                 	__POINTW1FN _0x0,118
                 _0x161:
000275 93fa      	ST   -Y,R31
000276 93ea      	ST   -Y,R30
000277 940e 0928 	CALL _lcd_putsf
                 ; 0000 019A     }
                 ; 0000 019B 
                 ; 0000 019C     if(DualButton3==1){
000279 81a9      	LDD  R26,Y+1
00027a 30a1      	CPI  R26,LOW(0x1)
00027b f419      	BRNE _0x50
                 ; 0000 019D     lcd_putsf(BUTTON_DESCRIPTION6);
                +
00027c ecec     +LDI R30 , LOW ( 2 * _0x0 + ( 120 ) )
00027d e0f0     +LDI R31 , HIGH ( 2 * _0x0 + ( 120 ) )
                 	__POINTW1FN _0x0,120
00027e c002      	RJMP _0x162
                 ; 0000 019E     }
                 ; 0000 019F     else{
                 _0x50:
                 ; 0000 01A0     lcd_putsf(BUTTON_DESCRIPTION6_0);
                +
00027f ece9     +LDI R30 , LOW ( 2 * _0x0 + ( 117 ) )
000280 e0f0     +LDI R31 , HIGH ( 2 * _0x0 + ( 117 ) )
                 	__POINTW1FN _0x0,117
                 _0x162:
000281 93fa      	ST   -Y,R31
000282 93ea      	ST   -Y,R30
000283 940e 0928 	CALL _lcd_putsf
                 ; 0000 01A1     }
                 ; 0000 01A2 
                 ; 0000 01A3     if(Minus==1){
000285 81ad      	LDD  R26,Y+5
000286 30a1      	CPI  R26,LOW(0x1)
000287 f419      	BRNE _0x52
                 ; 0000 01A4     lcd_putsf(BUTTON_DESCRIPTION7);
                +
000288 edeb     +LDI R30 , LOW ( 2 * _0x0 + ( 135 ) )
000289 e0f0     +LDI R31 , HIGH ( 2 * _0x0 + ( 135 ) )
                 	__POINTW1FN _0x0,135
00028a c002      	RJMP _0x163
                 ; 0000 01A5     }
                 ; 0000 01A6     else{
                 _0x52:
                 ; 0000 01A7     lcd_putsf(BUTTON_DESCRIPTION7_0);
                +
00028b ecea     +LDI R30 , LOW ( 2 * _0x0 + ( 118 ) )
00028c e0f0     +LDI R31 , HIGH ( 2 * _0x0 + ( 118 ) )
                 	__POINTW1FN _0x0,118
                 _0x163:
00028d 93fa      	ST   -Y,R31
00028e 93ea      	ST   -Y,R30
00028f 940e 0928 	CALL _lcd_putsf
                 ; 0000 01A8     }
                 ; 0000 01A9 
                 ; 0000 01AA     if(DualButton4==1){
000291 81a8      	LD   R26,Y
000292 30a1      	CPI  R26,LOW(0x1)
000293 f419      	BRNE _0x54
                 ; 0000 01AB     lcd_putsf(BUTTON_DESCRIPTION8);
                +
000294 ecec     +LDI R30 , LOW ( 2 * _0x0 + ( 120 ) )
000295 e0f0     +LDI R31 , HIGH ( 2 * _0x0 + ( 120 ) )
                 	__POINTW1FN _0x0,120
000296 c002      	RJMP _0x164
                 ; 0000 01AC     }
                 ; 0000 01AD     else{
                 _0x54:
                 ; 0000 01AE     lcd_putsf(BUTTON_DESCRIPTION8_0);
                +
000297 ece9     +LDI R30 , LOW ( 2 * _0x0 + ( 117 ) )
000298 e0f0     +LDI R31 , HIGH ( 2 * _0x0 + ( 117 ) )
                 	__POINTW1FN _0x0,117
                 _0x164:
000299 93fa      	ST   -Y,R31
00029a 93ea      	ST   -Y,R30
00029b 940e 0928 	CALL _lcd_putsf
                 ; 0000 01AF     }
                 ; 0000 01B0 
                 ; 0000 01B1     if(Patvirtinti==1){
00029d 81ac      	LDD  R26,Y+4
00029e 30a1      	CPI  R26,LOW(0x1)
00029f f419      	BRNE _0x56
                 ; 0000 01B2     lcd_putsf(BUTTON_DESCRIPTION9);
                +
0002a0 eded     +LDI R30 , LOW ( 2 * _0x0 + ( 137 ) )
0002a1 e0f0     +LDI R31 , HIGH ( 2 * _0x0 + ( 137 ) )
                 	__POINTW1FN _0x0,137
0002a2 c002      	RJMP _0x165
                 ; 0000 01B3     }
                 ; 0000 01B4     else{
                 _0x56:
                 ; 0000 01B5     lcd_putsf(BUTTON_DESCRIPTION9_0);
                +
0002a3 ece9     +LDI R30 , LOW ( 2 * _0x0 + ( 117 ) )
0002a4 e0f0     +LDI R31 , HIGH ( 2 * _0x0 + ( 117 ) )
                 	__POINTW1FN _0x0,117
                 _0x165:
0002a5 93fa      	ST   -Y,R31
0002a6 93ea      	ST   -Y,R30
0002a7 940e 0928 	CALL _lcd_putsf
                 ; 0000 01B6     }
                 ; 0000 01B7 
                 ; 0000 01B8 return 1;
0002a9 e0e1      	LDI  R30,LOW(1)
0002aa 9629      	ADIW R28,9
0002ab 9508      	RET
                 ; 0000 01B9 }
                 ;
                 ;char IsDateEaster(unsigned int year, unsigned int month, unsigned int day){
                 ; 0000 01BB char IsDateEaster(unsigned int year, unsigned int month, unsigned int day){
                 ; 0000 01BC unsigned int G, C, X, Z, D, E, F, N;
                 ; 0000 01BD unsigned char EasterSunday, EasterSaturday, EasterFriday, EasterThursday;
                 ; 0000 01BE 
                 ; 0000 01BF G = year-((year/19)*19)+1;
                 ;	year -> Y+24
                 ;	month -> Y+22
                 ;	day -> Y+20
                 ;	G -> R16,R17
                 ;	C -> R18,R19
                 ;	X -> R20,R21
                 ;	Z -> Y+18
                 ;	D -> Y+16
                 ;	E -> Y+14
                 ;	F -> Y+12
                 ;	N -> Y+10
                 ;	EasterSunday -> Y+9
                 ;	EasterSaturday -> Y+8
                 ;	EasterFriday -> Y+7
                 ;	EasterThursday -> Y+6
                 ; 0000 01C0 C = (year/100)+1;
                 ; 0000 01C1 X = 3*C/4-12;
                 ; 0000 01C2 Z = ((8*C+5)/25)-5;
                 ; 0000 01C3 D = 5*year/4-X-10;
                 ; 0000 01C4 F = 11*G+20+Z-X;
                 ; 0000 01C5 E = F-((F/30)*30);
                 ; 0000 01C6     if(((E==25)&&(G>11))||(E==24)){ E++;    }
                 ; 0000 01C7 N = 44-E;
                 ; 0000 01C8     if(N<21){   N = N+30;   }
                 ; 0000 01C9 N = N+7-((D+N)-(((D+N)/7)*7));
                 ; 0000 01CA 
                 ; 0000 01CB EasterSunday = N;
                 ; 0000 01CC EasterSaturday = N - 1;
                 ; 0000 01CD EasterFriday = N - 2;
                 ; 0000 01CE EasterThursday = N - 3;
                 ; 0000 01CF 
                 ; 0000 01D0 // Velyku ketvirtadienis
                 ; 0000 01D1     if (EasterThursday>31){
                 ; 0000 01D2     EasterThursday = EasterThursday - 31;
                 ; 0000 01D3     // Balandzio N-oji diena
                 ; 0000 01D4         if(month==4){
                 ; 0000 01D5             if(day==EasterThursday){
                 ; 0000 01D6             return 4;
                 ; 0000 01D7             }
                 ; 0000 01D8         }
                 ; 0000 01D9     }
                 ; 0000 01DA     else{
                 ; 0000 01DB     // Kovo N-oji diena
                 ; 0000 01DC         if(month==3){
                 ; 0000 01DD             if(day==EasterThursday){
                 ; 0000 01DE             return 4;
                 ; 0000 01DF             }
                 ; 0000 01E0         }
                 ; 0000 01E1     }
                 ; 0000 01E2 
                 ; 0000 01E3 // Velyku penktadienis
                 ; 0000 01E4     if (EasterFriday>31){
                 ; 0000 01E5     EasterFriday = EasterFriday - 31;
                 ; 0000 01E6     // Balandzio N-oji diena
                 ; 0000 01E7         if(month==4){
                 ; 0000 01E8             if(day==EasterFriday){
                 ; 0000 01E9             return 5;
                 ; 0000 01EA             }
                 ; 0000 01EB         }
                 ; 0000 01EC     }
                 ; 0000 01ED     else{
                 ; 0000 01EE     // Kovo N-oji diena
                 ; 0000 01EF         if(month==3){
                 ; 0000 01F0             if(day==EasterFriday){
                 ; 0000 01F1             return 5;
                 ; 0000 01F2             }
                 ; 0000 01F3         }
                 ; 0000 01F4     }
                 ; 0000 01F5 
                 ; 0000 01F6 // Velyku sestadienis
                 ; 0000 01F7     if (EasterSaturday>31){
                 ; 0000 01F8     EasterSaturday = EasterSaturday - 31;
                 ; 0000 01F9     // Balandzio N-oji diena
                 ; 0000 01FA         if(month==4){
                 ; 0000 01FB             if(day==EasterSaturday){
                 ; 0000 01FC             return 6;
                 ; 0000 01FD             }
                 ; 0000 01FE         }
                 ; 0000 01FF     }
                 ; 0000 0200     else{
                 ; 0000 0201     // Kovo N-oji diena
                 ; 0000 0202         if(month==3){
                 ; 0000 0203             if(day==EasterSaturday){
                 ; 0000 0204             return 6;
                 ; 0000 0205             }
                 ; 0000 0206         }
                 ; 0000 0207     }
                 ; 0000 0208 
                 ; 0000 0209 // Velyku sekmadienis
                 ; 0000 020A     if (EasterSunday>31){
                 ; 0000 020B     EasterSunday = EasterSunday - 31;
                 ; 0000 020C     // Balandzio N-oji diena
                 ; 0000 020D         if(month==4){
                 ; 0000 020E             if(day==EasterSunday){
                 ; 0000 020F             return 7;
                 ; 0000 0210             }
                 ; 0000 0211         }
                 ; 0000 0212     }
                 ; 0000 0213     else{
                 ; 0000 0214     // Kovo N-oji diena
                 ; 0000 0215         if(month==3){
                 ; 0000 0216             if(day==EasterSunday){
                 ; 0000 0217             return 7;
                 ; 0000 0218             }
                 ; 0000 0219         }
                 ; 0000 021A     }
                 ; 0000 021B 
                 ; 0000 021C return 0;
                 ; 0000 021D }
                 ;
                 ;/////////////////////////////////////////////////////////////////////////////////
                 ;///////////////////////////////// Interupts /////////////////////////////////////
                 ;// Timer 0 overflow interrupt service routine
                 ;interrupt [TIM0_OVF] void timer0_ovf_isr(void){
                 ; 0000 0222 interrupt [12] void timer0_ovf_isr(void){
                 _timer0_ovf_isr:
0002ac 93aa      	ST   -Y,R26
0002ad 93ba      	ST   -Y,R27
0002ae 93ea      	ST   -Y,R30
0002af 93fa      	ST   -Y,R31
0002b0 b7ef      	IN   R30,SREG
0002b1 93ea      	ST   -Y,R30
                 ; 0000 0223 static signed int InteruptTimer, MissTimer;
                 ; 0000 0224 InteruptTimer++;
0002b2 e7a8      	LDI  R26,LOW(_InteruptTimer_S0000010000)
0002b3 e0b2      	LDI  R27,HIGH(_InteruptTimer_S0000010000)
0002b4 940e 09eb 	CALL SUBOPT_0xE
                 ; 0000 0225     if(InteruptTimer>=495){// Periodas
0002b6 91a0 0278 	LDS  R26,_InteruptTimer_S0000010000
0002b8 91b0 0279 	LDS  R27,_InteruptTimer_S0000010000+1
0002ba 3eaf      	CPI  R26,LOW(0x1EF)
0002bb e0e1      	LDI  R30,HIGH(0x1EF)
0002bc 07be      	CPC  R27,R30
0002bd f0ec      	BRLT _0x76
                 ; 0000 0226     Call_1Second++;
0002be 9463      	INC  R6
                 ; 0000 0227     InteruptTimer = 0;
0002bf e0e0      	LDI  R30,LOW(0)
0002c0 93e0 0278 	STS  _InteruptTimer_S0000010000,R30
0002c2 93e0 0279 	STS  _InteruptTimer_S0000010000+1,R30
                 ; 0000 0228     MissTimer++;
0002c4 e7aa      	LDI  R26,LOW(_MissTimer_S0000010000)
0002c5 e0b2      	LDI  R27,HIGH(_MissTimer_S0000010000)
0002c6 940e 09eb 	CALL SUBOPT_0xE
                 ; 0000 0229         if(MissTimer>=1000){
0002c8 91a0 027a 	LDS  R26,_MissTimer_S0000010000
0002ca 91b0 027b 	LDS  R27,_MissTimer_S0000010000+1
0002cc 3ea8      	CPI  R26,LOW(0x3E8)
0002cd e0e3      	LDI  R30,HIGH(0x3E8)
0002ce 07be      	CPC  R27,R30
0002cf f05c      	BRLT _0x77
                 ; 0000 022A         InteruptTimer = 5;// -(Tukstantosios periodo dalys)
0002d0 e0e5      	LDI  R30,LOW(5)
0002d1 e0f0      	LDI  R31,HIGH(5)
0002d2 93e0 0278 	STS  _InteruptTimer_S0000010000,R30
0002d4 93f0 0279 	STS  _InteruptTimer_S0000010000+1,R31
                 ; 0000 022B         MissTimer = 0;
0002d6 e0e0      	LDI  R30,LOW(0)
0002d7 93e0 027a 	STS  _MissTimer_S0000010000,R30
0002d9 93e0 027b 	STS  _MissTimer_S0000010000+1,R30
                 ; 0000 022C         }
                 ; 0000 022D     }
                 _0x77:
                 ; 0000 022E 
                 ; 0000 022F static unsigned int RefreshTimer;
                 _0x76:
                 ; 0000 0230 RefreshTimer++;
0002db e7ac      	LDI  R26,LOW(_RefreshTimer_S0000010000)
0002dc e0b2      	LDI  R27,HIGH(_RefreshTimer_S0000010000)
0002dd 940e 09eb 	CALL SUBOPT_0xE
                 ; 0000 0231     if(RefreshTimer>=20){
0002df 91a0 027c 	LDS  R26,_RefreshTimer_S0000010000
0002e1 91b0 027d 	LDS  R27,_RefreshTimer_S0000010000+1
0002e3 9754      	SBIW R26,20
0002e4 f038      	BRLO _0x78
                 ; 0000 0232     RefreshTimer = 0;
0002e5 e0e0      	LDI  R30,LOW(0)
0002e6 93e0 027c 	STS  _RefreshTimer_S0000010000,R30
0002e8 93e0 027d 	STS  _RefreshTimer_S0000010000+1,R30
                 ; 0000 0233     RefreshLcd = 1;
0002ea e0e1      	LDI  R30,LOW(1)
0002eb 2e4e      	MOV  R4,R30
                 ; 0000 0234     }
                 ; 0000 0235 
                 ; 0000 0236 }
                 _0x78:
0002ec 91e9      	LD   R30,Y+
0002ed bfef      	OUT  SREG,R30
0002ee 91f9      	LD   R31,Y+
0002ef 91e9      	LD   R30,Y+
0002f0 91b9      	LD   R27,Y+
0002f1 91a9      	LD   R26,Y+
0002f2 9518      	RETI
                 ;/////////////////////////////////////////////////////////////////////////////////////
                 ;
                 ;void main(void){
                 ; 0000 0239 void main(void){
                 _main:
                 ; 0000 023A // Func7=In Func6=In Func5=In Func4=In Func3=In Func2=In Func1=In Func0=In
                 ; 0000 023B // State7=T State6=T State5=T State4=T State3=T State2=T State1=T State0=T
                 ; 0000 023C PORTA=0x00;
0002f3 e0e0      	LDI  R30,LOW(0)
0002f4 bbeb      	OUT  0x1B,R30
                 ; 0000 023D DDRA=0x00;
0002f5 bbea      	OUT  0x1A,R30
                 ; 0000 023E 
                 ; 0000 023F // Func7=In Func6=In Func5=In Func4=In Func3=In Func2=In Func1=In Func0=In
                 ; 0000 0240 // State7=T State6=T State5=T State4=T State3=T State2=T State1=T State0=T
                 ; 0000 0241 PORTB=0x00;
0002f6 bbe8      	OUT  0x18,R30
                 ; 0000 0242 DDRB=0x00;
0002f7 bbe7      	OUT  0x17,R30
                 ; 0000 0243 
                 ; 0000 0244 // Func7=In Func6=In Func5=In Func4=In Func3=In Func2=In Func1=In Func0=In
                 ; 0000 0245 // State7=T State6=T State5=T State4=T State3=T State2=T State1=T State0=T
                 ; 0000 0246 PORTC=0x00;
0002f8 bbe5      	OUT  0x15,R30
                 ; 0000 0247 DDRC=0x00;
0002f9 bbe4      	OUT  0x14,R30
                 ; 0000 0248 
                 ; 0000 0249 // Func7=In Func6=In Func5=In Func4=In Func3=In Func2=In Func1=In Func0=In
                 ; 0000 024A // State7=T State6=T State5=T State4=T State3=T State2=T State1=T State0=T
                 ; 0000 024B PORTD=0x00;
0002fa bbe2      	OUT  0x12,R30
                 ; 0000 024C DDRD=0x00;
0002fb bbe1      	OUT  0x11,R30
                 ; 0000 024D 
                 ; 0000 024E // Timer/Counter 0 initialization
                 ; 0000 024F // Clock source: System Clock
                 ; 0000 0250 // Clock value: 125.000 kHz
                 ; 0000 0251 // Mode: Normal top=FFh
                 ; 0000 0252 // OC0 output: Disconnected
                 ; 0000 0253 TCCR0=0x03;
0002fc e0e3      	LDI  R30,LOW(3)
0002fd bfe3      	OUT  0x33,R30
                 ; 0000 0254 TCNT0=0x00;
0002fe e0e0      	LDI  R30,LOW(0)
0002ff bfe2      	OUT  0x32,R30
                 ; 0000 0255 OCR0=0x00;
000300 bfec      	OUT  0x3C,R30
                 ; 0000 0256 
                 ; 0000 0257 // Timer/Counter 1 initialization
                 ; 0000 0258 // Clock source: System Clock
                 ; 0000 0259 // Clock value: Timer1 Stopped
                 ; 0000 025A // Mode: Normal top=FFFFh
                 ; 0000 025B // OC1A output: Discon.
                 ; 0000 025C // OC1B output: Discon.
                 ; 0000 025D // Noise Canceler: Off
                 ; 0000 025E // Input Capture on Falling Edge
                 ; 0000 025F // Timer1 Overflow Interrupt: Off
                 ; 0000 0260 // Input Capture Interrupt: Off
                 ; 0000 0261 // Compare A Match Interrupt: Off
                 ; 0000 0262 // Compare B Match Interrupt: Off
                 ; 0000 0263 TCCR1A=0x00;
000301 bdef      	OUT  0x2F,R30
                 ; 0000 0264 TCCR1B=0x00;
000302 bdee      	OUT  0x2E,R30
                 ; 0000 0265 TCNT1H=0x00;
000303 bded      	OUT  0x2D,R30
                 ; 0000 0266 TCNT1L=0x00;
000304 bdec      	OUT  0x2C,R30
                 ; 0000 0267 ICR1H=0x00;
000305 bde7      	OUT  0x27,R30
                 ; 0000 0268 ICR1L=0x00;
000306 bde6      	OUT  0x26,R30
                 ; 0000 0269 OCR1AH=0x00;
000307 bdeb      	OUT  0x2B,R30
                 ; 0000 026A OCR1AL=0x00;
000308 bdea      	OUT  0x2A,R30
                 ; 0000 026B OCR1BH=0x00;
000309 bde9      	OUT  0x29,R30
                 ; 0000 026C OCR1BL=0x00;
00030a bde8      	OUT  0x28,R30
                 ; 0000 026D 
                 ; 0000 026E // Timer/Counter 2 initialization
                 ; 0000 026F // Clock source: System Clock
                 ; 0000 0270 // Clock value: Timer2 Stopped
                 ; 0000 0271 // Mode: Normal top=FFh
                 ; 0000 0272 // OC2 output: Disconnected
                 ; 0000 0273 ASSR=0x00;
00030b bde2      	OUT  0x22,R30
                 ; 0000 0274 TCCR2=0x00;
00030c bde5      	OUT  0x25,R30
                 ; 0000 0275 TCNT2=0x00;
00030d bde4      	OUT  0x24,R30
                 ; 0000 0276 OCR2=0x00;
00030e bde3      	OUT  0x23,R30
                 ; 0000 0277 
                 ; 0000 0278 // External Interrupt(s) initialization
                 ; 0000 0279 // INT0: Off
                 ; 0000 027A // INT1: Off
                 ; 0000 027B // INT2: Off
                 ; 0000 027C MCUCR=0x00;
00030f bfe5      	OUT  0x35,R30
                 ; 0000 027D MCUCSR=0x00;
000310 bfe4      	OUT  0x34,R30
                 ; 0000 027E 
                 ; 0000 027F // Timer(s)/Counter(s) Interrupt(s) initialization
                 ; 0000 0280 TIMSK=0x01;
000311 e0e1      	LDI  R30,LOW(1)
000312 bfe9      	OUT  0x39,R30
                 ; 0000 0281 
                 ; 0000 0282 // Analog Comparator initialization
                 ; 0000 0283 // Analog Comparator: Off
                 ; 0000 0284 // Analog Comparator Input Capture by Timer/Counter 1: Off
                 ; 0000 0285 ACSR=0x80;
000313 e8e0      	LDI  R30,LOW(128)
000314 b9e8      	OUT  0x8,R30
                 ; 0000 0286 SFIOR=0x00;
000315 e0e0      	LDI  R30,LOW(0)
000316 bfe0      	OUT  0x30,R30
                 ; 0000 0287 
                 ; 0000 0288 // LCD module initialization
                 ; 0000 0289 lcd_init(20);
000317 e1e4      	LDI  R30,LOW(20)
000318 93ea      	ST   -Y,R30
000319 940e 0949 	CALL _lcd_init
                 ; 0000 028A 
                 ; 0000 028B // Global enable interrupts
                 ; 0000 028C #asm("sei")
00031b 9478      	sei
                 ; 0000 028D 
                 ; 0000 028E 
                 ; 0000 028F 
                 ; 0000 0290 
                 ; 0000 0291 
                 ; 0000 0292 
                 ; 0000 0293     while (1){
                 _0x79:
                 ; 0000 0294 
                 ; 0000 0295     //////////////////////////////////////////////////////////////////////////////////
                 ; 0000 0296     //////////////////////////// Funkcija kas 1 secunde //////////////////////////////
                 ; 0000 0297     //////////////////////////////////////////////////////////////////////////////////
                 ; 0000 0298     static unsigned char Called_1Second;
                 ; 0000 0299         if(Call_1Second>=1){
00031c e0e1      	LDI  R30,LOW(1)
00031d 166e      	CP   R6,R30
00031e f410      	BRSH PC+3
00031f 940c 0388 	JMP _0x7C
                 ; 0000 029A         Called_1Second = 1;
000321 93e0 027e 	STS  _Called_1Second_S0000011001,R30
                 ; 0000 029B         Call_1Second--;
000323 946a      	DEC  R6
                 ; 0000 029C 
                 ; 0000 029D         // Realus laikas
                 ; 0000 029E             if(RealTimeSecond>=59){
000324 e3eb      	LDI  R30,LOW(59)
000325 165e      	CP   R5,R30
000326 f410      	BRSH PC+3
000327 940c 037a 	JMP _0x7D
                 ; 0000 029F             RealTimeSecond = 0;
000329 2455      	CLR  R5
                 ; 0000 02A0 
                 ; 0000 02A1                 if(RealTimeMinute>=59){
00032a 940e 09f1 	CALL SUBOPT_0xF
00032c 33eb      	CPI  R30,LOW(0x3B)
00032d f414      	BRGE PC+3
00032e 940c 0375 	JMP _0x7E
                 ; 0000 02A2                 RealTimeMinute = 0;
000330 e0a5      	LDI  R26,LOW(_RealTimeMinute)
000331 e0b0      	LDI  R27,HIGH(_RealTimeMinute)
000332 e0e0      	LDI  R30,LOW(0)
000333 940e 0b93 	CALL __EEPROMWRB
                 ; 0000 02A3                     if(RealTimeHour>=23){
000335 940e 09f6 	CALL SUBOPT_0x10
000337 31e7      	CPI  R30,LOW(0x17)
000338 f1bc      	BRLT _0x7F
                 ; 0000 02A4                     RealTimeHour = 0;
000339 e0a4      	LDI  R26,LOW(_RealTimeHour)
00033a e0b0      	LDI  R27,HIGH(_RealTimeHour)
00033b e0e0      	LDI  R30,LOW(0)
00033c 940e 0b93 	CALL __EEPROMWRB
                 ; 0000 02A5 
                 ; 0000 02A6                         if(DayCountInMonth(RealTimeYear,RealTimeMonth)<=RealTimeDay){
00033e 940e 0978 	CALL SUBOPT_0x0
000340 93fa      	ST   -Y,R31
000341 93ea      	ST   -Y,R30
000342 940e 097d 	CALL SUBOPT_0x1
000344 93ea      	ST   -Y,R30
000345 ddf9      	RCALL _DayCountInMonth
000346 2e0e      	MOV  R0,R30
000347 940e 0989 	CALL SUBOPT_0x3
000349 2da0      	MOV  R26,R0
00034a e0b0      	LDI  R27,0
00034b e0f0      	LDI  R31,0
00034c fde7      	SBRC R30,7
00034d efff      	SER  R31
00034e 17ea      	CP   R30,R26
00034f 07fb      	CPC  R31,R27
000350 f0d4      	BRLT _0x80
                 ; 0000 02A7                         RealTimeDay = 1;
000351 e0a3      	LDI  R26,LOW(_RealTimeDay)
000352 e0b0      	LDI  R27,HIGH(_RealTimeDay)
000353 e0e1      	LDI  R30,LOW(1)
000354 940e 0b93 	CALL __EEPROMWRB
                 ; 0000 02A8 
                 ; 0000 02A9                             if(RealTimeMonth>=12){
000356 940e 097d 	CALL SUBOPT_0x1
000358 30ec      	CPI  R30,LOW(0xC)
000359 f064      	BRLT _0x81
                 ; 0000 02AA                             RealTimeMonth = 1;
00035a e0a2      	LDI  R26,LOW(_RealTimeMonth)
00035b e0b0      	LDI  R27,HIGH(_RealTimeMonth)
00035c e0e1      	LDI  R30,LOW(1)
00035d 940e 0b93 	CALL __EEPROMWRB
                 ; 0000 02AB                             RealTimeYear++;
00035f 940e 0978 	CALL SUBOPT_0x0
000361 9631      	ADIW R30,1
000362 940e 0b8b 	CALL __EEPROMWRW
000364 9731      	SBIW R30,1
                 ; 0000 02AC                             }
                 ; 0000 02AD                             else{
000365 c004      	RJMP _0x82
                 _0x81:
                 ; 0000 02AE                             RealTimeMonth++;
000366 940e 097d 	CALL SUBOPT_0x1
000368 940e 09fb 	CALL SUBOPT_0x11
                 ; 0000 02AF                             }
                 _0x82:
                 ; 0000 02B0 
                 ; 0000 02B1                         }
                 ; 0000 02B2                         else{
00036a c004      	RJMP _0x83
                 _0x80:
                 ; 0000 02B3                         RealTimeDay++;
00036b 940e 0989 	CALL SUBOPT_0x3
00036d 940e 09fb 	CALL SUBOPT_0x11
                 ; 0000 02B4                         }
                 _0x83:
                 ; 0000 02B5                     }
                 ; 0000 02B6                     else{
00036f c004      	RJMP _0x84
                 _0x7F:
                 ; 0000 02B7                     RealTimeHour++;
000370 940e 09f6 	CALL SUBOPT_0x10
000372 940e 09fb 	CALL SUBOPT_0x11
                 ; 0000 02B8                     }
                 _0x84:
                 ; 0000 02B9                 }
                 ; 0000 02BA                 else{
000374 c004      	RJMP _0x85
                 _0x7E:
                 ; 0000 02BB                 RealTimeMinute++;
000375 940e 09f1 	CALL SUBOPT_0xF
000377 940e 09fb 	CALL SUBOPT_0x11
                 ; 0000 02BC                 }
                 _0x85:
                 ; 0000 02BD             }
                 ; 0000 02BE             else{
000379 c001      	RJMP _0x86
                 _0x7D:
                 ; 0000 02BF             RealTimeSecond++;
00037a 9453      	INC  R5
                 ; 0000 02C0             }
                 _0x86:
                 ; 0000 02C1         /////////
                 ; 0000 02C2             if(CODE_TimeLeft>0){
00037b 91a0 0274 	LDS  R26,_CODE_TimeLeft_G000
00037d 30a1      	CPI  R26,LOW(0x1)
00037e f028      	BRLO _0x87
                 ; 0000 02C3             CODE_TimeLeft--;
00037f 91e0 0274 	LDS  R30,_CODE_TimeLeft_G000
000381 50e1      	SUBI R30,LOW(1)
000382 93e0 0274 	STS  _CODE_TimeLeft_G000,R30
                 ; 0000 02C4             }
                 ; 0000 02C5 
                 ; 0000 02C6             if(PAGRINDINIS_LANGAS<120){
                 _0x87:
000384 e7e8      	LDI  R30,LOW(120)
000385 167e      	CP   R7,R30
000386 f408      	BRSH _0x88
                 ; 0000 02C7             PAGRINDINIS_LANGAS++;
000387 9473      	INC  R7
                 ; 0000 02C8             }
                 ; 0000 02C9         }
                 _0x88:
                 ; 0000 02CA     //////////////////////////////////////////////////////////////////////////////////
                 ; 0000 02CB     //////////////////////////////////////////////////////////////////////////////////
                 ; 0000 02CC     //////////////////////////////////////////////////////////////////////////////////
                 ; 0000 02CD 
                 ; 0000 02CE 
                 ; 0000 02CF 
                 ; 0000 02D0 
                 ; 0000 02D1 
                 ; 0000 02D2     //////////////////////////////////////////////////////////////////////////////////
                 ; 0000 02D3     /////////////////////////////////////// Mygtukai /////////////////////////////////
                 ; 0000 02D4     //////////////////////////////////////////////////////////////////////////////////
                 ; 0000 02D5     static char BUTTON[5], ButtonFilter[5];
                 _0x7C:
                 ; 0000 02D6     static char DUAL_BUTTON[4], DualButtonFilter[4];
                 ; 0000 02D7 
                 ; 0000 02D8     // 1 Mygtukas
                 ; 0000 02D9         if(BUTTON_INPUT1==1){
000388 9b86      	SBIS 0x10,6
000389 c00f      	RJMP _0x89
                 ; 0000 02DA         PAGRINDINIS_LANGAS = 0;
00038a 2477      	CLR  R7
                 ; 0000 02DB             if(DualButtonFilter[0]<ButtonFiltrationTimer){
00038b 91a0 028d 	LDS  R26,_DualButtonFilter_S0000011001
00038d 31a4      	CPI  R26,LOW(0x14)
00038e f448      	BRSH _0x8A
                 ; 0000 02DC                 if(ButtonFilter[0]<ButtonFiltrationTimer){
00038f 91a0 0284 	LDS  R26,_ButtonFilter_S0000011001
000391 31a4      	CPI  R26,LOW(0x14)
000392 f428      	BRSH _0x8B
                 ; 0000 02DD                 ButtonFilter[0]++;
000393 91e0 0284 	LDS  R30,_ButtonFilter_S0000011001
000395 5fef      	SUBI R30,-LOW(1)
000396 93e0 0284 	STS  _ButtonFilter_S0000011001,R30
                 ; 0000 02DE                 }
                 ; 0000 02DF             }
                 _0x8B:
                 ; 0000 02E0         }
                 _0x8A:
                 ; 0000 02E1         else{
000398 c00f      	RJMP _0x8C
                 _0x89:
                 ; 0000 02E2             if(ButtonFilter[0]>=ButtonFiltrationTimer){
000399 91a0 0284 	LDS  R26,_ButtonFilter_S0000011001
00039b 31a4      	CPI  R26,LOW(0x14)
00039c f028      	BRLO _0x8D
                 ; 0000 02E3             BUTTON[0] = 1;
00039d e0e1      	LDI  R30,LOW(1)
00039e 93e0 027f 	STS  _BUTTON_S0000011001,R30
                 ; 0000 02E4             RefreshLcd = 1;
0003a0 2e4e      	MOV  R4,R30
                 ; 0000 02E5             }
                 ; 0000 02E6             else{
0003a1 c003      	RJMP _0x8E
                 _0x8D:
                 ; 0000 02E7             BUTTON[0] = 0;
0003a2 e0e0      	LDI  R30,LOW(0)
0003a3 93e0 027f 	STS  _BUTTON_S0000011001,R30
                 ; 0000 02E8             }
                 _0x8E:
                 ; 0000 02E9         ButtonFilter[0] = 0;
0003a5 e0e0      	LDI  R30,LOW(0)
0003a6 93e0 0284 	STS  _ButtonFilter_S0000011001,R30
                 ; 0000 02EA         }
                 _0x8C:
                 ; 0000 02EB 
                 ; 0000 02EC     // 1 ir 2 Mygtukas
                 ; 0000 02ED         if((BUTTON_INPUT1==1)&&(BUTTON_INPUT2==1)){
0003a8 9b86      	SBIS 0x10,6
0003a9 c002      	RJMP _0x90
0003aa 9985      	SBIC 0x10,5
0003ab c001      	RJMP _0x91
                 _0x90:
0003ac c00f      	RJMP _0x8F
                 _0x91:
                 ; 0000 02EE         ButtonFilter[0] = 0;
0003ad e0e0      	LDI  R30,LOW(0)
0003ae 93e0 0284 	STS  _ButtonFilter_S0000011001,R30
                 ; 0000 02EF         ButtonFilter[1] = 0;
                +
0003b0 93e0 0285+STS _ButtonFilter_S0000011001 + ( 1 ) , R30
                 	__PUTB1MN _ButtonFilter_S0000011001,1
                 ; 0000 02F0             if(DualButtonFilter[0]<ButtonFiltrationTimer){
0003b2 91a0 028d 	LDS  R26,_DualButtonFilter_S0000011001
0003b4 31a4      	CPI  R26,LOW(0x14)
0003b5 f428      	BRSH _0x92
                 ; 0000 02F1             DualButtonFilter[0]++;
0003b6 91e0 028d 	LDS  R30,_DualButtonFilter_S0000011001
0003b8 5fef      	SUBI R30,-LOW(1)
0003b9 93e0 028d 	STS  _DualButtonFilter_S0000011001,R30
                 ; 0000 02F2             }
                 ; 0000 02F3         }
                 _0x92:
                 ; 0000 02F4         else if((BUTTON_INPUT1==0)&&(BUTTON_INPUT2==0)){
0003bb c01a      	RJMP _0x93
                 _0x8F:
0003bc e0a0      	LDI  R26,0
0003bd 9986      	SBIC 0x10,6
0003be e0a1      	LDI  R26,1
0003bf 30a0      	CPI  R26,LOW(0x0)
0003c0 f429      	BRNE _0x95
0003c1 e0a0      	LDI  R26,0
0003c2 9985      	SBIC 0x10,5
0003c3 e0a1      	LDI  R26,1
0003c4 30a0      	CPI  R26,LOW(0x0)
0003c5 f009      	BREQ _0x96
                 _0x95:
0003c6 c00f      	RJMP _0x94
                 _0x96:
                 ; 0000 02F5             if(DualButtonFilter[0]>=ButtonFiltrationTimer){
0003c7 91a0 028d 	LDS  R26,_DualButtonFilter_S0000011001
0003c9 31a4      	CPI  R26,LOW(0x14)
0003ca f028      	BRLO _0x97
                 ; 0000 02F6             DUAL_BUTTON[0] = 1;
0003cb e0e1      	LDI  R30,LOW(1)
0003cc 93e0 0289 	STS  _DUAL_BUTTON_S0000011001,R30
                 ; 0000 02F7             RefreshLcd = 1;
0003ce 2e4e      	MOV  R4,R30
                 ; 0000 02F8             }
                 ; 0000 02F9             else{
0003cf c003      	RJMP _0x98
                 _0x97:
                 ; 0000 02FA             DUAL_BUTTON[0] = 0;
0003d0 e0e0      	LDI  R30,LOW(0)
0003d1 93e0 0289 	STS  _DUAL_BUTTON_S0000011001,R30
                 ; 0000 02FB             }
                 _0x98:
                 ; 0000 02FC         DualButtonFilter[0] = 0;
0003d3 e0e0      	LDI  R30,LOW(0)
0003d4 93e0 028d 	STS  _DualButtonFilter_S0000011001,R30
                 ; 0000 02FD         }
                 ; 0000 02FE 
                 ; 0000 02FF     // 2 Mygtukas
                 ; 0000 0300         if(BUTTON_INPUT2==1){
                 _0x94:
                 _0x93:
0003d6 9b85      	SBIS 0x10,5
0003d7 c00f      	RJMP _0x99
                 ; 0000 0301         PAGRINDINIS_LANGAS = 0;
0003d8 2477      	CLR  R7
                 ; 0000 0302             if(DualButtonFilter[0]<ButtonFiltrationTimer){
0003d9 91a0 028d 	LDS  R26,_DualButtonFilter_S0000011001
0003db 31a4      	CPI  R26,LOW(0x14)
0003dc f448      	BRSH _0x9A
                 ; 0000 0303                 if(ButtonFilter[1]<ButtonFiltrationTimer){
                +
0003dd 91a0 0285+LDS R26 , _ButtonFilter_S0000011001 + ( 1 )
                 	__GETB2MN _ButtonFilter_S0000011001,1
0003df 31a4      	CPI  R26,LOW(0x14)
0003e0 f428      	BRSH _0x9B
                 ; 0000 0304                 ButtonFilter[1]++;
                +
0003e1 91e0 0285+LDS R30 , _ButtonFilter_S0000011001 + ( 1 )
                 	__GETB1MN _ButtonFilter_S0000011001,1
0003e3 5fef      	SUBI R30,-LOW(1)
                +
0003e4 93e0 0285+STS _ButtonFilter_S0000011001 + ( 1 ) , R30
                 	__PUTB1MN _ButtonFilter_S0000011001,1
                 ; 0000 0305                 }
                 ; 0000 0306             }
                 _0x9B:
                 ; 0000 0307         }
                 _0x9A:
                 ; 0000 0308         else{
0003e6 c00f      	RJMP _0x9C
                 _0x99:
                 ; 0000 0309             if(ButtonFilter[1]>=ButtonFiltrationTimer){
                +
0003e7 91a0 0285+LDS R26 , _ButtonFilter_S0000011001 + ( 1 )
                 	__GETB2MN _ButtonFilter_S0000011001,1
0003e9 31a4      	CPI  R26,LOW(0x14)
0003ea f028      	BRLO _0x9D
                 ; 0000 030A             BUTTON[1] = 1;
0003eb e0e1      	LDI  R30,LOW(1)
                +
0003ec 93e0 0280+STS _BUTTON_S0000011001 + ( 1 ) , R30
                 	__PUTB1MN _BUTTON_S0000011001,1
                 ; 0000 030B             RefreshLcd = 1;
0003ee 2e4e      	MOV  R4,R30
                 ; 0000 030C             }
                 ; 0000 030D             else{
0003ef c003      	RJMP _0x9E
                 _0x9D:
                 ; 0000 030E             BUTTON[1] = 0;
0003f0 e0e0      	LDI  R30,LOW(0)
                +
0003f1 93e0 0280+STS _BUTTON_S0000011001 + ( 1 ) , R30
                 	__PUTB1MN _BUTTON_S0000011001,1
                 ; 0000 030F             }
                 _0x9E:
                 ; 0000 0310         ButtonFilter[1] = 0;
0003f3 e0e0      	LDI  R30,LOW(0)
                +
0003f4 93e0 0285+STS _ButtonFilter_S0000011001 + ( 1 ) , R30
                 	__PUTB1MN _ButtonFilter_S0000011001,1
                 ; 0000 0311         }
                 _0x9C:
                 ; 0000 0312 
                 ; 0000 0313     // 2 ir 3 Mygtukas
                 ; 0000 0314         if((BUTTON_INPUT2==1)&&(BUTTON_INPUT3==1)){
0003f6 9b85      	SBIS 0x10,5
0003f7 c002      	RJMP _0xA0
0003f8 9984      	SBIC 0x10,4
0003f9 c001      	RJMP _0xA1
                 _0xA0:
0003fa c00f      	RJMP _0x9F
                 _0xA1:
                 ; 0000 0315         ButtonFilter[1] = 0;
0003fb e0e0      	LDI  R30,LOW(0)
                +
0003fc 93e0 0285+STS _ButtonFilter_S0000011001 + ( 1 ) , R30
                 	__PUTB1MN _ButtonFilter_S0000011001,1
                 ; 0000 0316         ButtonFilter[2] = 0;
                +
0003fe 93e0 0286+STS _ButtonFilter_S0000011001 + ( 2 ) , R30
                 	__PUTB1MN _ButtonFilter_S0000011001,2
                 ; 0000 0317             if(DualButtonFilter[1]<ButtonFiltrationTimer){
                +
000400 91a0 028e+LDS R26 , _DualButtonFilter_S0000011001 + ( 1 )
                 	__GETB2MN _DualButtonFilter_S0000011001,1
000402 31a4      	CPI  R26,LOW(0x14)
000403 f428      	BRSH _0xA2
                 ; 0000 0318             DualButtonFilter[1]++;
                +
000404 91e0 028e+LDS R30 , _DualButtonFilter_S0000011001 + ( 1 )
                 	__GETB1MN _DualButtonFilter_S0000011001,1
000406 5fef      	SUBI R30,-LOW(1)
                +
000407 93e0 028e+STS _DualButtonFilter_S0000011001 + ( 1 ) , R30
                 	__PUTB1MN _DualButtonFilter_S0000011001,1
                 ; 0000 0319             }
                 ; 0000 031A         }
                 _0xA2:
                 ; 0000 031B         else if((BUTTON_INPUT2==0)&&(BUTTON_INPUT3==0)){
000409 c01a      	RJMP _0xA3
                 _0x9F:
00040a e0a0      	LDI  R26,0
00040b 9985      	SBIC 0x10,5
00040c e0a1      	LDI  R26,1
00040d 30a0      	CPI  R26,LOW(0x0)
00040e f429      	BRNE _0xA5
00040f e0a0      	LDI  R26,0
000410 9984      	SBIC 0x10,4
000411 e0a1      	LDI  R26,1
000412 30a0      	CPI  R26,LOW(0x0)
000413 f009      	BREQ _0xA6
                 _0xA5:
000414 c00f      	RJMP _0xA4
                 _0xA6:
                 ; 0000 031C             if(DualButtonFilter[1]>=ButtonFiltrationTimer){
                +
000415 91a0 028e+LDS R26 , _DualButtonFilter_S0000011001 + ( 1 )
                 	__GETB2MN _DualButtonFilter_S0000011001,1
000417 31a4      	CPI  R26,LOW(0x14)
000418 f028      	BRLO _0xA7
                 ; 0000 031D             DUAL_BUTTON[1] = 1;
000419 e0e1      	LDI  R30,LOW(1)
                +
00041a 93e0 028a+STS _DUAL_BUTTON_S0000011001 + ( 1 ) , R30
                 	__PUTB1MN _DUAL_BUTTON_S0000011001,1
                 ; 0000 031E             RefreshLcd = 1;
00041c 2e4e      	MOV  R4,R30
                 ; 0000 031F             }
                 ; 0000 0320             else{
00041d c003      	RJMP _0xA8
                 _0xA7:
                 ; 0000 0321             DUAL_BUTTON[1] = 0;
00041e e0e0      	LDI  R30,LOW(0)
                +
00041f 93e0 028a+STS _DUAL_BUTTON_S0000011001 + ( 1 ) , R30
                 	__PUTB1MN _DUAL_BUTTON_S0000011001,1
                 ; 0000 0322             }
                 _0xA8:
                 ; 0000 0323         DualButtonFilter[1] = 0;
000421 e0e0      	LDI  R30,LOW(0)
                +
000422 93e0 028e+STS _DualButtonFilter_S0000011001 + ( 1 ) , R30
                 	__PUTB1MN _DualButtonFilter_S0000011001,1
                 ; 0000 0324         }
                 ; 0000 0325 
                 ; 0000 0326     // 3 Mygtukas
                 ; 0000 0327         if(BUTTON_INPUT3==1){
                 _0xA4:
                 _0xA3:
000424 9b84      	SBIS 0x10,4
000425 c00b      	RJMP _0xA9
                 ; 0000 0328         PAGRINDINIS_LANGAS = 0;
000426 2477      	CLR  R7
                 ; 0000 0329             if(ButtonFilter[2]<ButtonFiltrationTimer){
                +
000427 91a0 0286+LDS R26 , _ButtonFilter_S0000011001 + ( 2 )
                 	__GETB2MN _ButtonFilter_S0000011001,2
000429 31a4      	CPI  R26,LOW(0x14)
00042a f428      	BRSH _0xAA
                 ; 0000 032A             ButtonFilter[2]++;
                +
00042b 91e0 0286+LDS R30 , _ButtonFilter_S0000011001 + ( 2 )
                 	__GETB1MN _ButtonFilter_S0000011001,2
00042d 5fef      	SUBI R30,-LOW(1)
                +
00042e 93e0 0286+STS _ButtonFilter_S0000011001 + ( 2 ) , R30
                 	__PUTB1MN _ButtonFilter_S0000011001,2
                 ; 0000 032B             }
                 ; 0000 032C         }
                 _0xAA:
                 ; 0000 032D         else{
000430 c00f      	RJMP _0xAB
                 _0xA9:
                 ; 0000 032E             if(ButtonFilter[2]>=ButtonFiltrationTimer){
                +
000431 91a0 0286+LDS R26 , _ButtonFilter_S0000011001 + ( 2 )
                 	__GETB2MN _ButtonFilter_S0000011001,2
000433 31a4      	CPI  R26,LOW(0x14)
000434 f028      	BRLO _0xAC
                 ; 0000 032F             BUTTON[2] = 1;
000435 e0e1      	LDI  R30,LOW(1)
                +
000436 93e0 0281+STS _BUTTON_S0000011001 + ( 2 ) , R30
                 	__PUTB1MN _BUTTON_S0000011001,2
                 ; 0000 0330             RefreshLcd = 1;
000438 2e4e      	MOV  R4,R30
                 ; 0000 0331             }
                 ; 0000 0332             else{
000439 c003      	RJMP _0xAD
                 _0xAC:
                 ; 0000 0333             BUTTON[2] = 0;
00043a e0e0      	LDI  R30,LOW(0)
                +
00043b 93e0 0281+STS _BUTTON_S0000011001 + ( 2 ) , R30
                 	__PUTB1MN _BUTTON_S0000011001,2
                 ; 0000 0334             }
                 _0xAD:
                 ; 0000 0335         ButtonFilter[2] = 0;
00043d e0e0      	LDI  R30,LOW(0)
                +
00043e 93e0 0286+STS _ButtonFilter_S0000011001 + ( 2 ) , R30
                 	__PUTB1MN _ButtonFilter_S0000011001,2
                 ; 0000 0336         }
                 _0xAB:
                 ; 0000 0337 
                 ; 0000 0338     // 3 ir 4 Mygtukas
                 ; 0000 0339         if((BUTTON_INPUT3==1)&&(BUTTON_INPUT4==1)){
000440 9b84      	SBIS 0x10,4
000441 c002      	RJMP _0xAF
000442 9983      	SBIC 0x10,3
000443 c001      	RJMP _0xB0
                 _0xAF:
000444 c00f      	RJMP _0xAE
                 _0xB0:
                 ; 0000 033A         ButtonFilter[2] = 0;
000445 e0e0      	LDI  R30,LOW(0)
                +
000446 93e0 0286+STS _ButtonFilter_S0000011001 + ( 2 ) , R30
                 	__PUTB1MN _ButtonFilter_S0000011001,2
                 ; 0000 033B         ButtonFilter[3] = 0;
                +
000448 93e0 0287+STS _ButtonFilter_S0000011001 + ( 3 ) , R30
                 	__PUTB1MN _ButtonFilter_S0000011001,3
                 ; 0000 033C             if(DualButtonFilter[2]<ButtonFiltrationTimer){
                +
00044a 91a0 028f+LDS R26 , _DualButtonFilter_S0000011001 + ( 2 )
                 	__GETB2MN _DualButtonFilter_S0000011001,2
00044c 31a4      	CPI  R26,LOW(0x14)
00044d f428      	BRSH _0xB1
                 ; 0000 033D             DualButtonFilter[2]++;
                +
00044e 91e0 028f+LDS R30 , _DualButtonFilter_S0000011001 + ( 2 )
                 	__GETB1MN _DualButtonFilter_S0000011001,2
000450 5fef      	SUBI R30,-LOW(1)
                +
000451 93e0 028f+STS _DualButtonFilter_S0000011001 + ( 2 ) , R30
                 	__PUTB1MN _DualButtonFilter_S0000011001,2
                 ; 0000 033E             }
                 ; 0000 033F         }
                 _0xB1:
                 ; 0000 0340         else if((BUTTON_INPUT3==0)&&(BUTTON_INPUT4==0)){
000453 c01a      	RJMP _0xB2
                 _0xAE:
000454 e0a0      	LDI  R26,0
000455 9984      	SBIC 0x10,4
000456 e0a1      	LDI  R26,1
000457 30a0      	CPI  R26,LOW(0x0)
000458 f429      	BRNE _0xB4
000459 e0a0      	LDI  R26,0
00045a 9983      	SBIC 0x10,3
00045b e0a1      	LDI  R26,1
00045c 30a0      	CPI  R26,LOW(0x0)
00045d f009      	BREQ _0xB5
                 _0xB4:
00045e c00f      	RJMP _0xB3
                 _0xB5:
                 ; 0000 0341             if(DualButtonFilter[2]>=ButtonFiltrationTimer){
                +
00045f 91a0 028f+LDS R26 , _DualButtonFilter_S0000011001 + ( 2 )
                 	__GETB2MN _DualButtonFilter_S0000011001,2
000461 31a4      	CPI  R26,LOW(0x14)
000462 f028      	BRLO _0xB6
                 ; 0000 0342             DUAL_BUTTON[2] = 1;
000463 e0e1      	LDI  R30,LOW(1)
                +
000464 93e0 028b+STS _DUAL_BUTTON_S0000011001 + ( 2 ) , R30
                 	__PUTB1MN _DUAL_BUTTON_S0000011001,2
                 ; 0000 0343             RefreshLcd = 1;
000466 2e4e      	MOV  R4,R30
                 ; 0000 0344             }
                 ; 0000 0345             else{
000467 c003      	RJMP _0xB7
                 _0xB6:
                 ; 0000 0346             DUAL_BUTTON[2] = 0;
000468 e0e0      	LDI  R30,LOW(0)
                +
000469 93e0 028b+STS _DUAL_BUTTON_S0000011001 + ( 2 ) , R30
                 	__PUTB1MN _DUAL_BUTTON_S0000011001,2
                 ; 0000 0347             }
                 _0xB7:
                 ; 0000 0348         DualButtonFilter[2] = 0;
00046b e0e0      	LDI  R30,LOW(0)
                +
00046c 93e0 028f+STS _DualButtonFilter_S0000011001 + ( 2 ) , R30
                 	__PUTB1MN _DualButtonFilter_S0000011001,2
                 ; 0000 0349         }
                 ; 0000 034A 
                 ; 0000 034B     // 4 Mygtukas
                 ; 0000 034C         if(BUTTON_INPUT4==1){
                 _0xB3:
                 _0xB2:
00046e 9b83      	SBIS 0x10,3
00046f c00b      	RJMP _0xB8
                 ; 0000 034D         PAGRINDINIS_LANGAS = 0;
000470 2477      	CLR  R7
                 ; 0000 034E             if(ButtonFilter[3]<ButtonFiltrationTimer){
                +
000471 91a0 0287+LDS R26 , _ButtonFilter_S0000011001 + ( 3 )
                 	__GETB2MN _ButtonFilter_S0000011001,3
000473 31a4      	CPI  R26,LOW(0x14)
000474 f428      	BRSH _0xB9
                 ; 0000 034F             ButtonFilter[3]++;
                +
000475 91e0 0287+LDS R30 , _ButtonFilter_S0000011001 + ( 3 )
                 	__GETB1MN _ButtonFilter_S0000011001,3
000477 5fef      	SUBI R30,-LOW(1)
                +
000478 93e0 0287+STS _ButtonFilter_S0000011001 + ( 3 ) , R30
                 	__PUTB1MN _ButtonFilter_S0000011001,3
                 ; 0000 0350             }
                 ; 0000 0351         }
                 _0xB9:
                 ; 0000 0352         else{
00047a c00f      	RJMP _0xBA
                 _0xB8:
                 ; 0000 0353             if(ButtonFilter[3]>=ButtonFiltrationTimer){
                +
00047b 91a0 0287+LDS R26 , _ButtonFilter_S0000011001 + ( 3 )
                 	__GETB2MN _ButtonFilter_S0000011001,3
00047d 31a4      	CPI  R26,LOW(0x14)
00047e f028      	BRLO _0xBB
                 ; 0000 0354             BUTTON[3] = 1;
00047f e0e1      	LDI  R30,LOW(1)
                +
000480 93e0 0282+STS _BUTTON_S0000011001 + ( 3 ) , R30
                 	__PUTB1MN _BUTTON_S0000011001,3
                 ; 0000 0355             RefreshLcd = 1;
000482 2e4e      	MOV  R4,R30
                 ; 0000 0356             }
                 ; 0000 0357             else{
000483 c003      	RJMP _0xBC
                 _0xBB:
                 ; 0000 0358             BUTTON[3] = 0;
000484 e0e0      	LDI  R30,LOW(0)
                +
000485 93e0 0282+STS _BUTTON_S0000011001 + ( 3 ) , R30
                 	__PUTB1MN _BUTTON_S0000011001,3
                 ; 0000 0359             }
                 _0xBC:
                 ; 0000 035A         ButtonFilter[3] = 0;
000487 e0e0      	LDI  R30,LOW(0)
                +
000488 93e0 0287+STS _ButtonFilter_S0000011001 + ( 3 ) , R30
                 	__PUTB1MN _ButtonFilter_S0000011001,3
                 ; 0000 035B         }
                 _0xBA:
                 ; 0000 035C 
                 ; 0000 035D     // 4 ir 5 Mygtukas
                 ; 0000 035E         if((BUTTON_INPUT4==1)&&(BUTTON_INPUT5==1)){
00048a 9b83      	SBIS 0x10,3
00048b c002      	RJMP _0xBE
00048c 9982      	SBIC 0x10,2
00048d c001      	RJMP _0xBF
                 _0xBE:
00048e c00f      	RJMP _0xBD
                 _0xBF:
                 ; 0000 035F         ButtonFilter[3] = 0;
00048f e0e0      	LDI  R30,LOW(0)
                +
000490 93e0 0287+STS _ButtonFilter_S0000011001 + ( 3 ) , R30
                 	__PUTB1MN _ButtonFilter_S0000011001,3
                 ; 0000 0360         ButtonFilter[4] = 0;
                +
000492 93e0 0288+STS _ButtonFilter_S0000011001 + ( 4 ) , R30
                 	__PUTB1MN _ButtonFilter_S0000011001,4
                 ; 0000 0361             if(DualButtonFilter[3]<ButtonFiltrationTimer){
                +
000494 91a0 0290+LDS R26 , _DualButtonFilter_S0000011001 + ( 3 )
                 	__GETB2MN _DualButtonFilter_S0000011001,3
000496 31a4      	CPI  R26,LOW(0x14)
000497 f428      	BRSH _0xC0
                 ; 0000 0362             DualButtonFilter[3]++;
                +
000498 91e0 0290+LDS R30 , _DualButtonFilter_S0000011001 + ( 3 )
                 	__GETB1MN _DualButtonFilter_S0000011001,3
00049a 5fef      	SUBI R30,-LOW(1)
                +
00049b 93e0 0290+STS _DualButtonFilter_S0000011001 + ( 3 ) , R30
                 	__PUTB1MN _DualButtonFilter_S0000011001,3
                 ; 0000 0363             }
                 ; 0000 0364         }
                 _0xC0:
                 ; 0000 0365         else if((BUTTON_INPUT4==0)&&(BUTTON_INPUT5==0)){
00049d c01a      	RJMP _0xC1
                 _0xBD:
00049e e0a0      	LDI  R26,0
00049f 9983      	SBIC 0x10,3
0004a0 e0a1      	LDI  R26,1
0004a1 30a0      	CPI  R26,LOW(0x0)
0004a2 f429      	BRNE _0xC3
0004a3 e0a0      	LDI  R26,0
0004a4 9982      	SBIC 0x10,2
0004a5 e0a1      	LDI  R26,1
0004a6 30a0      	CPI  R26,LOW(0x0)
0004a7 f009      	BREQ _0xC4
                 _0xC3:
0004a8 c00f      	RJMP _0xC2
                 _0xC4:
                 ; 0000 0366             if(DualButtonFilter[3]>=ButtonFiltrationTimer){
                +
0004a9 91a0 0290+LDS R26 , _DualButtonFilter_S0000011001 + ( 3 )
                 	__GETB2MN _DualButtonFilter_S0000011001,3
0004ab 31a4      	CPI  R26,LOW(0x14)
0004ac f028      	BRLO _0xC5
                 ; 0000 0367             DUAL_BUTTON[3] = 1;
0004ad e0e1      	LDI  R30,LOW(1)
                +
0004ae 93e0 028c+STS _DUAL_BUTTON_S0000011001 + ( 3 ) , R30
                 	__PUTB1MN _DUAL_BUTTON_S0000011001,3
                 ; 0000 0368             RefreshLcd = 1;
0004b0 2e4e      	MOV  R4,R30
                 ; 0000 0369             }
                 ; 0000 036A             else{
0004b1 c003      	RJMP _0xC6
                 _0xC5:
                 ; 0000 036B             DUAL_BUTTON[3] = 0;
0004b2 e0e0      	LDI  R30,LOW(0)
                +
0004b3 93e0 028c+STS _DUAL_BUTTON_S0000011001 + ( 3 ) , R30
                 	__PUTB1MN _DUAL_BUTTON_S0000011001,3
                 ; 0000 036C             }
                 _0xC6:
                 ; 0000 036D         DualButtonFilter[3] = 0;
0004b5 e0e0      	LDI  R30,LOW(0)
                +
0004b6 93e0 0290+STS _DualButtonFilter_S0000011001 + ( 3 ) , R30
                 	__PUTB1MN _DualButtonFilter_S0000011001,3
                 ; 0000 036E         }
                 ; 0000 036F 
                 ; 0000 0370     // 5 Mygtukas
                 ; 0000 0371         if(BUTTON_INPUT5==1){
                 _0xC2:
                 _0xC1:
0004b8 9b82      	SBIS 0x10,2
0004b9 c00b      	RJMP _0xC7
                 ; 0000 0372         PAGRINDINIS_LANGAS = 0;
0004ba 2477      	CLR  R7
                 ; 0000 0373             if(ButtonFilter[4]<ButtonFiltrationTimer){
                +
0004bb 91a0 0288+LDS R26 , _ButtonFilter_S0000011001 + ( 4 )
                 	__GETB2MN _ButtonFilter_S0000011001,4
0004bd 31a4      	CPI  R26,LOW(0x14)
0004be f428      	BRSH _0xC8
                 ; 0000 0374             ButtonFilter[4]++;
                +
0004bf 91e0 0288+LDS R30 , _ButtonFilter_S0000011001 + ( 4 )
                 	__GETB1MN _ButtonFilter_S0000011001,4
0004c1 5fef      	SUBI R30,-LOW(1)
                +
0004c2 93e0 0288+STS _ButtonFilter_S0000011001 + ( 4 ) , R30
                 	__PUTB1MN _ButtonFilter_S0000011001,4
                 ; 0000 0375             }
                 ; 0000 0376         }
                 _0xC8:
                 ; 0000 0377         else{
0004c4 c00f      	RJMP _0xC9
                 _0xC7:
                 ; 0000 0378             if(ButtonFilter[4]>=ButtonFiltrationTimer){
                +
0004c5 91a0 0288+LDS R26 , _ButtonFilter_S0000011001 + ( 4 )
                 	__GETB2MN _ButtonFilter_S0000011001,4
0004c7 31a4      	CPI  R26,LOW(0x14)
0004c8 f028      	BRLO _0xCA
                 ; 0000 0379             BUTTON[4] = 1;
0004c9 e0e1      	LDI  R30,LOW(1)
                +
0004ca 93e0 0283+STS _BUTTON_S0000011001 + ( 4 ) , R30
                 	__PUTB1MN _BUTTON_S0000011001,4
                 ; 0000 037A             RefreshLcd = 1;
0004cc 2e4e      	MOV  R4,R30
                 ; 0000 037B             }
                 ; 0000 037C             else{
0004cd c003      	RJMP _0xCB
                 _0xCA:
                 ; 0000 037D             BUTTON[4] = 0;
0004ce e0e0      	LDI  R30,LOW(0)
                +
0004cf 93e0 0283+STS _BUTTON_S0000011001 + ( 4 ) , R30
                 	__PUTB1MN _BUTTON_S0000011001,4
                 ; 0000 037E             }
                 _0xCB:
                 ; 0000 037F         ButtonFilter[4] = 0;
0004d1 e0e0      	LDI  R30,LOW(0)
                +
0004d2 93e0 0288+STS _ButtonFilter_S0000011001 + ( 4 ) , R30
                 	__PUTB1MN _ButtonFilter_S0000011001,4
                 ; 0000 0380         }
                 _0xC9:
                 ; 0000 0381     //////////////////////////////////////////////////////////////////////////////////
                 ; 0000 0382     //////////////////////////////////////////////////////////////////////////////////
                 ; 0000 0383     //////////////////////////////////////////////////////////////////////////////////
                 ; 0000 0384 
                 ; 0000 0385 
                 ; 0000 0386 
                 ; 0000 0387 
                 ; 0000 0388     //////////////////////////////////////////////////////////////////////////////////
                 ; 0000 0389     ///////////////////////////// LCD ////////////////////////////////////////////////
                 ; 0000 038A     //////////////////////////////////////////////////////////////////////////////////
                 ; 0000 038B     // Pagrindiniame meniu vaikscioti kairen desinen
                 ; 0000 038C         if(Address[1]==0){// Jei y == 0, tai pagrindinis meniu
                +
0004d4 91e0 0261+LDS R30 , _Address + ( 1 )
                 	__GETB1MN _Address,1
0004d6 30e0      	CPI  R30,0
0004d7 f591      	BRNE _0xCC
                 ; 0000 038D             if(Address[2]==0){
                +
0004d8 91e0 0262+LDS R30 , _Address + ( 2 )
                 	__GETB1MN _Address,2
0004da 30e0      	CPI  R30,0
0004db f571      	BRNE _0xCD
                 ; 0000 038E 
                 ; 0000 038F                 if(DUAL_BUTTON[0]==1){
0004dc 91a0 0289 	LDS  R26,_DUAL_BUTTON_S0000011001
0004de 30a1      	CPI  R26,LOW(0x1)
0004df f419      	BRNE _0xCE
                 ; 0000 0390                 Address[0] = 0;
0004e0 e0e0      	LDI  R30,LOW(0)
0004e1 93e0 0260 	STS  _Address,R30
                 ; 0000 0391                 }
                 ; 0000 0392 
                 ; 0000 0393                 if(BUTTON[0]==1){
                 _0xCE:
0004e3 91a0 027f 	LDS  R26,_BUTTON_S0000011001
0004e5 30a1      	CPI  R26,LOW(0x1)
0004e6 f481      	BRNE _0xCF
                 ; 0000 0394                     if(Address[0]>0){
0004e7 91a0 0260 	LDS  R26,_Address
0004e9 30a1      	CPI  R26,LOW(0x1)
0004ea f044      	BRLT _0xD0
                 ; 0000 0395                     Address[0]--;
0004eb 91e0 0260 	LDS  R30,_Address
0004ed 50e1      	SUBI R30,LOW(1)
0004ee 93e0 0260 	STS  _Address,R30
                 ; 0000 0396                     RefreshLcd = 1;
0004f0 e0e1      	LDI  R30,LOW(1)
0004f1 2e4e      	MOV  R4,R30
                 ; 0000 0397                     }
                 ; 0000 0398                     else{
0004f2 c003      	RJMP _0xD1
                 _0xD0:
                 ; 0000 0399                     Address[0] = 13;
0004f3 e0ed      	LDI  R30,LOW(13)
0004f4 93e0 0260 	STS  _Address,R30
                 ; 0000 039A                     }
                 _0xD1:
                 ; 0000 039B                 }
                 ; 0000 039C                 else if(BUTTON[1]==1){
0004f6 c013      	RJMP _0xD2
                 _0xCF:
                +
0004f7 91a0 0280+LDS R26 , _BUTTON_S0000011001 + ( 1 )
                 	__GETB2MN _BUTTON_S0000011001,1
0004f9 30a1      	CPI  R26,LOW(0x1)
0004fa f479      	BRNE _0xD3
                 ; 0000 039D                     if(Address[0]<13){
0004fb 91a0 0260 	LDS  R26,_Address
0004fd 30ad      	CPI  R26,LOW(0xD)
0004fe f444      	BRGE _0xD4
                 ; 0000 039E                     Address[0]++;
0004ff 91e0 0260 	LDS  R30,_Address
000501 5fef      	SUBI R30,-LOW(1)
000502 93e0 0260 	STS  _Address,R30
                 ; 0000 039F                     RefreshLcd = 1;
000504 e0e1      	LDI  R30,LOW(1)
000505 2e4e      	MOV  R4,R30
                 ; 0000 03A0                     }
                 ; 0000 03A1                     else{
000506 c003      	RJMP _0xD5
                 _0xD4:
                 ; 0000 03A2                     Address[0] = 0;
000507 e0e0      	LDI  R30,LOW(0)
000508 93e0 0260 	STS  _Address,R30
                 ; 0000 03A3                     }
                 _0xD5:
                 ; 0000 03A4                 }
                 ; 0000 03A5             }
                 _0xD3:
                 _0xD2:
                 ; 0000 03A6         }
                 _0xCD:
                 ; 0000 03A7 
                 ; 0000 03A8         if(RefreshLcd==1){
                 _0xCC:
00050a e0e1      	LDI  R30,LOW(1)
00050b 15e4      	CP   R30,R4
00050c f411      	BRNE _0xD6
                 ; 0000 03A9         lcd_clear();
00050d 940e 08e9 	CALL _lcd_clear
                 ; 0000 03AA         }
                 ; 0000 03AB 
                 ; 0000 03AC         if(CODE_IsEntering==0){
                 _0xD6:
00050f 91e0 026d 	LDS  R30,_CODE_IsEntering_G000
000511 30e0      	CPI  R30,0
000512 f011      	BREQ PC+3
000513 940c 06eb 	JMP _0xD7
                 ; 0000 03AD             // Pagrindinis langas
                 ; 0000 03AE             if(Address[0]==0){
000515 91e0 0260 	LDS  R30,_Address
000517 30e0      	CPI  R30,0
000518 f011      	BREQ PC+3
000519 940c 0674 	JMP _0xD8
                 ; 0000 03AF                 if(RefreshLcd==1){
00051b e0e1      	LDI  R30,LOW(1)
00051c 15e4      	CP   R30,R4
00051d f011      	BREQ PC+3
00051e 940c 05f6 	JMP _0xD9
                 ; 0000 03B0                 // LAIKAS: 12:34
                 ; 0000 03B1                 lcd_putsf("LAIKAS: ");
                +
000520 eee0     +LDI R30 , LOW ( 2 * _0x0 + ( 140 ) )
000521 e0f0     +LDI R31 , HIGH ( 2 * _0x0 + ( 140 ) )
                 	__POINTW1FN _0x0,140
000522 940e 0a00 	CALL SUBOPT_0x12
                 ; 0000 03B2                 lcd_put_number(0,2,0,0,RealTimeHour,0);
000524 940e 09f6 	CALL SUBOPT_0x10
000526 940e 0a0c 	CALL SUBOPT_0x13
                 ; 0000 03B3                 lcd_putsf(":");
                 ; 0000 03B4                 lcd_put_number(0,2,0,0,RealTimeMinute,0);
000528 940e 09f1 	CALL SUBOPT_0xF
00052a 940e 0a0c 	CALL SUBOPT_0x13
                 ; 0000 03B5                 lcd_putsf(":");
                 ; 0000 03B6                 lcd_put_number(0,2,0,0,RealTimeSecond,0);
00052c 2de5      	MOV  R30,R5
00052d e0f0      	LDI  R31,0
00052e 940e 0a1e 	CALL SUBOPT_0x14
                 ; 0000 03B7                 lcd_putsf("   ");
000530 940e 0a2a 	CALL SUBOPT_0x15
                 ; 0000 03B8                     if(Address[1]==0){
                +
000532 91e0 0261+LDS R30 , _Address + ( 1 )
                 	__GETB1MN _Address,1
000534 30e0      	CPI  R30,0
000535 f419      	BRNE _0xDA
                 ; 0000 03B9                     lcd_putsf("<");
                +
000536 ece7     +LDI R30 , LOW ( 2 * _0x0 + ( 115 ) )
000537 e0f0     +LDI R31 , HIGH ( 2 * _0x0 + ( 115 ) )
                 	__POINTW1FN _0x0,115
000538 c002      	RJMP _0x166
                 ; 0000 03BA                     }
                 ; 0000 03BB                     else{
                 _0xDA:
                 ; 0000 03BC                     lcd_putsf(" ");
                +
000539 ecea     +LDI R30 , LOW ( 2 * _0x0 + ( 118 ) )
00053a e0f0     +LDI R31 , HIGH ( 2 * _0x0 + ( 118 ) )
                 	__POINTW1FN _0x0,118
                 _0x166:
00053b 93fa      	ST   -Y,R31
00053c 93ea      	ST   -Y,R30
00053d 940e 0928 	CALL _lcd_putsf
                 ; 0000 03BD                     }
                 ; 0000 03BE 
                 ; 0000 03BF                 lcd_putsf("DATA:");
                +
00053f eee9     +LDI R30 , LOW ( 2 * _0x0 + ( 149 ) )
000540 e0f0     +LDI R31 , HIGH ( 2 * _0x0 + ( 149 ) )
                 	__POINTW1FN _0x0,149
000541 940e 0a30 	CALL SUBOPT_0x16
                 ; 0000 03C0                 lcd_put_number(0,4,0,0,RealTimeYear,0);
000543 e0e0      	LDI  R30,LOW(0)
000544 93ea      	ST   -Y,R30
000545 e0e4      	LDI  R30,LOW(4)
000546 940e 0a34 	CALL SUBOPT_0x17
000548 940e 0978 	CALL SUBOPT_0x0
00054a 2766      	CLR  R22
00054b 2777      	CLR  R23
00054c 940e 0b76 	CALL __PUTPARD1
                +
00054e e0e0     +LDI R30 , LOW ( 0x0 )
00054f e0f0     +LDI R31 , HIGH ( 0x0 )
000550 e060     +LDI R22 , BYTE3 ( 0x0 )
000551 e070     +LDI R23 , BYTE4 ( 0x0 )
                 	__GETD1N 0x0
000552 940e 0b76 	CALL __PUTPARD1
000554 dc36      	RCALL _lcd_put_number
                 ; 0000 03C1                 lcd_putsf(".");
                +
000555 e7e3     +LDI R30 , LOW ( 2 * _0x0 + ( 31 ) )
000556 e0f0     +LDI R31 , HIGH ( 2 * _0x0 + ( 31 ) )
                 	__POINTW1FN _0x0,31
000557 940e 0a00 	CALL SUBOPT_0x12
                 ; 0000 03C2                 lcd_put_number(0,2,0,0,RealTimeMonth,0);
000559 940e 097d 	CALL SUBOPT_0x1
00055b e0f0      	LDI  R31,0
00055c fde7      	SBRC R30,7
00055d efff      	SER  R31
00055e 940e 0a1e 	CALL SUBOPT_0x14
                 ; 0000 03C3                 lcd_putsf(".");
                +
000560 e7e3     +LDI R30 , LOW ( 2 * _0x0 + ( 31 ) )
000561 e0f0     +LDI R31 , HIGH ( 2 * _0x0 + ( 31 ) )
                 	__POINTW1FN _0x0,31
000562 940e 0a00 	CALL SUBOPT_0x12
                 ; 0000 03C4                 lcd_put_number(0,2,0,0,RealTimeDay,0);
000564 940e 0989 	CALL SUBOPT_0x3
000566 e0f0      	LDI  R31,0
000567 fde7      	SBRC R30,7
000568 efff      	SER  R31
000569 940e 0a1e 	CALL SUBOPT_0x14
                 ; 0000 03C5                 lcd_putsf("    ");
                +
00056b eeef     +LDI R30 , LOW ( 2 * _0x0 + ( 155 ) )
00056c e0f0     +LDI R31 , HIGH ( 2 * _0x0 + ( 155 ) )
                 	__POINTW1FN _0x0,155
00056d 940e 0a30 	CALL SUBOPT_0x16
                 ; 0000 03C6                     if(Address[1]==1){
                +
00056f 91a0 0261+LDS R26 , _Address + ( 1 )
                 	__GETB2MN _Address,1
000571 30a1      	CPI  R26,LOW(0x1)
000572 f419      	BRNE _0xDC
                 ; 0000 03C7                     lcd_putsf("<");
                +
000573 ece7     +LDI R30 , LOW ( 2 * _0x0 + ( 115 ) )
000574 e0f0     +LDI R31 , HIGH ( 2 * _0x0 + ( 115 ) )
                 	__POINTW1FN _0x0,115
000575 c002      	RJMP _0x167
                 ; 0000 03C8                     }
                 ; 0000 03C9                     else{
                 _0xDC:
                 ; 0000 03CA                     lcd_putsf(" ");
                +
000576 ecea     +LDI R30 , LOW ( 2 * _0x0 + ( 118 ) )
000577 e0f0     +LDI R31 , HIGH ( 2 * _0x0 + ( 118 ) )
                 	__POINTW1FN _0x0,118
                 _0x167:
000578 93fa      	ST   -Y,R31
000579 93ea      	ST   -Y,R30
00057a 940e 0928 	CALL _lcd_putsf
                 ; 0000 03CB                     }
                 ; 0000 03CC 
                 ; 0000 03CD                 lcd_putsf("SKAMBEJIMAI        ");
                +
00057c efe4     +LDI R30 , LOW ( 2 * _0x0 + ( 160 ) )
00057d e0f0     +LDI R31 , HIGH ( 2 * _0x0 + ( 160 ) )
                 	__POINTW1FN _0x0,160
00057e 940e 0a30 	CALL SUBOPT_0x16
                 ; 0000 03CE                     if(Address[1]==2){
                +
000580 91a0 0261+LDS R26 , _Address + ( 1 )
                 	__GETB2MN _Address,1
000582 30a2      	CPI  R26,LOW(0x2)
000583 f419      	BRNE _0xDE
                 ; 0000 03CF                     lcd_putsf("<");
                +
000584 ece7     +LDI R30 , LOW ( 2 * _0x0 + ( 115 ) )
000585 e0f0     +LDI R31 , HIGH ( 2 * _0x0 + ( 115 ) )
                 	__POINTW1FN _0x0,115
000586 c002      	RJMP _0x168
                 ; 0000 03D0                     }
                 ; 0000 03D1                     else{
                 _0xDE:
                 ; 0000 03D2                     lcd_putsf(" ");
                +
000587 ecea     +LDI R30 , LOW ( 2 * _0x0 + ( 118 ) )
000588 e0f0     +LDI R31 , HIGH ( 2 * _0x0 + ( 118 ) )
                 	__POINTW1FN _0x0,118
                 _0x168:
000589 93fa      	ST   -Y,R31
00058a 93ea      	ST   -Y,R30
00058b 940e 0928 	CALL _lcd_putsf
                 ; 0000 03D3                     }
                 ; 0000 03D4 
                 ; 0000 03D5                 lcd_putsf("NUSTATYMAI         ");
                +
00058d e0e8     +LDI R30 , LOW ( 2 * _0x0 + ( 180 ) )
00058e e0f1     +LDI R31 , HIGH ( 2 * _0x0 + ( 180 ) )
                 	__POINTW1FN _0x0,180
00058f 940e 0a30 	CALL SUBOPT_0x16
                 ; 0000 03D6                     if(Address[1]==3){
                +
000591 91a0 0261+LDS R26 , _Address + ( 1 )
                 	__GETB2MN _Address,1
000593 30a3      	CPI  R26,LOW(0x3)
000594 f419      	BRNE _0xE0
                 ; 0000 03D7                     lcd_putsf("<");
                +
000595 ece7     +LDI R30 , LOW ( 2 * _0x0 + ( 115 ) )
000596 e0f0     +LDI R31 , HIGH ( 2 * _0x0 + ( 115 ) )
                 	__POINTW1FN _0x0,115
000597 c002      	RJMP _0x169
                 ; 0000 03D8                     }
                 ; 0000 03D9                     else{
                 _0xE0:
                 ; 0000 03DA                     lcd_putsf(" ");
                +
000598 ecea     +LDI R30 , LOW ( 2 * _0x0 + ( 118 ) )
000599 e0f0     +LDI R31 , HIGH ( 2 * _0x0 + ( 118 ) )
                 	__POINTW1FN _0x0,118
                 _0x169:
00059a 93fa      	ST   -Y,R31
00059b 93ea      	ST   -Y,R30
00059c 940e 0928 	CALL _lcd_putsf
                 ; 0000 03DB                     }
                 ; 0000 03DC 
                 ; 0000 03DD 
                 ; 0000 03DE                     // Kursoriai
                 ; 0000 03DF                     if(Address[1]==0){
                +
00059e 91e0 0261+LDS R30 , _Address + ( 1 )
                 	__GETB1MN _Address,1
0005a0 30e0      	CPI  R30,0
0005a1 f4d9      	BRNE _0xE2
                 ; 0000 03E0                         if(Address[2]==1){
                +
0005a2 91a0 0262+LDS R26 , _Address + ( 2 )
                 	__GETB2MN _Address,2
0005a4 30a1      	CPI  R26,LOW(0x1)
0005a5 f411      	BRNE _0xE3
                 ; 0000 03E1                         lcd_cursor(8,0);
0005a6 e0e8      	LDI  R30,LOW(8)
0005a7 c011      	RJMP _0x16A
                 ; 0000 03E2                         }
                 ; 0000 03E3                         else if(Address[2]==2){
                 _0xE3:
                +
0005a8 91a0 0262+LDS R26 , _Address + ( 2 )
                 	__GETB2MN _Address,2
0005aa 30a2      	CPI  R26,LOW(0x2)
0005ab f411      	BRNE _0xE5
                 ; 0000 03E4                         lcd_cursor(9,0);
0005ac e0e9      	LDI  R30,LOW(9)
0005ad c00b      	RJMP _0x16A
                 ; 0000 03E5                         }
                 ; 0000 03E6 
                 ; 0000 03E7                         else if(Address[2]==3){
                 _0xE5:
                +
0005ae 91a0 0262+LDS R26 , _Address + ( 2 )
                 	__GETB2MN _Address,2
0005b0 30a3      	CPI  R26,LOW(0x3)
0005b1 f411      	BRNE _0xE7
                 ; 0000 03E8                         lcd_cursor(11,0);
0005b2 e0eb      	LDI  R30,LOW(11)
0005b3 c005      	RJMP _0x16A
                 ; 0000 03E9                         }
                 ; 0000 03EA                         else if(Address[2]==4){
                 _0xE7:
                +
0005b4 91a0 0262+LDS R26 , _Address + ( 2 )
                 	__GETB2MN _Address,2
0005b6 30a4      	CPI  R26,LOW(0x4)
0005b7 f421      	BRNE _0xE9
                 ; 0000 03EB                         lcd_cursor(12,0);
0005b8 e0ec      	LDI  R30,LOW(12)
                 _0x16A:
0005b9 93ea      	ST   -Y,R30
0005ba 940e 0a39 	CALL SUBOPT_0x18
                 ; 0000 03EC                         }
                 ; 0000 03ED                     }
                 _0xE9:
                 ; 0000 03EE                     else if(Address[1]==1){
0005bc c039      	RJMP _0xEA
                 _0xE2:
                +
0005bd 91a0 0261+LDS R26 , _Address + ( 1 )
                 	__GETB2MN _Address,1
0005bf 30a1      	CPI  R26,LOW(0x1)
0005c0 f5a9      	BRNE _0xEB
                 ; 0000 03EF                         if(Address[2]==1){
                +
0005c1 91a0 0262+LDS R26 , _Address + ( 2 )
                 	__GETB2MN _Address,2
0005c3 30a1      	CPI  R26,LOW(0x1)
0005c4 f411      	BRNE _0xEC
                 ; 0000 03F0                         lcd_cursor(5,1);
0005c5 e0e5      	LDI  R30,LOW(5)
0005c6 c011      	RJMP _0x16B
                 ; 0000 03F1                         }
                 ; 0000 03F2                         else if(Address[2]==2){
                 _0xEC:
                +
0005c7 91a0 0262+LDS R26 , _Address + ( 2 )
                 	__GETB2MN _Address,2
0005c9 30a2      	CPI  R26,LOW(0x2)
0005ca f411      	BRNE _0xEE
                 ; 0000 03F3                         lcd_cursor(6,1);
0005cb e0e6      	LDI  R30,LOW(6)
0005cc c00b      	RJMP _0x16B
                 ; 0000 03F4                         }
                 ; 0000 03F5                         else if(Address[2]==3){
                 _0xEE:
                +
0005cd 91a0 0262+LDS R26 , _Address + ( 2 )
                 	__GETB2MN _Address,2
0005cf 30a3      	CPI  R26,LOW(0x3)
0005d0 f411      	BRNE _0xF0
                 ; 0000 03F6                         lcd_cursor(7,1);
0005d1 e0e7      	LDI  R30,LOW(7)
0005d2 c005      	RJMP _0x16B
                 ; 0000 03F7                         }
                 ; 0000 03F8                         else if(Address[2]==4){
                 _0xF0:
                +
0005d3 91a0 0262+LDS R26 , _Address + ( 2 )
                 	__GETB2MN _Address,2
0005d5 30a4      	CPI  R26,LOW(0x4)
0005d6 f429      	BRNE _0xF2
                 ; 0000 03F9                         lcd_cursor(8,1);
0005d7 e0e8      	LDI  R30,LOW(8)
                 _0x16B:
0005d8 93ea      	ST   -Y,R30
0005d9 e0e1      	LDI  R30,LOW(1)
0005da 93ea      	ST   -Y,R30
0005db dc52      	RCALL _lcd_cursor
                 ; 0000 03FA                         }
                 ; 0000 03FB 
                 ; 0000 03FC                         if(Address[2]==5){
                 _0xF2:
                +
0005dc 91a0 0262+LDS R26 , _Address + ( 2 )
                 	__GETB2MN _Address,2
0005de 30a5      	CPI  R26,LOW(0x5)
0005df f411      	BRNE _0xF3
                 ; 0000 03FD                         lcd_cursor(10,0);
0005e0 e0ea      	LDI  R30,LOW(10)
0005e1 c011      	RJMP _0x16C
                 ; 0000 03FE                         }
                 ; 0000 03FF                         else if(Address[2]==6){
                 _0xF3:
                +
0005e2 91a0 0262+LDS R26 , _Address + ( 2 )
                 	__GETB2MN _Address,2
0005e4 30a6      	CPI  R26,LOW(0x6)
0005e5 f411      	BRNE _0xF5
                 ; 0000 0400                         lcd_cursor(11,0);
0005e6 e0eb      	LDI  R30,LOW(11)
0005e7 c00b      	RJMP _0x16C
                 ; 0000 0401                         }
                 ; 0000 0402 
                 ; 0000 0403                         else if(Address[2]==7){
                 _0xF5:
                +
0005e8 91a0 0262+LDS R26 , _Address + ( 2 )
                 	__GETB2MN _Address,2
0005ea 30a7      	CPI  R26,LOW(0x7)
0005eb f411      	BRNE _0xF7
                 ; 0000 0404                         lcd_cursor(13,0);
0005ec e0ed      	LDI  R30,LOW(13)
0005ed c005      	RJMP _0x16C
                 ; 0000 0405                         }
                 ; 0000 0406                         else if(Address[2]==8){
                 _0xF7:
                +
0005ee 91a0 0262+LDS R26 , _Address + ( 2 )
                 	__GETB2MN _Address,2
0005f0 30a8      	CPI  R26,LOW(0x8)
0005f1 f421      	BRNE _0xF9
                 ; 0000 0407                         lcd_cursor(14,0);
0005f2 e0ee      	LDI  R30,LOW(14)
                 _0x16C:
0005f3 93ea      	ST   -Y,R30
0005f4 940e 0a39 	CALL SUBOPT_0x18
                 ; 0000 0408                         }
                 ; 0000 0409                     }
                 _0xF9:
                 ; 0000 040A                 }
                 _0xEB:
                 _0xEA:
                 ; 0000 040B 
                 ; 0000 040C                 if(Address[2]==0){
                 _0xD9:
                +
0005f6 91e0 0262+LDS R30 , _Address + ( 2 )
                 	__GETB1MN _Address,2
0005f8 30e0      	CPI  R30,0
0005f9 f011      	BREQ PC+3
0005fa 940c 0640 	JMP _0xFA
                 ; 0000 040D                     if(BUTTON[0]==1){
0005fc 91a0 027f 	LDS  R26,_BUTTON_S0000011001
0005fe 30a1      	CPI  R26,LOW(0x1)
0005ff f439      	BRNE _0xFB
                 ; 0000 040E                         if(Address[1]>0){
                +
000600 91a0 0261+LDS R26 , _Address + ( 1 )
                 	__GETB2MN _Address,1
000602 30a1      	CPI  R26,LOW(0x1)
000603 f014      	BRLT _0xFC
                 ; 0000 040F                         Address[1]--;
000604 940e 0a3d 	CALL SUBOPT_0x19
                 ; 0000 0410                         }
                 ; 0000 0411                     }
                 _0xFC:
                 ; 0000 0412                     else if(BUTTON[1]==1){
000606 c00a      	RJMP _0xFD
                 _0xFB:
                +
000607 91a0 0280+LDS R26 , _BUTTON_S0000011001 + ( 1 )
                 	__GETB2MN _BUTTON_S0000011001,1
000609 30a1      	CPI  R26,LOW(0x1)
00060a f431      	BRNE _0xFE
                 ; 0000 0413                         if(Address[1]<3){
                +
00060b 91a0 0261+LDS R26 , _Address + ( 1 )
                 	__GETB2MN _Address,1
00060d 30a3      	CPI  R26,LOW(0x3)
00060e f414      	BRGE _0xFF
                 ; 0000 0414                         Address[1]++;
00060f 940e 0a43 	CALL SUBOPT_0x1A
                 ; 0000 0415                         }
                 ; 0000 0416                     }
                 _0xFF:
                 ; 0000 0417 
                 ; 0000 0418                     if(BUTTON[4]==1){
                 _0xFE:
                 _0xFD:
                +
000611 91a0 0283+LDS R26 , _BUTTON_S0000011001 + ( 4 )
                 	__GETB2MN _BUTTON_S0000011001,4
000613 30a1      	CPI  R26,LOW(0x1)
000614 f551      	BRNE _0x100
                 ; 0000 0419                         if(Address[1]==0){
                +
000615 91e0 0261+LDS R30 , _Address + ( 1 )
                 	__GETB1MN _Address,1
000617 30e0      	CPI  R30,0
000618 f431      	BRNE _0x101
                 ; 0000 041A                         Address[0] = 0;
000619 e0e0      	LDI  R30,LOW(0)
00061a 940e 0a49 	CALL SUBOPT_0x1B
                 ; 0000 041B                         Address[1] = 0;
                 ; 0000 041C                         Address[2] = 1;
00061c e0e1      	LDI  R30,LOW(1)
                +
00061d 93e0 0262+STS _Address + ( 2 ) , R30
                 	__PUTB1MN _Address,2
                 ; 0000 041D                         }
                 ; 0000 041E                         if(Address[1]==1){
                 _0x101:
                +
00061f 91a0 0261+LDS R26 , _Address + ( 1 )
                 	__GETB2MN _Address,1
000621 30a1      	CPI  R26,LOW(0x1)
000622 f441      	BRNE _0x102
                 ; 0000 041F                         Address[0] = 0;
000623 e0e0      	LDI  R30,LOW(0)
000624 93e0 0260 	STS  _Address,R30
                 ; 0000 0420                         Address[1] = 1;
000626 e0e1      	LDI  R30,LOW(1)
                +
000627 93e0 0261+STS _Address + ( 1 ) , R30
                 	__PUTB1MN _Address,1
                 ; 0000 0421                         Address[2] = 1;
                +
000629 93e0 0262+STS _Address + ( 2 ) , R30
                 	__PUTB1MN _Address,2
                 ; 0000 0422                         }
                 ; 0000 0423                         if(Address[1]==2){
                 _0x102:
                +
00062b 91a0 0261+LDS R26 , _Address + ( 1 )
                 	__GETB2MN _Address,1
00062d 30a2      	CPI  R26,LOW(0x2)
00062e f431      	BRNE _0x103
                 ; 0000 0424                         Address[0] = 1;
00062f e0e1      	LDI  R30,LOW(1)
000630 940e 0a49 	CALL SUBOPT_0x1B
                 ; 0000 0425                         Address[1] = 0;
                 ; 0000 0426                         Address[2] = 0;
000632 e0e0      	LDI  R30,LOW(0)
                +
000633 93e0 0262+STS _Address + ( 2 ) , R30
                 	__PUTB1MN _Address,2
                 ; 0000 0427                         }
                 ; 0000 0428                         if(Address[1]==3){
                 _0x103:
                +
000635 91a0 0261+LDS R26 , _Address + ( 1 )
                 	__GETB2MN _Address,1
000637 30a3      	CPI  R26,LOW(0x3)
000638 f431      	BRNE _0x104
                 ; 0000 0429                         Address[0] = 2;
000639 e0e2      	LDI  R30,LOW(2)
00063a 940e 0a49 	CALL SUBOPT_0x1B
                 ; 0000 042A                         Address[1] = 0;
                 ; 0000 042B                         Address[2] = 0;
00063c e0e0      	LDI  R30,LOW(0)
                +
00063d 93e0 0262+STS _Address + ( 2 ) , R30
                 	__PUTB1MN _Address,2
                 ; 0000 042C                         }
                 ; 0000 042D                     }
                 _0x104:
                 ; 0000 042E                 }
                 _0x100:
                 ; 0000 042F                 else{
00063f c033      	RJMP _0x105
                 _0xFA:
                 ; 0000 0430                     if(Address[1]==1){
                +
000640 91a0 0261+LDS R26 , _Address + ( 1 )
                 	__GETB2MN _Address,1
000642 30a1      	CPI  R26,LOW(0x1)
000643 f4b1      	BRNE _0x106
                 ; 0000 0431                         if(BUTTON[0]==1){
000644 91a0 027f 	LDS  R26,_BUTTON_S0000011001
000646 30a1      	CPI  R26,LOW(0x1)
000647 f439      	BRNE _0x107
                 ; 0000 0432                             if(Address[1]>0){
                +
000648 91a0 0261+LDS R26 , _Address + ( 1 )
                 	__GETB2MN _Address,1
00064a 30a1      	CPI  R26,LOW(0x1)
00064b f014      	BRLT _0x108
                 ; 0000 0433                             Address[1]--;
00064c 940e 0a3d 	CALL SUBOPT_0x19
                 ; 0000 0434                             }
                 ; 0000 0435                         }
                 _0x108:
                 ; 0000 0436                         else if(BUTTON[1]==1){
00064e c00a      	RJMP _0x109
                 _0x107:
                +
00064f 91a0 0280+LDS R26 , _BUTTON_S0000011001 + ( 1 )
                 	__GETB2MN _BUTTON_S0000011001,1
000651 30a1      	CPI  R26,LOW(0x1)
000652 f431      	BRNE _0x10A
                 ; 0000 0437                             if(Address[1]<4){
                +
000653 91a0 0261+LDS R26 , _Address + ( 1 )
                 	__GETB2MN _Address,1
000655 30a4      	CPI  R26,LOW(0x4)
000656 f414      	BRGE _0x10B
                 ; 0000 0438                             Address[1]++;
000657 940e 0a43 	CALL SUBOPT_0x1A
                 ; 0000 0439                             }
                 ; 0000 043A                         }
                 _0x10B:
                 ; 0000 043B                     }
                 _0x10A:
                 _0x109:
                 ; 0000 043C                     else if(Address[1]==2){
000659 c019      	RJMP _0x10C
                 _0x106:
                +
00065a 91a0 0261+LDS R26 , _Address + ( 1 )
                 	__GETB2MN _Address,1
00065c 30a2      	CPI  R26,LOW(0x2)
00065d f4a9      	BRNE _0x10D
                 ; 0000 043D                         if(BUTTON[0]==1){
00065e 91a0 027f 	LDS  R26,_BUTTON_S0000011001
000660 30a1      	CPI  R26,LOW(0x1)
000661 f439      	BRNE _0x10E
                 ; 0000 043E                             if(Address[1]>0){
                +
000662 91a0 0261+LDS R26 , _Address + ( 1 )
                 	__GETB2MN _Address,1
000664 30a1      	CPI  R26,LOW(0x1)
000665 f014      	BRLT _0x10F
                 ; 0000 043F                             Address[1]--;
000666 940e 0a3d 	CALL SUBOPT_0x19
                 ; 0000 0440                             }
                 ; 0000 0441                         }
                 _0x10F:
                 ; 0000 0442                         else if(BUTTON[1]==1){
000668 c00a      	RJMP _0x110
                 _0x10E:
                +
000669 91a0 0280+LDS R26 , _BUTTON_S0000011001 + ( 1 )
                 	__GETB2MN _BUTTON_S0000011001,1
00066b 30a1      	CPI  R26,LOW(0x1)
00066c f431      	BRNE _0x111
                 ; 0000 0443                             if(Address[1]<8){
                +
00066d 91a0 0261+LDS R26 , _Address + ( 1 )
                 	__GETB2MN _Address,1
00066f 30a8      	CPI  R26,LOW(0x8)
000670 f414      	BRGE _0x112
                 ; 0000 0444                             Address[1]++;
000671 940e 0a43 	CALL SUBOPT_0x1A
                 ; 0000 0445                             }
                 ; 0000 0446                         }
                 _0x112:
                 ; 0000 0447                     }
                 _0x111:
                 _0x110:
                 ; 0000 0448 
                 ; 0000 0449                 }
                 _0x10D:
                 _0x10C:
                 _0x105:
                 ; 0000 044A             }
                 ; 0000 044B 
                 ; 0000 044C             // Skambejimai
                 ; 0000 044D             else if(Address[0]==1){
000673 c076      	RJMP _0x113
                 _0xD8:
000674 91a0 0260 	LDS  R26,_Address
000676 30a1      	CPI  R26,LOW(0x1)
000677 f011      	BREQ PC+3
000678 940c 06ea 	JMP _0x114
                 ; 0000 044E                 if(RefreshLcd==1){
00067a e0e1      	LDI  R30,LOW(1)
00067b 15e4      	CP   R30,R4
00067c f599      	BRNE _0x115
                 ; 0000 044F                 lcd_putsf("1.VELYKU LAIKAS");
                +
00067d e1ec     +LDI R30 , LOW ( 2 * _0x0 + ( 200 ) )
00067e e0f1     +LDI R31 , HIGH ( 2 * _0x0 + ( 200 ) )
                 	__POINTW1FN _0x0,200
00067f 940e 0a30 	CALL SUBOPT_0x16
                 ; 0000 0450                     if(Address[1]==0){
                +
000681 91e0 0261+LDS R30 , _Address + ( 1 )
                 	__GETB1MN _Address,1
000683 30e0      	CPI  R30,0
000684 f419      	BRNE _0x116
                 ; 0000 0451                     lcd_putsf("<");
                +
000685 ece7     +LDI R30 , LOW ( 2 * _0x0 + ( 115 ) )
000686 e0f0     +LDI R31 , HIGH ( 2 * _0x0 + ( 115 ) )
                 	__POINTW1FN _0x0,115
000687 c002      	RJMP _0x16D
                 ; 0000 0452                     }
                 ; 0000 0453                     else{
                 _0x116:
                 ; 0000 0454                     lcd_putsf(" ");
                +
000688 ecea     +LDI R30 , LOW ( 2 * _0x0 + ( 118 ) )
000689 e0f0     +LDI R31 , HIGH ( 2 * _0x0 + ( 118 ) )
                 	__POINTW1FN _0x0,118
                 _0x16D:
00068a 93fa      	ST   -Y,R31
00068b 93ea      	ST   -Y,R30
00068c 940e 0928 	CALL _lcd_putsf
                 ; 0000 0455                     }
                 ; 0000 0456 
                 ; 0000 0457                 lcd_putsf("2.KALEDU LAIKAS");
                +
00068e e2ec     +LDI R30 , LOW ( 2 * _0x0 + ( 216 ) )
00068f e0f1     +LDI R31 , HIGH ( 2 * _0x0 + ( 216 ) )
                 	__POINTW1FN _0x0,216
000690 940e 0a30 	CALL SUBOPT_0x16
                 ; 0000 0458                     if(Address[1]==1){
                +
000692 91a0 0261+LDS R26 , _Address + ( 1 )
                 	__GETB2MN _Address,1
000694 30a1      	CPI  R26,LOW(0x1)
000695 f419      	BRNE _0x118
                 ; 0000 0459                     lcd_putsf("<");
                +
000696 ece7     +LDI R30 , LOW ( 2 * _0x0 + ( 115 ) )
000697 e0f0     +LDI R31 , HIGH ( 2 * _0x0 + ( 115 ) )
                 	__POINTW1FN _0x0,115
000698 c002      	RJMP _0x16E
                 ; 0000 045A                     }
                 ; 0000 045B                     else{
                 _0x118:
                 ; 0000 045C                     lcd_putsf(" ");
                +
000699 ecea     +LDI R30 , LOW ( 2 * _0x0 + ( 118 ) )
00069a e0f0     +LDI R31 , HIGH ( 2 * _0x0 + ( 118 ) )
                 	__POINTW1FN _0x0,118
                 _0x16E:
00069b 93fa      	ST   -Y,R31
00069c 93ea      	ST   -Y,R30
00069d 940e 0928 	CALL _lcd_putsf
                 ; 0000 045D                     }
                 ; 0000 045E 
                 ; 0000 045F                 lcd_putsf("3.EILINIS LAIK.");
                +
00069f e3ec     +LDI R30 , LOW ( 2 * _0x0 + ( 232 ) )
0006a0 e0f1     +LDI R31 , HIGH ( 2 * _0x0 + ( 232 ) )
                 	__POINTW1FN _0x0,232
0006a1 940e 0a30 	CALL SUBOPT_0x16
                 ; 0000 0460                     if(Address[1]==2){
                +
0006a3 91a0 0261+LDS R26 , _Address + ( 1 )
                 	__GETB2MN _Address,1
0006a5 30a2      	CPI  R26,LOW(0x2)
0006a6 f419      	BRNE _0x11A
                 ; 0000 0461                     lcd_putsf("<");
                +
0006a7 ece7     +LDI R30 , LOW ( 2 * _0x0 + ( 115 ) )
0006a8 e0f0     +LDI R31 , HIGH ( 2 * _0x0 + ( 115 ) )
                 	__POINTW1FN _0x0,115
0006a9 c002      	RJMP _0x16F
                 ; 0000 0462                     }
                 ; 0000 0463                     else{
                 _0x11A:
                 ; 0000 0464                     lcd_putsf(" ");
                +
0006aa ecea     +LDI R30 , LOW ( 2 * _0x0 + ( 118 ) )
0006ab e0f0     +LDI R31 , HIGH ( 2 * _0x0 + ( 118 ) )
                 	__POINTW1FN _0x0,118
                 _0x16F:
0006ac 93fa      	ST   -Y,R31
0006ad 93ea      	ST   -Y,R30
0006ae 940e 0928 	CALL _lcd_putsf
                 ; 0000 0465                     }
                 ; 0000 0466                 }
                 ; 0000 0467 
                 ; 0000 0468                 if(Address[2]==0){
                 _0x115:
                +
0006b0 91e0 0262+LDS R30 , _Address + ( 2 )
                 	__GETB1MN _Address,2
0006b2 30e0      	CPI  R30,0
0006b3 f5b1      	BRNE _0x11C
                 ; 0000 0469                     if(BUTTON[0]==1){
0006b4 91a0 027f 	LDS  R26,_BUTTON_S0000011001
0006b6 30a1      	CPI  R26,LOW(0x1)
0006b7 f439      	BRNE _0x11D
                 ; 0000 046A                         if(Address[1]>0){
                +
0006b8 91a0 0261+LDS R26 , _Address + ( 1 )
                 	__GETB2MN _Address,1
0006ba 30a1      	CPI  R26,LOW(0x1)
0006bb f014      	BRLT _0x11E
                 ; 0000 046B                         Address[1]--;
0006bc 940e 0a3d 	CALL SUBOPT_0x19
                 ; 0000 046C                         }
                 ; 0000 046D                     }
                 _0x11E:
                 ; 0000 046E                     else if(BUTTON[1]==1){
0006be c00a      	RJMP _0x11F
                 _0x11D:
                +
0006bf 91a0 0280+LDS R26 , _BUTTON_S0000011001 + ( 1 )
                 	__GETB2MN _BUTTON_S0000011001,1
0006c1 30a1      	CPI  R26,LOW(0x1)
0006c2 f431      	BRNE _0x120
                 ; 0000 046F                         if(Address[1]<2){
                +
0006c3 91a0 0261+LDS R26 , _Address + ( 1 )
                 	__GETB2MN _Address,1
0006c5 30a2      	CPI  R26,LOW(0x2)
0006c6 f414      	BRGE _0x121
                 ; 0000 0470                         Address[1]++;
0006c7 940e 0a43 	CALL SUBOPT_0x1A
                 ; 0000 0471                         }
                 ; 0000 0472                     }
                 _0x121:
                 ; 0000 0473 
                 ; 0000 0474                     if(BUTTON[4]==1){
                 _0x120:
                 _0x11F:
                +
0006c9 91a0 0283+LDS R26 , _BUTTON_S0000011001 + ( 4 )
                 	__GETB2MN _BUTTON_S0000011001,4
0006cb 30a1      	CPI  R26,LOW(0x1)
0006cc f4e9      	BRNE _0x122
                 ; 0000 0475                         if(Address[1]==0){
                +
0006cd 91e0 0261+LDS R30 , _Address + ( 1 )
                 	__GETB1MN _Address,1
0006cf 30e0      	CPI  R30,0
0006d0 f429      	BRNE _0x123
                 ; 0000 0476                         Address[0] = 1;
0006d1 e0e1      	LDI  R30,LOW(1)
0006d2 93e0 0260 	STS  _Address,R30
                 ; 0000 0477                         Address[1] = 1;
0006d4 940e 0a4f 	CALL SUBOPT_0x1C
                 ; 0000 0478                         Address[2] = 0;
                 ; 0000 0479                         }
                 ; 0000 047A                         if(Address[1]==1){
                 _0x123:
                +
0006d6 91a0 0261+LDS R26 , _Address + ( 1 )
                 	__GETB2MN _Address,1
0006d8 30a1      	CPI  R26,LOW(0x1)
0006d9 f431      	BRNE _0x124
                 ; 0000 047B                         Address[0] = 1;
0006da e0e1      	LDI  R30,LOW(1)
0006db 93e0 0260 	STS  _Address,R30
                 ; 0000 047C                         Address[1] = 2;
0006dd e0e2      	LDI  R30,LOW(2)
0006de 940e 0a4f 	CALL SUBOPT_0x1C
                 ; 0000 047D                         Address[2] = 0;
                 ; 0000 047E                         }
                 ; 0000 047F                         if(Address[1]==2){
                 _0x124:
                +
0006e0 91a0 0261+LDS R26 , _Address + ( 1 )
                 	__GETB2MN _Address,1
0006e2 30a2      	CPI  R26,LOW(0x2)
0006e3 f431      	BRNE _0x125
                 ; 0000 0480                         Address[0] = 1;
0006e4 e0e1      	LDI  R30,LOW(1)
0006e5 93e0 0260 	STS  _Address,R30
                 ; 0000 0481                         Address[1] = 3;
0006e7 e0e3      	LDI  R30,LOW(3)
0006e8 940e 0a4f 	CALL SUBOPT_0x1C
                 ; 0000 0482                         Address[2] = 0;
                 ; 0000 0483                         }
                 ; 0000 0484                     }
                 _0x125:
                 ; 0000 0485                 }
                 _0x122:
                 ; 0000 0486             }
                 _0x11C:
                 ; 0000 0487         }
                 _0x114:
                 _0x113:
                 ; 0000 0488         else{
0006ea c19c      	RJMP _0x126
                 _0xD7:
                 ; 0000 0489         /////////////////////////////////////////////////////////////////////
                 ; 0000 048A             if(RefreshLcd==1){
0006eb e0e1      	LDI  R30,LOW(1)
0006ec 15e4      	CP   R30,R4
0006ed f011      	BREQ PC+3
0006ee 940c 0753 	JMP _0x127
                 ; 0000 048B             unsigned int i;
                 ; 0000 048C             lcd_putsf("KODAS: ");
0006f0 9722      	SBIW R28,2
                 ;	i -> Y+0
                +
0006f1 e4ec     +LDI R30 , LOW ( 2 * _0x0 + ( 248 ) )
0006f2 e0f1     +LDI R31 , HIGH ( 2 * _0x0 + ( 248 ) )
                 	__POINTW1FN _0x0,248
0006f3 940e 0a30 	CALL SUBOPT_0x16
                 ; 0000 048D             i = CODE_EnteringCode;
0006f5 940e 0a55 	CALL SUBOPT_0x1D
0006f7 83e8      	ST   Y,R30
0006f8 83f9      	STD  Y+1,R31
                 ; 0000 048E                 if(CODE_ExecutingDigit==0){
0006f9 91e0 0277 	LDS  R30,_CODE_ExecutingDigit_G000
0006fb 30e0      	CPI  R30,0
0006fc f429      	BRNE _0x128
                 ; 0000 048F                 lcd_putchar( NumToIndex( i/1000) );
0006fd 940e 0a5a 	CALL SUBOPT_0x1E
0006ff 93ea      	ST   -Y,R30
000700 da09      	RCALL _NumToIndex
000701 c001      	RJMP _0x170
                 ; 0000 0490                 }
                 ; 0000 0491                 else{
                 _0x128:
                 ; 0000 0492                 lcd_putchar('*');
000702 e2ea      	LDI  R30,LOW(42)
                 _0x170:
000703 93ea      	ST   -Y,R30
000704 940e 0901 	CALL _lcd_putchar
                 ; 0000 0493                 }
                 ; 0000 0494             i = i - (i/1000)*1000;
000706 940e 0a5a 	CALL SUBOPT_0x1E
000708 eea8      	LDI  R26,LOW(1000)
000709 e0b3      	LDI  R27,HIGH(1000)
00070a 940e 0a61 	CALL SUBOPT_0x1F
                 ; 0000 0495                 if(CODE_ExecutingDigit==1){
00070c 30a1      	CPI  R26,LOW(0x1)
00070d f429      	BRNE _0x12A
                 ; 0000 0496                 lcd_putchar( NumToIndex( i/100) );
00070e 940e 0a6c 	CALL SUBOPT_0x20
000710 93ea      	ST   -Y,R30
000711 d9f8      	RCALL _NumToIndex
000712 c001      	RJMP _0x171
                 ; 0000 0497                 }
                 ; 0000 0498                 else{
                 _0x12A:
                 ; 0000 0499                 lcd_putchar('*');
000713 e2ea      	LDI  R30,LOW(42)
                 _0x171:
000714 93ea      	ST   -Y,R30
000715 940e 0901 	CALL _lcd_putchar
                 ; 0000 049A                 }
                 ; 0000 049B             i = i - (i/100)*100;
000717 940e 0a6c 	CALL SUBOPT_0x20
000719 e6a4      	LDI  R26,LOW(100)
00071a e0b0      	LDI  R27,HIGH(100)
00071b 940e 0a61 	CALL SUBOPT_0x1F
                 ; 0000 049C                 if(CODE_ExecutingDigit==2){
00071d 30a2      	CPI  R26,LOW(0x2)
00071e f429      	BRNE _0x12C
                 ; 0000 049D                 lcd_putchar( NumToIndex( i/10) );
00071f 940e 0a73 	CALL SUBOPT_0x21
000721 93ea      	ST   -Y,R30
000722 d9e7      	RCALL _NumToIndex
000723 c001      	RJMP _0x172
                 ; 0000 049E                 }
                 ; 0000 049F                 else{
                 _0x12C:
                 ; 0000 04A0                 lcd_putchar('*');
000724 e2ea      	LDI  R30,LOW(42)
                 _0x172:
000725 93ea      	ST   -Y,R30
000726 940e 0901 	CALL _lcd_putchar
                 ; 0000 04A1                 }
                 ; 0000 04A2             i = i - (i/10)*10;
000728 940e 0a73 	CALL SUBOPT_0x21
00072a e0aa      	LDI  R26,LOW(10)
00072b e0b0      	LDI  R27,HIGH(10)
00072c 940e 0a61 	CALL SUBOPT_0x1F
                 ; 0000 04A3                 if(CODE_ExecutingDigit==3){
00072e 30a3      	CPI  R26,LOW(0x3)
00072f f421      	BRNE _0x12E
                 ; 0000 04A4                 lcd_putchar( NumToIndex(i) );
000730 81e8      	LD   R30,Y
000731 93ea      	ST   -Y,R30
000732 d9d7      	RCALL _NumToIndex
000733 c001      	RJMP _0x173
                 ; 0000 04A5                 }
                 ; 0000 04A6                 else{
                 _0x12E:
                 ; 0000 04A7                 lcd_putchar('*');
000734 e2ea      	LDI  R30,LOW(42)
                 _0x173:
000735 93ea      	ST   -Y,R30
000736 940e 0901 	CALL _lcd_putchar
                 ; 0000 04A8                 }
                 ; 0000 04A9 
                 ; 0000 04AA             lcd_putsf("   ");
000738 940e 0a2a 	CALL SUBOPT_0x15
                 ; 0000 04AB 
                 ; 0000 04AC             i = CODE_TimeLeft;
00073a 91e0 0274 	LDS  R30,_CODE_TimeLeft_G000
00073c e0f0      	LDI  R31,0
00073d 83e8      	ST   Y,R30
00073e 83f9      	STD  Y+1,R31
                 ; 0000 04AD             lcd_putchar( NumToIndex( i/10) );
00073f 940e 0a73 	CALL SUBOPT_0x21
000741 940e 0a7a 	CALL SUBOPT_0x22
                 ; 0000 04AE             i = i - (i/10)*10;
000743 940e 0a73 	CALL SUBOPT_0x21
000745 e0aa      	LDI  R26,LOW(10)
000746 e0b0      	LDI  R27,HIGH(10)
000747 940e 0af8 	CALL __MULW12U
000749 81a8      	LD   R26,Y
00074a 81b9      	LDD  R27,Y+1
00074b 1bae      	SUB  R26,R30
00074c 0bbf      	SBC  R27,R31
00074d 83a8      	ST   Y,R26
00074e 83b9      	STD  Y+1,R27
                 ; 0000 04AF             lcd_putchar( NumToIndex(i) );
00074f 81e8      	LD   R30,Y
000750 940e 0a7a 	CALL SUBOPT_0x22
                 ; 0000 04B0             }
000752 9622      	ADIW R28,2
                 ; 0000 04B1 
                 ; 0000 04B2         ///// 1 Kodo skaicius /////////
                 ; 0000 04B3             if(CODE_ExecutingDigit==0){
                 _0x127:
000753 91e0 0277 	LDS  R30,_CODE_ExecutingDigit_G000
000755 30e0      	CPI  R30,0
000756 f5d1      	BRNE _0x130
                 ; 0000 04B4                 if(RefreshLcd==1){
000757 e0e1      	LDI  R30,LOW(1)
000758 15e4      	CP   R30,R4
000759 f461      	BRNE _0x131
                 ; 0000 04B5                 lcd_buttons(0,1,1,1,1,0,0,0,0);
00075a 940e 0a80 	CALL SUBOPT_0x23
00075c 93ea      	ST   -Y,R30
00075d e0e1      	LDI  R30,LOW(1)
00075e 940e 0a34 	CALL SUBOPT_0x17
000760 940e 0a86 	CALL SUBOPT_0x24
                 ; 0000 04B6                 lcd_cursor(7,0);
000762 e0e7      	LDI  R30,LOW(7)
000763 93ea      	ST   -Y,R30
000764 940e 0a39 	CALL SUBOPT_0x18
                 ; 0000 04B7                 }
                 ; 0000 04B8 
                 ; 0000 04B9             // pakeisti ivedama skaitmeni
                 ; 0000 04BA                 if(BUTTON[1]==1){
                 _0x131:
                +
000766 91a0 0280+LDS R26 , _BUTTON_S0000011001 + ( 1 )
                 	__GETB2MN _BUTTON_S0000011001,1
000768 30a1      	CPI  R26,LOW(0x1)
000769 f429      	BRNE _0x132
                 ; 0000 04BB                 CODE_ExecutingDigit++;
00076a 91e0 0277 	LDS  R30,_CODE_ExecutingDigit_G000
00076c 5fef      	SUBI R30,-LOW(1)
00076d 93e0 0277 	STS  _CODE_ExecutingDigit_G000,R30
                 ; 0000 04BC                 }
                 ; 0000 04BD 
                 ; 0000 04BE             // 1 kodo skaitmens keitimas
                 ; 0000 04BF                 if(BUTTON[2]==1){
                 _0x132:
                +
00076f 91a0 0281+LDS R26 , _BUTTON_S0000011001 + ( 2 )
                 	__GETB2MN _BUTTON_S0000011001,2
000771 30a1      	CPI  R26,LOW(0x1)
000772 f469      	BRNE _0x133
                 ; 0000 04C0                     if(CODE_EnteringCode<9000){
000773 940e 0a8b 	CALL SUBOPT_0x25
000775 32a8      	CPI  R26,LOW(0x2328)
000776 e2e3      	LDI  R30,HIGH(0x2328)
000777 07be      	CPC  R27,R30
000778 f430      	BRSH _0x134
                 ; 0000 04C1                     CODE_EnteringCode = CODE_EnteringCode + 1000;
000779 940e 0a55 	CALL SUBOPT_0x1D
00077b 51e8      	SUBI R30,LOW(-1000)
00077c 4ffc      	SBCI R31,HIGH(-1000)
00077d 940e 0a90 	CALL SUBOPT_0x26
                 ; 0000 04C2                     }
                 ; 0000 04C3                 }
                 _0x134:
                 ; 0000 04C4                 else if(BUTTON[3]==1){
00077f c010      	RJMP _0x135
                 _0x133:
                +
000780 91a0 0282+LDS R26 , _BUTTON_S0000011001 + ( 3 )
                 	__GETB2MN _BUTTON_S0000011001,3
000782 30a1      	CPI  R26,LOW(0x1)
000783 f461      	BRNE _0x136
                 ; 0000 04C5                     if(CODE_EnteringCode>=1000){
000784 940e 0a8b 	CALL SUBOPT_0x25
000786 3ea8      	CPI  R26,LOW(0x3E8)
000787 e0e3      	LDI  R30,HIGH(0x3E8)
000788 07be      	CPC  R27,R30
000789 f030      	BRLO _0x137
                 ; 0000 04C6                     CODE_EnteringCode = CODE_EnteringCode - 1000;
00078a 940e 0a55 	CALL SUBOPT_0x1D
00078c 5ee8      	SUBI R30,LOW(1000)
00078d 40f3      	SBCI R31,HIGH(1000)
00078e 940e 0a90 	CALL SUBOPT_0x26
                 ; 0000 04C7                     }
                 ; 0000 04C8                 }
                 _0x137:
                 ; 0000 04C9             }
                 _0x136:
                 _0x135:
                 ; 0000 04CA         ///////////////////////////////
                 ; 0000 04CB 
                 ; 0000 04CC         ///// 2 Kodo skaicius /////////
                 ; 0000 04CD             else if(CODE_ExecutingDigit==1){
000790 c0b9      	RJMP _0x138
                 _0x130:
000791 91a0 0277 	LDS  R26,_CODE_ExecutingDigit_G000
000793 30a1      	CPI  R26,LOW(0x1)
000794 f5f1      	BRNE _0x139
                 ; 0000 04CE                 if(RefreshLcd==1){
000795 e0e1      	LDI  R30,LOW(1)
000796 15e4      	CP   R30,R4
000797 f441      	BRNE _0x13A
                 ; 0000 04CF                 lcd_buttons(1,1,1,1,1,0,0,0,0);
000798 940e 0a95 	CALL SUBOPT_0x27
00079a 940e 0a86 	CALL SUBOPT_0x24
                 ; 0000 04D0                 lcd_cursor(8,0);
00079c e0e8      	LDI  R30,LOW(8)
00079d 93ea      	ST   -Y,R30
00079e 940e 0a39 	CALL SUBOPT_0x18
                 ; 0000 04D1                 }
                 ; 0000 04D2 
                 ; 0000 04D3                 if(BUTTON[0]==1){
                 _0x13A:
0007a0 91a0 027f 	LDS  R26,_BUTTON_S0000011001
0007a2 30a1      	CPI  R26,LOW(0x1)
0007a3 f421      	BRNE _0x13B
                 ; 0000 04D4                 CODE_ExecutingDigit--;
0007a4 91e0 0277 	LDS  R30,_CODE_ExecutingDigit_G000
0007a6 50e1      	SUBI R30,LOW(1)
0007a7 c007      	RJMP _0x174
                 ; 0000 04D5                 }
                 ; 0000 04D6                 else if(BUTTON[1]==1){
                 _0x13B:
                +
0007a8 91a0 0280+LDS R26 , _BUTTON_S0000011001 + ( 1 )
                 	__GETB2MN _BUTTON_S0000011001,1
0007aa 30a1      	CPI  R26,LOW(0x1)
0007ab f429      	BRNE _0x13D
                 ; 0000 04D7                 CODE_ExecutingDigit++;
0007ac 91e0 0277 	LDS  R30,_CODE_ExecutingDigit_G000
0007ae 5fef      	SUBI R30,-LOW(1)
                 _0x174:
0007af 93e0 0277 	STS  _CODE_ExecutingDigit_G000,R30
                 ; 0000 04D8                 }
                 ; 0000 04D9 
                 ; 0000 04DA             // 2 kodo skaitmens keitimas
                 ; 0000 04DB                 if(BUTTON[2]==1){
                 _0x13D:
                +
0007b1 91a0 0281+LDS R26 , _BUTTON_S0000011001 + ( 2 )
                 	__GETB2MN _BUTTON_S0000011001,2
0007b3 30a1      	CPI  R26,LOW(0x1)
0007b4 f469      	BRNE _0x13E
                 ; 0000 04DC                     if(CODE_EnteringCode<9900){
0007b5 940e 0a8b 	CALL SUBOPT_0x25
0007b7 3aac      	CPI  R26,LOW(0x26AC)
0007b8 e2e6      	LDI  R30,HIGH(0x26AC)
0007b9 07be      	CPC  R27,R30
0007ba f430      	BRSH _0x13F
                 ; 0000 04DD                     CODE_EnteringCode = CODE_EnteringCode + 100;
0007bb 940e 0a55 	CALL SUBOPT_0x1D
0007bd 59ec      	SUBI R30,LOW(-100)
0007be 4fff      	SBCI R31,HIGH(-100)
0007bf 940e 0a90 	CALL SUBOPT_0x26
                 ; 0000 04DE                     }
                 ; 0000 04DF                 }
                 _0x13F:
                 ; 0000 04E0                 else if(BUTTON[3]==1){
0007c1 c010      	RJMP _0x140
                 _0x13E:
                +
0007c2 91a0 0282+LDS R26 , _BUTTON_S0000011001 + ( 3 )
                 	__GETB2MN _BUTTON_S0000011001,3
0007c4 30a1      	CPI  R26,LOW(0x1)
0007c5 f461      	BRNE _0x141
                 ; 0000 04E1                     if(CODE_EnteringCode>=100){
0007c6 940e 0a8b 	CALL SUBOPT_0x25
0007c8 36a4      	CPI  R26,LOW(0x64)
0007c9 e0e0      	LDI  R30,HIGH(0x64)
0007ca 07be      	CPC  R27,R30
0007cb f030      	BRLO _0x142
                 ; 0000 04E2                     CODE_EnteringCode = CODE_EnteringCode - 100;
0007cc 940e 0a55 	CALL SUBOPT_0x1D
0007ce 56e4      	SUBI R30,LOW(100)
0007cf 40f0      	SBCI R31,HIGH(100)
0007d0 940e 0a90 	CALL SUBOPT_0x26
                 ; 0000 04E3                     }
                 ; 0000 04E4                 }
                 _0x142:
                 ; 0000 04E5             }
                 _0x141:
                 _0x140:
                 ; 0000 04E6         ///////////////////////////////
                 ; 0000 04E7 
                 ; 0000 04E8         ///// 3 Kodo skaicius /////////
                 ; 0000 04E9             else if(CODE_ExecutingDigit==2){
0007d2 c077      	RJMP _0x143
                 _0x139:
0007d3 91a0 0277 	LDS  R26,_CODE_ExecutingDigit_G000
0007d5 30a2      	CPI  R26,LOW(0x2)
0007d6 f5d9      	BRNE _0x144
                 ; 0000 04EA                 if(RefreshLcd==1){
0007d7 e0e1      	LDI  R30,LOW(1)
0007d8 15e4      	CP   R30,R4
0007d9 f441      	BRNE _0x145
                 ; 0000 04EB                 lcd_buttons(1,1,1,1,1,0,0,0,0);
0007da 940e 0a95 	CALL SUBOPT_0x27
0007dc 940e 0a86 	CALL SUBOPT_0x24
                 ; 0000 04EC                 lcd_cursor(9,0);
0007de e0e9      	LDI  R30,LOW(9)
0007df 93ea      	ST   -Y,R30
0007e0 940e 0a39 	CALL SUBOPT_0x18
                 ; 0000 04ED                 }
                 ; 0000 04EE 
                 ; 0000 04EF                 if(BUTTON[0]==1){
                 _0x145:
0007e2 91a0 027f 	LDS  R26,_BUTTON_S0000011001
0007e4 30a1      	CPI  R26,LOW(0x1)
0007e5 f429      	BRNE _0x146
                 ; 0000 04F0                 CODE_ExecutingDigit--;
0007e6 91e0 0277 	LDS  R30,_CODE_ExecutingDigit_G000
0007e8 50e1      	SUBI R30,LOW(1)
0007e9 93e0 0277 	STS  _CODE_ExecutingDigit_G000,R30
                 ; 0000 04F1                 }
                 ; 0000 04F2                 if(BUTTON[1]==1){
                 _0x146:
                +
0007eb 91a0 0280+LDS R26 , _BUTTON_S0000011001 + ( 1 )
                 	__GETB2MN _BUTTON_S0000011001,1
0007ed 30a1      	CPI  R26,LOW(0x1)
0007ee f429      	BRNE _0x147
                 ; 0000 04F3                 CODE_ExecutingDigit++;
0007ef 91e0 0277 	LDS  R30,_CODE_ExecutingDigit_G000
0007f1 5fef      	SUBI R30,-LOW(1)
0007f2 93e0 0277 	STS  _CODE_ExecutingDigit_G000,R30
                 ; 0000 04F4                 }
                 ; 0000 04F5 
                 ; 0000 04F6             // 3 kodo skaitmens keitimas
                 ; 0000 04F7                 if(BUTTON[2]==1){
                 _0x147:
                +
0007f4 91a0 0281+LDS R26 , _BUTTON_S0000011001 + ( 2 )
                 	__GETB2MN _BUTTON_S0000011001,2
0007f6 30a1      	CPI  R26,LOW(0x1)
0007f7 f461      	BRNE _0x148
                 ; 0000 04F8                     if(CODE_EnteringCode<9990){
0007f8 940e 0a8b 	CALL SUBOPT_0x25
0007fa 30a6      	CPI  R26,LOW(0x2706)
0007fb e2e7      	LDI  R30,HIGH(0x2706)
0007fc 07be      	CPC  R27,R30
0007fd f428      	BRSH _0x149
                 ; 0000 04F9                     CODE_EnteringCode = CODE_EnteringCode + 10;
0007fe 940e 0a55 	CALL SUBOPT_0x1D
000800 963a      	ADIW R30,10
000801 940e 0a90 	CALL SUBOPT_0x26
                 ; 0000 04FA                     }
                 ; 0000 04FB                 }
                 _0x149:
                 ; 0000 04FC                 else if(BUTTON[3]==1){
000803 c00d      	RJMP _0x14A
                 _0x148:
                +
000804 91a0 0282+LDS R26 , _BUTTON_S0000011001 + ( 3 )
                 	__GETB2MN _BUTTON_S0000011001,3
000806 30a1      	CPI  R26,LOW(0x1)
000807 f449      	BRNE _0x14B
                 ; 0000 04FD                     if(CODE_EnteringCode>=10){
000808 940e 0a8b 	CALL SUBOPT_0x25
00080a 971a      	SBIW R26,10
00080b f028      	BRLO _0x14C
                 ; 0000 04FE                     CODE_EnteringCode = CODE_EnteringCode - 10;
00080c 940e 0a55 	CALL SUBOPT_0x1D
00080e 973a      	SBIW R30,10
00080f 940e 0a90 	CALL SUBOPT_0x26
                 ; 0000 04FF                     }
                 ; 0000 0500                 }
                 _0x14C:
                 ; 0000 0501             }
                 _0x14B:
                 _0x14A:
                 ; 0000 0502         ///////////////////////////////
                 ; 0000 0503 
                 ; 0000 0504         ///// 4 Kodo skaicius /////////
                 ; 0000 0505             else if(CODE_ExecutingDigit==3){
000811 c038      	RJMP _0x14D
                 _0x144:
000812 91a0 0277 	LDS  R26,_CODE_ExecutingDigit_G000
000814 30a3      	CPI  R26,LOW(0x3)
000815 f5a1      	BRNE _0x14E
                 ; 0000 0506                 if(RefreshLcd==1){
000816 e0e1      	LDI  R30,LOW(1)
000817 15e4      	CP   R30,R4
000818 f459      	BRNE _0x14F
                 ; 0000 0507                 lcd_buttons(1,0,1,1,1,0,0,0,0);
000819 93ea      	ST   -Y,R30
00081a 940e 0a80 	CALL SUBOPT_0x23
00081c 940e 0a34 	CALL SUBOPT_0x17
00081e 940e 0a86 	CALL SUBOPT_0x24
                 ; 0000 0508                 lcd_cursor(10,0);
000820 e0ea      	LDI  R30,LOW(10)
000821 93ea      	ST   -Y,R30
000822 940e 0a39 	CALL SUBOPT_0x18
                 ; 0000 0509                 }
                 ; 0000 050A 
                 ; 0000 050B                 if(BUTTON[0]==1){
                 _0x14F:
000824 91a0 027f 	LDS  R26,_BUTTON_S0000011001
000826 30a1      	CPI  R26,LOW(0x1)
000827 f429      	BRNE _0x150
                 ; 0000 050C                 CODE_ExecutingDigit--;
000828 91e0 0277 	LDS  R30,_CODE_ExecutingDigit_G000
00082a 50e1      	SUBI R30,LOW(1)
00082b 93e0 0277 	STS  _CODE_ExecutingDigit_G000,R30
                 ; 0000 050D                 }
                 ; 0000 050E 
                 ; 0000 050F             // 4 kodo skaitmens keitimas
                 ; 0000 0510                 if(BUTTON[2]==1){
                 _0x150:
                +
00082d 91a0 0281+LDS R26 , _BUTTON_S0000011001 + ( 2 )
                 	__GETB2MN _BUTTON_S0000011001,2
00082f 30a1      	CPI  R26,LOW(0x1)
000830 f461      	BRNE _0x151
                 ; 0000 0511                     if(CODE_EnteringCode<9999){
000831 940e 0a8b 	CALL SUBOPT_0x25
000833 30af      	CPI  R26,LOW(0x270F)
000834 e2e7      	LDI  R30,HIGH(0x270F)
000835 07be      	CPC  R27,R30
000836 f428      	BRSH _0x152
                 ; 0000 0512                     CODE_EnteringCode = CODE_EnteringCode + 1;
000837 940e 0a55 	CALL SUBOPT_0x1D
000839 9631      	ADIW R30,1
00083a 940e 0a90 	CALL SUBOPT_0x26
                 ; 0000 0513                     }
                 ; 0000 0514                 }
                 _0x152:
                 ; 0000 0515                 else if(BUTTON[3]==1){
00083c c00d      	RJMP _0x153
                 _0x151:
                +
00083d 91a0 0282+LDS R26 , _BUTTON_S0000011001 + ( 3 )
                 	__GETB2MN _BUTTON_S0000011001,3
00083f 30a1      	CPI  R26,LOW(0x1)
000840 f449      	BRNE _0x154
                 ; 0000 0516                     if(CODE_EnteringCode>=1){
000841 940e 0a8b 	CALL SUBOPT_0x25
000843 9711      	SBIW R26,1
000844 f028      	BRLO _0x155
                 ; 0000 0517                     CODE_EnteringCode = CODE_EnteringCode - 1;
000845 940e 0a55 	CALL SUBOPT_0x1D
000847 9731      	SBIW R30,1
000848 940e 0a90 	CALL SUBOPT_0x26
                 ; 0000 0518                     }
                 ; 0000 0519                 }
                 _0x155:
                 ; 0000 051A             }
                 _0x154:
                 _0x153:
                 ; 0000 051B         ///////////////////////////////
                 ; 0000 051C 
                 ; 0000 051D             if(CODE_TimeLeft==0){
                 _0x14E:
                 _0x14D:
                 _0x143:
                 _0x138:
00084a 91e0 0274 	LDS  R30,_CODE_TimeLeft_G000
00084c 30e0      	CPI  R30,0
00084d f481      	BRNE _0x156
                 ; 0000 051E             Address[0] = CODE_FailedXYZ[0];
00084e 940e 0a9b 	CALL SUBOPT_0x28
                 ; 0000 051F             Address[1] = CODE_FailedXYZ[1];
                 ; 0000 0520             Address[2] = CODE_FailedXYZ[2];
                 ; 0000 0521 
                 ; 0000 0522             CODE_IsEntering = 0;
000850 940e 0aa8 	CALL SUBOPT_0x29
                 ; 0000 0523 
                 ; 0000 0524             CODE_EnteringCode = 0;
                 ; 0000 0525             CODE_ExecutingDigit = 0;
                 ; 0000 0526 
                 ; 0000 0527             CODE_TimeLeft = 0;
                 ; 0000 0528 
                 ; 0000 0529             CODE_SuccessXYZ[0] = 0;
                 ; 0000 052A             CODE_SuccessXYZ[1] = 0;
                 ; 0000 052B             CODE_SuccessXYZ[2] = 0;
                 ; 0000 052C             lcd_clear();
000852 940e 08e9 	CALL _lcd_clear
                 ; 0000 052D             lcd_putsf("    LAIKAS      ");
                +
000854 e5e4     +LDI R30 , LOW ( 2 * _0x0 + ( 256 ) )
000855 e0f1     +LDI R31 , HIGH ( 2 * _0x0 + ( 256 ) )
                 	__POINTW1FN _0x0,256
000856 940e 0a30 	CALL SUBOPT_0x16
                 ; 0000 052E             lcd_putsf("    BAIGESI     ");
                +
000858 e6e5     +LDI R30 , LOW ( 2 * _0x0 + ( 273 ) )
000859 e0f1     +LDI R31 , HIGH ( 2 * _0x0 + ( 273 ) )
                 	__POINTW1FN _0x0,273
00085a 940e 0a30 	CALL SUBOPT_0x16
                 ; 0000 052F             delay_ms(1000);
00085c 940e 0aba 	CALL SUBOPT_0x2A
                 ; 0000 0530             }
                 ; 0000 0531 
                 ; 0000 0532 
                 ; 0000 0533 
                 ; 0000 0534             if(BUTTON[4]==1){
                 _0x156:
                +
00085e 91a0 0283+LDS R26 , _BUTTON_S0000011001 + ( 4 )
                 	__GETB2MN _BUTTON_S0000011001,4
000860 30a1      	CPI  R26,LOW(0x1)
000861 f529      	BRNE _0x157
                 ; 0000 0535                 if(CODE_EnteringCode==WhatIsTheCode()){
000862 d919      	RCALL _WhatIsTheCode
000863 940e 0a8b 	CALL SUBOPT_0x25
000865 17ea      	CP   R30,R26
000866 07fb      	CPC  R31,R27
000867 f489      	BRNE _0x158
                 ; 0000 0536                 Address[0] = CODE_SuccessXYZ[0];
000868 91e0 026e 	LDS  R30,_CODE_SuccessXYZ_G000
00086a 93e0 0260 	STS  _Address,R30
                 ; 0000 0537                 Address[1] = CODE_SuccessXYZ[1];
                +
00086c 91e0 026f+LDS R30 , _CODE_SuccessXYZ_G000 + ( 1 )
                 	__GETB1MN _CODE_SuccessXYZ_G000,1
                +
00086e 93e0 0261+STS _Address + ( 1 ) , R30
                 	__PUTB1MN _Address,1
                 ; 0000 0538                 Address[2] = CODE_SuccessXYZ[2];
                +
000870 91e0 0270+LDS R30 , _CODE_SuccessXYZ_G000 + ( 2 )
                 	__GETB1MN _CODE_SuccessXYZ_G000,2
                +
000872 93e0 0262+STS _Address + ( 2 ) , R30
                 	__PUTB1MN _Address,2
                 ; 0000 0539                 lcd_clear();
000874 940e 0ac0 	CALL SUBOPT_0x2B
                 ; 0000 053A                 lcd_putsf("     KODAS      ");
                 ; 0000 053B                 lcd_putsf("   TEISINGAS    ");
                +
000876 e8e7     +LDI R30 , LOW ( 2 * _0x0 + ( 307 ) )
000877 e0f1     +LDI R31 , HIGH ( 2 * _0x0 + ( 307 ) )
                 	__POINTW1FN _0x0,307
000878 c006      	RJMP _0x175
                 ; 0000 053C                 delay_ms(1000);
                 ; 0000 053D                 }
                 ; 0000 053E                 else{
                 _0x158:
                 ; 0000 053F                 Address[0] = CODE_FailedXYZ[0];
000879 940e 0a9b 	CALL SUBOPT_0x28
                 ; 0000 0540                 Address[1] = CODE_FailedXYZ[1];
                 ; 0000 0541                 Address[2] = CODE_FailedXYZ[2];
                 ; 0000 0542                 lcd_clear();
00087b 940e 0ac0 	CALL SUBOPT_0x2B
                 ; 0000 0543                 lcd_putsf("     KODAS      ");
                 ; 0000 0544                 lcd_putsf("  NETEISINGAS   ");
                +
00087d e9e8     +LDI R30 , LOW ( 2 * _0x0 + ( 324 ) )
00087e e0f1     +LDI R31 , HIGH ( 2 * _0x0 + ( 324 ) )
                 	__POINTW1FN _0x0,324
                 _0x175:
00087f 93fa      	ST   -Y,R31
000880 93ea      	ST   -Y,R30
000881 940e 0928 	CALL _lcd_putsf
                 ; 0000 0545                 delay_ms(1000);
000883 940e 0aba 	CALL SUBOPT_0x2A
                 ; 0000 0546                 }
                 ; 0000 0547             CODE_IsEntering = 0;
000885 940e 0aa8 	CALL SUBOPT_0x29
                 ; 0000 0548 
                 ; 0000 0549             CODE_EnteringCode = 0;
                 ; 0000 054A             CODE_ExecutingDigit = 0;
                 ; 0000 054B 
                 ; 0000 054C             CODE_TimeLeft = 0;
                 ; 0000 054D 
                 ; 0000 054E             CODE_SuccessXYZ[0] = 0;
                 ; 0000 054F             CODE_SuccessXYZ[1] = 0;
                 ; 0000 0550             CODE_SuccessXYZ[2] = 0;
                 ; 0000 0551             }
                 ; 0000 0552 
                 ; 0000 0553 
                 ; 0000 0554         /////////////////////////////////////////////////////////////////////
                 ; 0000 0555         }
                 _0x157:
                 _0x126:
                 ; 0000 0556 
                 ; 0000 0557         if(RefreshLcd==1){
000887 e0e1      	LDI  R30,LOW(1)
000888 15e4      	CP   R30,R4
000889 f409      	BRNE _0x15A
                 ; 0000 0558         RefreshLcd = 0;
00088a 2444      	CLR  R4
                 ; 0000 0559         }
                 ; 0000 055A     //////////////////////////////////////////////////////////////////////////////////
                 ; 0000 055B     //////////////////////////////////////////////////////////////////////////////////
                 ; 0000 055C     //////////////////////////////////////////////////////////////////////////////////
                 ; 0000 055D     Called_1Second = 0;;
                 _0x15A:
00088b e0e0      	LDI  R30,LOW(0)
00088c 93e0 027e 	STS  _Called_1Second_S0000011001,R30
                 ; 0000 055E     delay_ms(1);
00088e e0e1      	LDI  R30,LOW(1)
00088f e0f0      	LDI  R31,HIGH(1)
000890 93fa      	ST   -Y,R31
000891 93ea      	ST   -Y,R30
000892 940e 0ad0 	CALL _delay_ms
                 ; 0000 055F     };
000894 ca87      	RJMP _0x79
                 ; 0000 0560 }
                 _0x15B:
000895 cfff      	RJMP _0x15B
                     .equ __lcd_direction=__lcd_port-1
                     .equ __lcd_pin=__lcd_port-2
                     .equ __lcd_rs=0
                     .equ __lcd_rd=1
                     .equ __lcd_enable=2
                     .equ __lcd_busy_flag=7
                 
                 	.DSEG
                 
                 	.CSEG
                 __lcd_delay_G100:
000896 e0ff          ldi   r31,15
                 __lcd_delay0:
000897 95fa          dec   r31
000898 f7f1          brne  __lcd_delay0
000899 9508      	RET
                 __lcd_ready:
00089a b3a4          in    r26,__lcd_direction
00089b 70af          andi  r26,0xf                 ;set as input
00089c bba4          out   __lcd_direction,r26
00089d 9aa9          sbi   __lcd_port,__lcd_rd     ;RD=1
00089e 98a8          cbi   __lcd_port,__lcd_rs     ;RS=0
                 __lcd_busy:
00089f dff6      	RCALL __lcd_delay_G100
0008a0 9aaa          sbi   __lcd_port,__lcd_enable ;EN=1
0008a1 dff4      	RCALL __lcd_delay_G100
0008a2 b3a3          in    r26,__lcd_pin
0008a3 98aa          cbi   __lcd_port,__lcd_enable ;EN=0
0008a4 dff1      	RCALL __lcd_delay_G100
0008a5 9aaa          sbi   __lcd_port,__lcd_enable ;EN=1
0008a6 dfef      	RCALL __lcd_delay_G100
0008a7 98aa          cbi   __lcd_port,__lcd_enable ;EN=0
0008a8 fda7          sbrc  r26,__lcd_busy_flag
0008a9 cff5          rjmp  __lcd_busy
0008aa 9508      	RET
                 __lcd_write_nibble_G100:
0008ab 7fa0          andi  r26,0xf0
0008ac 2bab          or    r26,r27
0008ad bba5          out   __lcd_port,r26          ;write
0008ae 9aaa          sbi   __lcd_port,__lcd_enable ;EN=1
0008af 940e 0896 	CALL __lcd_delay_G100
0008b1 98aa          cbi   __lcd_port,__lcd_enable ;EN=0
0008b2 940e 0896 	CALL __lcd_delay_G100
0008b4 9508      	RET
                 __lcd_write_data:
0008b5 98a9          cbi  __lcd_port,__lcd_rd 	  ;RD=0
0008b6 b3a4          in    r26,__lcd_direction
0008b7 6fa7          ori   r26,0xf0 | (1<<__lcd_rs) | (1<<__lcd_rd) | (1<<__lcd_enable) ;set as output
0008b8 bba4          out   __lcd_direction,r26
0008b9 b3b5          in    r27,__lcd_port
0008ba 70bf          andi  r27,0xf
0008bb 81a8          ld    r26,y
0008bc dfee      	RCALL __lcd_write_nibble_G100
0008bd 81a8          ld    r26,y
0008be 95a2          swap  r26
0008bf dfeb      	RCALL __lcd_write_nibble_G100
0008c0 9aa9          sbi   __lcd_port,__lcd_rd     ;RD=1
0008c1 940c 0976 	JMP  _0x2020001
                 __lcd_read_nibble_G100:
0008c3 9aaa          sbi   __lcd_port,__lcd_enable ;EN=1
0008c4 940e 0896 	CALL __lcd_delay_G100
0008c6 b3e3          in    r30,__lcd_pin           ;read
0008c7 98aa          cbi   __lcd_port,__lcd_enable ;EN=0
0008c8 940e 0896 	CALL __lcd_delay_G100
0008ca 7fe0          andi  r30,0xf0
0008cb 9508      	RET
                 _lcd_read_byte0_G100:
0008cc 940e 0896 	CALL __lcd_delay_G100
0008ce dff4      	RCALL __lcd_read_nibble_G100
0008cf 2fae          mov   r26,r30
0008d0 dff2      	RCALL __lcd_read_nibble_G100
0008d1 98a9          cbi   __lcd_port,__lcd_rd     ;RD=0
0008d2 95e2          swap  r30
0008d3 2bea          or    r30,r26
0008d4 9508      	RET
                 _lcd_gotoxy:
0008d5 940e 089a 	CALL __lcd_ready
0008d7 81e8      	LD   R30,Y
0008d8 e0f0      	LDI  R31,0
0008d9 56ef      	SUBI R30,LOW(-__base_y_G100)
0008da 4ffd      	SBCI R31,HIGH(-__base_y_G100)
0008db 81e0      	LD   R30,Z
0008dc 81a9      	LDD  R26,Y+1
0008dd 0fea      	ADD  R30,R26
0008de 93ea      	ST   -Y,R30
0008df 940e 08b5 	CALL __lcd_write_data
0008e1 81e9      	LDD  R30,Y+1
0008e2 93e0 0295 	STS  __lcd_x,R30
0008e4 81e8      	LD   R30,Y
0008e5 93e0 0296 	STS  __lcd_y,R30
0008e7 9622      	ADIW R28,2
0008e8 9508      	RET
                 _lcd_clear:
0008e9 940e 089a 	CALL __lcd_ready
0008eb e0e2      	LDI  R30,LOW(2)
0008ec 93ea      	ST   -Y,R30
0008ed 940e 08b5 	CALL __lcd_write_data
0008ef 940e 089a 	CALL __lcd_ready
0008f1 e0ec      	LDI  R30,LOW(12)
0008f2 93ea      	ST   -Y,R30
0008f3 940e 08b5 	CALL __lcd_write_data
0008f5 940e 089a 	CALL __lcd_ready
0008f7 e0e1      	LDI  R30,LOW(1)
0008f8 93ea      	ST   -Y,R30
0008f9 940e 08b5 	CALL __lcd_write_data
0008fb e0e0      	LDI  R30,LOW(0)
0008fc 93e0 0296 	STS  __lcd_y,R30
0008fe 93e0 0295 	STS  __lcd_x,R30
000900 9508      	RET
                 _lcd_putchar:
000901 93ef          push r30
000902 93ff          push r31
000903 81a8          ld   r26,y
000904 9468          set
000905 30aa          cpi  r26,10
000906 f039          breq __lcd_putchar1
000907 94e8          clt
000908 91e0 0297 	LDS  R30,__lcd_maxx
00090a 91a0 0295 	LDS  R26,__lcd_x
00090c 17ae      	CP   R26,R30
00090d f060      	BRLO _0x2000004
                 	__lcd_putchar1:
00090e 91e0 0296 	LDS  R30,__lcd_y
000910 5fef      	SUBI R30,-LOW(1)
000911 93e0 0296 	STS  __lcd_y,R30
000913 e0e0      	LDI  R30,LOW(0)
000914 93ea      	ST   -Y,R30
000915 91e0 0296 	LDS  R30,__lcd_y
000917 93ea      	ST   -Y,R30
000918 dfbc      	RCALL _lcd_gotoxy
000919 f056      	brts __lcd_putchar0
                 _0x2000004:
00091a 91e0 0295 	LDS  R30,__lcd_x
00091c 5fef      	SUBI R30,-LOW(1)
00091d 93e0 0295 	STS  __lcd_x,R30
00091f df7a          rcall __lcd_ready
000920 9aa8          sbi  __lcd_port,__lcd_rs ;RS=1
000921 81a8          ld   r26,y
000922 93aa          st   -y,r26
000923 df91          rcall __lcd_write_data
                 __lcd_putchar0:
000924 91ff          pop  r31
000925 91ef          pop  r30
000926 940c 0976 	JMP  _0x2020001
                 _lcd_putsf:
000928 931a      	ST   -Y,R17
                 _0x2000008:
000929 81e9      	LDD  R30,Y+1
00092a 81fa      	LDD  R31,Y+1+1
00092b 9631      	ADIW R30,1
00092c 83e9      	STD  Y+1,R30
00092d 83fa      	STD  Y+1+1,R31
00092e 9731      	SBIW R30,1
00092f 91e4      	LPM  R30,Z
000930 2f1e      	MOV  R17,R30
000931 30e0      	CPI  R30,0
000932 f019      	BREQ _0x200000A
000933 931a      	ST   -Y,R17
000934 dfcc      	RCALL _lcd_putchar
000935 cff3      	RJMP _0x2000008
                 _0x200000A:
000936 8118      	LDD  R17,Y+0
000937 9623      	ADIW R28,3
000938 9508      	RET
                 __long_delay_G100:
000939 27aa          clr   r26
00093a 27bb          clr   r27
                 __long_delay0:
00093b 9711          sbiw  r26,1         ;2 cycles
00093c f7f1          brne  __long_delay0 ;2 cycles
00093d 9508      	RET
                 __lcd_init_write_G100:
00093e 98a9          cbi  __lcd_port,__lcd_rd 	  ;RD=0
00093f b3a4          in    r26,__lcd_direction
000940 6fa7          ori   r26,0xf7                ;set as output
000941 bba4          out   __lcd_direction,r26
000942 b3b5          in    r27,__lcd_port
000943 70bf          andi  r27,0xf
000944 81a8          ld    r26,y
000945 940e 08ab 	CALL __lcd_write_nibble_G100
000947 9aa9          sbi   __lcd_port,__lcd_rd     ;RD=1
000948 c02d      	RJMP _0x2020001
                 _lcd_init:
000949 98aa          cbi   __lcd_port,__lcd_enable ;EN=0
00094a 98a8          cbi   __lcd_port,__lcd_rs     ;RS=0
00094b 81e8      	LD   R30,Y
00094c 93e0 0297 	STS  __lcd_maxx,R30
00094e 58e0      	SUBI R30,-LOW(128)
                +
00094f 93e0 0293+STS __base_y_G100 + ( 2 ) , R30
                 	__PUTB1MN __base_y_G100,2
000951 81e8      	LD   R30,Y
000952 54e0      	SUBI R30,-LOW(192)
                +
000953 93e0 0294+STS __base_y_G100 + ( 3 ) , R30
                 	__PUTB1MN __base_y_G100,3
000955 d16f      	RCALL SUBOPT_0x2C
000956 d16e      	RCALL SUBOPT_0x2C
000957 d16d      	RCALL SUBOPT_0x2C
000958 dfe0      	RCALL __long_delay_G100
000959 e2e0      	LDI  R30,LOW(32)
00095a 93ea      	ST   -Y,R30
00095b dfe2      	RCALL __lcd_init_write_G100
00095c dfdc      	RCALL __long_delay_G100
00095d e2e8      	LDI  R30,LOW(40)
00095e d16c      	RCALL SUBOPT_0x2D
00095f e0e4      	LDI  R30,LOW(4)
000960 d16a      	RCALL SUBOPT_0x2D
000961 e8e5      	LDI  R30,LOW(133)
000962 d168      	RCALL SUBOPT_0x2D
000963 b3a4          in    r26,__lcd_direction
000964 70af          andi  r26,0xf                 ;set as input
000965 bba4          out   __lcd_direction,r26
000966 9aa9          sbi   __lcd_port,__lcd_rd     ;RD=1
000967 940e 08cc 	CALL _lcd_read_byte0_G100
000969 30e5      	CPI  R30,LOW(0x5)
00096a f011      	BREQ _0x200000B
00096b e0e0      	LDI  R30,LOW(0)
00096c c009      	RJMP _0x2020001
                 _0x200000B:
00096d 940e 089a 	CALL __lcd_ready
00096f e0e6      	LDI  R30,LOW(6)
000970 93ea      	ST   -Y,R30
000971 940e 08b5 	CALL __lcd_write_data
000973 940e 08e9 	CALL _lcd_clear
000975 e0e1      	LDI  R30,LOW(1)
                 _0x2020001:
000976 9621      	ADIW R28,1
000977 9508      	RET
                 
                 	.ESEG
                 _RealTimeYear:
000000           	.BYTE 0x2
                 _RealTimeMonth:
000002           	.BYTE 0x1
                 _RealTimeDay:
000003           	.BYTE 0x1
                 _RealTimeHour:
000004           	.BYTE 0x1
                 _RealTimeMinute:
000005           	.BYTE 0x1
                 
                 	.DSEG
                 _Address:
000260           	.BYTE 0x3
                 _MenuCreated:
000263           	.BYTE 0xA
                 _CODE_IsEntering_G000:
00026d           	.BYTE 0x1
                 _CODE_SuccessXYZ_G000:
00026e           	.BYTE 0x3
                 _CODE_FailedXYZ_G000:
000271           	.BYTE 0x3
                 _CODE_TimeLeft_G000:
000274           	.BYTE 0x1
                 _CODE_EnteringCode_G000:
000275           	.BYTE 0x2
                 _CODE_ExecutingDigit_G000:
000277           	.BYTE 0x1
                 _InteruptTimer_S0000010000:
000278           	.BYTE 0x2
                 _MissTimer_S0000010000:
00027a           	.BYTE 0x2
                 _RefreshTimer_S0000010000:
00027c           	.BYTE 0x2
                 _Called_1Second_S0000011001:
00027e           	.BYTE 0x1
                 _BUTTON_S0000011001:
00027f           	.BYTE 0x5
                 _ButtonFilter_S0000011001:
000284           	.BYTE 0x5
                 _DUAL_BUTTON_S0000011001:
000289           	.BYTE 0x4
                 _DualButtonFilter_S0000011001:
00028d           	.BYTE 0x4
                 __base_y_G100:
000291           	.BYTE 0x4
                 __lcd_x:
000295           	.BYTE 0x1
                 __lcd_y:
000296           	.BYTE 0x1
                 __lcd_maxx:
000297           	.BYTE 0x1
                 
                 	.CSEG
                 ;OPTIMIZER ADDED SUBROUTINE, CALLED 4 TIMES, CODE SIZE REDUCTION:3 WORDS
                 SUBOPT_0x0:
000978 e0a0      	LDI  R26,LOW(_RealTimeYear)
000979 e0b0      	LDI  R27,HIGH(_RealTimeYear)
00097a 940e 0b7b 	CALL __EEPROMRDW
00097c 9508      	RET
                 
                 ;OPTIMIZER ADDED SUBROUTINE, CALLED 5 TIMES, CODE SIZE REDUCTION:5 WORDS
                 SUBOPT_0x1:
00097d e0a2      	LDI  R26,LOW(_RealTimeMonth)
00097e e0b0      	LDI  R27,HIGH(_RealTimeMonth)
00097f 940e 0b7f 	CALL __EEPROMRDB
000981 9508      	RET
                 
                 ;OPTIMIZER ADDED SUBROUTINE, CALLED 2 TIMES, CODE SIZE REDUCTION:1 WORDS
                 SUBOPT_0x2:
000982 e0f0      	LDI  R31,0
000983 fde7      	SBRC R30,7
000984 efff      	SER  R31
000985 01d0      	MOVW R26,R0
000986 940e 0af8 	CALL __MULW12U
000988 9508      	RET
                 
                 ;OPTIMIZER ADDED SUBROUTINE, CALLED 4 TIMES, CODE SIZE REDUCTION:3 WORDS
                 SUBOPT_0x3:
000989 e0a3      	LDI  R26,LOW(_RealTimeDay)
00098a e0b0      	LDI  R27,HIGH(_RealTimeDay)
00098b 940e 0b7f 	CALL __EEPROMRDB
00098d 9508      	RET
                 
                 ;OPTIMIZER ADDED SUBROUTINE, CALLED 4 TIMES, CODE SIZE REDUCTION:3 WORDS
                 SUBOPT_0x4:
                +
00098e 81e9     +LDD R30 , Y + 1
00098f 81fa     +LDD R31 , Y + 1 + 1
000990 816b     +LDD R22 , Y + 1 + 2
000991 817c     +LDD R23 , Y + 1 + 3
                 	__GETD1S 1
000992 9508      	RET
                 
                 ;OPTIMIZER ADDED SUBROUTINE, CALLED 5 TIMES, CODE SIZE REDUCTION:13 WORDS
                 SUBOPT_0x5:
                +
000993 e0aa     +LDI R26 , LOW ( 0xA )
000994 e0b0     +LDI R27 , HIGH ( 0xA )
000995 e080     +LDI R24 , BYTE3 ( 0xA )
000996 e090     +LDI R25 , BYTE4 ( 0xA )
                 	__GETD2N 0xA
000997 940e 0b00 	CALL __MULD12U
000999 9508      	RET
                 
                 ;OPTIMIZER ADDED SUBROUTINE, CALLED 6 TIMES, CODE SIZE REDUCTION:7 WORDS
                 SUBOPT_0x6:
                +
00099a 83e9     +STD Y + 1 , R30
00099b 83fa     +STD Y + 1 + 1 , R31
00099c 836b     +STD Y + 1 + 2 , R22
00099d 837c     +STD Y + 1 + 3 , R23
                 	__PUTD1S 1
00099e 9508      	RET
                 
                 ;OPTIMIZER ADDED SUBROUTINE, CALLED 5 TIMES, CODE SIZE REDUCTION:5 WORDS
                 SUBOPT_0x7:
                +
00099f 81a9     +LDD R26 , Y + 1
0009a0 81ba     +LDD R27 , Y + 1 + 1
0009a1 818b     +LDD R24 , Y + 1 + 2
0009a2 819c     +LDD R25 , Y + 1 + 3
                 	__GETD2S 1
0009a3 9508      	RET
                 
                 ;OPTIMIZER ADDED SUBROUTINE, CALLED 4 TIMES, CODE SIZE REDUCTION:9 WORDS
                 SUBOPT_0x8:
                +
0009a4 81ee     +LDD R30 , Y + 6
0009a5 81ff     +LDD R31 , Y + 6 + 1
0009a6 8568     +LDD R22 , Y + 6 + 2
0009a7 8579     +LDD R23 , Y + 6 + 3
                 	__GETD1S 6
0009a8 cfea      	RJMP SUBOPT_0x5
                 
                 ;OPTIMIZER ADDED SUBROUTINE, CALLED 2 TIMES, CODE SIZE REDUCTION:1 WORDS
                 SUBOPT_0x9:
0009a9 01df      	MOVW R26,R30
0009aa 01cb      	MOVW R24,R22
0009ab dfe2      	RCALL SUBOPT_0x4
0009ac 940e 0ba4 	CALL __CPD21
0009ae 9508      	RET
                 
                 ;OPTIMIZER ADDED SUBROUTINE, CALLED 2 TIMES, CODE SIZE REDUCTION:1 WORDS
                 SUBOPT_0xA:
                +
0009af 50e1     +SUBI R30 , LOW ( 1 )
0009b0 40f0     +SBCI R31 , HIGH ( 1 )
0009b1 4060     +SBCI R22 , BYTE3 ( 1 )
0009b2 4070     +SBCI R23 , BYTE4 ( 1 )
                 	__SUBD1N 1
0009b3 cfe6      	RJMP SUBOPT_0x6
                 
                 ;OPTIMIZER ADDED SUBROUTINE, CALLED 2 TIMES, CODE SIZE REDUCTION:9 WORDS
                 SUBOPT_0xB:
0009b4 89ac      	LDD  R26,Y+20
0009b5 27bb      	CLR  R27
0009b6 89ea      	LDD  R30,Y+18
0009b7 e0f0      	LDI  R31,0
0009b8 1bae      	SUB  R26,R30
0009b9 0bbf      	SBC  R27,R31
0009ba 81ed      	LDD  R30,Y+5
0009bb e0f0      	LDI  R31,0
0009bc 17ea      	CP   R30,R26
0009bd 07fb      	CPC  R31,R27
0009be 9508      	RET
                 
                 ;OPTIMIZER ADDED SUBROUTINE, CALLED 4 TIMES, CODE SIZE REDUCTION:3 WORDS
                 SUBOPT_0xC:
                +
0009bf 81ee     +LDD R30 , Y + 6
0009c0 81ff     +LDD R31 , Y + 6 + 1
0009c1 8568     +LDD R22 , Y + 6 + 2
0009c2 8579     +LDD R23 , Y + 6 + 3
                 	__GETD1S 6
0009c3 9508      	RET
                 
                 ;OPTIMIZER ADDED SUBROUTINE, CALLED 2 TIMES, CODE SIZE REDUCTION:37 WORDS
                 SUBOPT_0xD:
0009c4 dfda      	RCALL SUBOPT_0x7
0009c5 940e 0b3e 	CALL __DIVD21U
0009c7 83e8      	ST   Y,R30
0009c8 93ea      	ST   -Y,R30
0009c9 940e 010a 	CALL _NumToIndex
0009cb 93ea      	ST   -Y,R30
0009cc 940e 0901 	CALL _lcd_putchar
0009ce 81a8      	LD   R26,Y
0009cf 27bb      	CLR  R27
0009d0 dfee      	RCALL SUBOPT_0xC
0009d1 940e 0af3 	CALL __CWD2
0009d3 940e 0b00 	CALL __MULD12U
0009d5 dfc9      	RCALL SUBOPT_0x7
0009d6 940e 0adc 	CALL __SUBD21
                +
0009d8 83a9     +STD Y + 1 , R26
0009d9 83ba     +STD Y + 1 + 1 , R27
0009da 838b     +STD Y + 1 + 2 , R24
0009db 839c     +STD Y + 1 + 3 , R25
                 	__PUTD2S 1
                +
0009dc 81ae     +LDD R26 , Y + 6
0009dd 81bf     +LDD R27 , Y + 6 + 1
0009de 8588     +LDD R24 , Y + 6 + 2
0009df 8599     +LDD R25 , Y + 6 + 3
                 	__GETD2S 6
                +
0009e0 e0ea     +LDI R30 , LOW ( 0xA )
0009e1 e0f0     +LDI R31 , HIGH ( 0xA )
0009e2 e060     +LDI R22 , BYTE3 ( 0xA )
0009e3 e070     +LDI R23 , BYTE4 ( 0xA )
                 	__GETD1N 0xA
0009e4 940e 0b3e 	CALL __DIVD21U
                +
0009e6 83ee     +STD Y + 6 , R30
0009e7 83ff     +STD Y + 6 + 1 , R31
0009e8 8768     +STD Y + 6 + 2 , R22
0009e9 8779     +STD Y + 6 + 3 , R23
                 	__PUTD1S 6
0009ea 9508      	RET
                 
                 ;OPTIMIZER ADDED SUBROUTINE, CALLED 3 TIMES, CODE SIZE REDUCTION:3 WORDS
                 SUBOPT_0xE:
0009eb 91ed      	LD   R30,X+
0009ec 91fd      	LD   R31,X+
0009ed 9631      	ADIW R30,1
0009ee 93fe      	ST   -X,R31
0009ef 93ee      	ST   -X,R30
0009f0 9508      	RET
                 
                 ;OPTIMIZER ADDED SUBROUTINE, CALLED 3 TIMES, CODE SIZE REDUCTION:1 WORDS
                 SUBOPT_0xF:
0009f1 e0a5      	LDI  R26,LOW(_RealTimeMinute)
0009f2 e0b0      	LDI  R27,HIGH(_RealTimeMinute)
0009f3 940e 0b7f 	CALL __EEPROMRDB
0009f5 9508      	RET
                 
                 ;OPTIMIZER ADDED SUBROUTINE, CALLED 3 TIMES, CODE SIZE REDUCTION:1 WORDS
                 SUBOPT_0x10:
0009f6 e0a4      	LDI  R26,LOW(_RealTimeHour)
0009f7 e0b0      	LDI  R27,HIGH(_RealTimeHour)
0009f8 940e 0b7f 	CALL __EEPROMRDB
0009fa 9508      	RET
                 
                 ;OPTIMIZER ADDED SUBROUTINE, CALLED 4 TIMES, CODE SIZE REDUCTION:3 WORDS
                 SUBOPT_0x11:
0009fb 5fef      	SUBI R30,-LOW(1)
0009fc 940e 0b93 	CALL __EEPROMWRB
0009fe 50e1      	SUBI R30,LOW(1)
0009ff 9508      	RET
                 
                 ;OPTIMIZER ADDED SUBROUTINE, CALLED 5 TIMES, CODE SIZE REDUCTION:37 WORDS
                 SUBOPT_0x12:
000a00 93fa      	ST   -Y,R31
000a01 93ea      	ST   -Y,R30
000a02 940e 0928 	CALL _lcd_putsf
000a04 e0e0      	LDI  R30,LOW(0)
000a05 93ea      	ST   -Y,R30
000a06 e0e2      	LDI  R30,LOW(2)
000a07 93ea      	ST   -Y,R30
000a08 e0e0      	LDI  R30,LOW(0)
000a09 93ea      	ST   -Y,R30
000a0a 93ea      	ST   -Y,R30
000a0b 9508      	RET
                 
                 ;OPTIMIZER ADDED SUBROUTINE, CALLED 2 TIMES, CODE SIZE REDUCTION:14 WORDS
                 SUBOPT_0x13:
000a0c e0f0      	LDI  R31,0
000a0d fde7      	SBRC R30,7
000a0e efff      	SER  R31
000a0f 940e 0aee 	CALL __CWD1
000a11 940e 0b76 	CALL __PUTPARD1
                +
000a13 e0e0     +LDI R30 , LOW ( 0x0 )
000a14 e0f0     +LDI R31 , HIGH ( 0x0 )
000a15 e060     +LDI R22 , BYTE3 ( 0x0 )
000a16 e070     +LDI R23 , BYTE4 ( 0x0 )
                 	__GETD1N 0x0
000a17 940e 0b76 	CALL __PUTPARD1
000a19 940e 018b 	CALL _lcd_put_number
                +
000a1b e5e9     +LDI R30 , LOW ( 2 * _0x0 + ( 5 ) )
000a1c e0f0     +LDI R31 , HIGH ( 2 * _0x0 + ( 5 ) )
                 	__POINTW1FN _0x0,5
000a1d cfe2      	RJMP SUBOPT_0x12
                 
                 ;OPTIMIZER ADDED SUBROUTINE, CALLED 3 TIMES, CODE SIZE REDUCTION:17 WORDS
                 SUBOPT_0x14:
000a1e 940e 0aee 	CALL __CWD1
000a20 940e 0b76 	CALL __PUTPARD1
                +
000a22 e0e0     +LDI R30 , LOW ( 0x0 )
000a23 e0f0     +LDI R31 , HIGH ( 0x0 )
000a24 e060     +LDI R22 , BYTE3 ( 0x0 )
000a25 e070     +LDI R23 , BYTE4 ( 0x0 )
                 	__GETD1N 0x0
000a26 940e 0b76 	CALL __PUTPARD1
000a28 940c 018b 	JMP  _lcd_put_number
                 
                 ;OPTIMIZER ADDED SUBROUTINE, CALLED 2 TIMES, CODE SIZE REDUCTION:1 WORDS
                 SUBOPT_0x15:
                +
000a2a ede5     +LDI R30 , LOW ( 2 * _0x0 + ( 129 ) )
000a2b e0f0     +LDI R31 , HIGH ( 2 * _0x0 + ( 129 ) )
                 	__POINTW1FN _0x0,129
000a2c 93fa      	ST   -Y,R31
000a2d 93ea      	ST   -Y,R30
000a2e 940c 0928 	JMP  _lcd_putsf
                 
                 ;OPTIMIZER ADDED SUBROUTINE, CALLED 12 TIMES, CODE SIZE REDUCTION:19 WORDS
                 SUBOPT_0x16:
000a30 93fa      	ST   -Y,R31
000a31 93ea      	ST   -Y,R30
000a32 940c 0928 	JMP  _lcd_putsf
                 
                 ;OPTIMIZER ADDED SUBROUTINE, CALLED 5 TIMES, CODE SIZE REDUCTION:9 WORDS
                 SUBOPT_0x17:
000a34 93ea      	ST   -Y,R30
000a35 e0e0      	LDI  R30,LOW(0)
000a36 93ea      	ST   -Y,R30
000a37 93ea      	ST   -Y,R30
000a38 9508      	RET
                 
                 ;OPTIMIZER ADDED SUBROUTINE, CALLED 6 TIMES, CODE SIZE REDUCTION:7 WORDS
                 SUBOPT_0x18:
000a39 e0e0      	LDI  R30,LOW(0)
000a3a 93ea      	ST   -Y,R30
000a3b 940c 022e 	JMP  _lcd_cursor
                 
                 ;OPTIMIZER ADDED SUBROUTINE, CALLED 4 TIMES, CODE SIZE REDUCTION:6 WORDS
                 SUBOPT_0x19:
                +
000a3d 91e0 0261+LDS R30 , _Address + ( 1 )
                 	__GETB1MN _Address,1
000a3f 50e1      	SUBI R30,LOW(1)
                +
000a40 93e0 0261+STS _Address + ( 1 ) , R30
                 	__PUTB1MN _Address,1
000a42 9508      	RET
                 
                 ;OPTIMIZER ADDED SUBROUTINE, CALLED 4 TIMES, CODE SIZE REDUCTION:6 WORDS
                 SUBOPT_0x1A:
                +
000a43 91e0 0261+LDS R30 , _Address + ( 1 )
                 	__GETB1MN _Address,1
000a45 5fef      	SUBI R30,-LOW(1)
                +
000a46 93e0 0261+STS _Address + ( 1 ) , R30
                 	__PUTB1MN _Address,1
000a48 9508      	RET
                 
                 ;OPTIMIZER ADDED SUBROUTINE, CALLED 3 TIMES, CODE SIZE REDUCTION:3 WORDS
                 SUBOPT_0x1B:
000a49 93e0 0260 	STS  _Address,R30
000a4b e0e0      	LDI  R30,LOW(0)
                +
000a4c 93e0 0261+STS _Address + ( 1 ) , R30
                 	__PUTB1MN _Address,1
000a4e 9508      	RET
                 
                 ;OPTIMIZER ADDED SUBROUTINE, CALLED 3 TIMES, CODE SIZE REDUCTION:3 WORDS
                 SUBOPT_0x1C:
                +
000a4f 93e0 0261+STS _Address + ( 1 ) , R30
                 	__PUTB1MN _Address,1
000a51 e0e0      	LDI  R30,LOW(0)
                +
000a52 93e0 0262+STS _Address + ( 2 ) , R30
                 	__PUTB1MN _Address,2
000a54 9508      	RET
                 
                 ;OPTIMIZER ADDED SUBROUTINE, CALLED 9 TIMES, CODE SIZE REDUCTION:13 WORDS
                 SUBOPT_0x1D:
000a55 91e0 0275 	LDS  R30,_CODE_EnteringCode_G000
000a57 91f0 0276 	LDS  R31,_CODE_EnteringCode_G000+1
000a59 9508      	RET
                 
                 ;OPTIMIZER ADDED SUBROUTINE, CALLED 2 TIMES, CODE SIZE REDUCTION:1 WORDS
                 SUBOPT_0x1E:
000a5a 81a8      	LD   R26,Y
000a5b 81b9      	LDD  R27,Y+1
000a5c eee8      	LDI  R30,LOW(1000)
000a5d e0f3      	LDI  R31,HIGH(1000)
000a5e 940e 0b2b 	CALL __DIVW21U
000a60 9508      	RET
                 
                 ;OPTIMIZER ADDED SUBROUTINE, CALLED 3 TIMES, CODE SIZE REDUCTION:13 WORDS
                 SUBOPT_0x1F:
000a61 940e 0af8 	CALL __MULW12U
000a63 81a8      	LD   R26,Y
000a64 81b9      	LDD  R27,Y+1
000a65 1bae      	SUB  R26,R30
000a66 0bbf      	SBC  R27,R31
000a67 83a8      	ST   Y,R26
000a68 83b9      	STD  Y+1,R27
000a69 91a0 0277 	LDS  R26,_CODE_ExecutingDigit_G000
000a6b 9508      	RET
                 
                 ;OPTIMIZER ADDED SUBROUTINE, CALLED 2 TIMES, CODE SIZE REDUCTION:1 WORDS
                 SUBOPT_0x20:
000a6c 81a8      	LD   R26,Y
000a6d 81b9      	LDD  R27,Y+1
000a6e e6e4      	LDI  R30,LOW(100)
000a6f e0f0      	LDI  R31,HIGH(100)
000a70 940e 0b2b 	CALL __DIVW21U
000a72 9508      	RET
                 
                 ;OPTIMIZER ADDED SUBROUTINE, CALLED 4 TIMES, CODE SIZE REDUCTION:9 WORDS
                 SUBOPT_0x21:
000a73 81a8      	LD   R26,Y
000a74 81b9      	LDD  R27,Y+1
000a75 e0ea      	LDI  R30,LOW(10)
000a76 e0f0      	LDI  R31,HIGH(10)
000a77 940e 0b2b 	CALL __DIVW21U
000a79 9508      	RET
                 
                 ;OPTIMIZER ADDED SUBROUTINE, CALLED 2 TIMES, CODE SIZE REDUCTION:1 WORDS
                 SUBOPT_0x22:
000a7a 93ea      	ST   -Y,R30
000a7b 940e 010a 	CALL _NumToIndex
000a7d 93ea      	ST   -Y,R30
000a7e 940c 0901 	JMP  _lcd_putchar
                 
                 ;OPTIMIZER ADDED SUBROUTINE, CALLED 2 TIMES, CODE SIZE REDUCTION:2 WORDS
                 SUBOPT_0x23:
000a80 e0e0      	LDI  R30,LOW(0)
000a81 93ea      	ST   -Y,R30
000a82 e0e1      	LDI  R30,LOW(1)
000a83 93ea      	ST   -Y,R30
000a84 93ea      	ST   -Y,R30
000a85 9508      	RET
                 
                 ;OPTIMIZER ADDED SUBROUTINE, CALLED 4 TIMES, CODE SIZE REDUCTION:9 WORDS
                 SUBOPT_0x24:
000a86 e0e0      	LDI  R30,LOW(0)
000a87 93ea      	ST   -Y,R30
000a88 93ea      	ST   -Y,R30
000a89 940c 023d 	JMP  _lcd_buttons
                 
                 ;OPTIMIZER ADDED SUBROUTINE, CALLED 9 TIMES, CODE SIZE REDUCTION:13 WORDS
                 SUBOPT_0x25:
000a8b 91a0 0275 	LDS  R26,_CODE_EnteringCode_G000
000a8d 91b0 0276 	LDS  R27,_CODE_EnteringCode_G000+1
000a8f 9508      	RET
                 
                 ;OPTIMIZER ADDED SUBROUTINE, CALLED 8 TIMES, CODE SIZE REDUCTION:11 WORDS
                 SUBOPT_0x26:
000a90 93e0 0275 	STS  _CODE_EnteringCode_G000,R30
000a92 93f0 0276 	STS  _CODE_EnteringCode_G000+1,R31
000a94 9508      	RET
                 
                 ;OPTIMIZER ADDED SUBROUTINE, CALLED 2 TIMES, CODE SIZE REDUCTION:6 WORDS
                 SUBOPT_0x27:
000a95 e0e1      	LDI  R30,LOW(1)
000a96 93ea      	ST   -Y,R30
000a97 93ea      	ST   -Y,R30
000a98 93ea      	ST   -Y,R30
000a99 93ea      	ST   -Y,R30
000a9a cf99      	RJMP SUBOPT_0x17
                 
                 ;OPTIMIZER ADDED SUBROUTINE, CALLED 2 TIMES, CODE SIZE REDUCTION:7 WORDS
                 SUBOPT_0x28:
000a9b 91e0 0271 	LDS  R30,_CODE_FailedXYZ_G000
000a9d 93e0 0260 	STS  _Address,R30
                +
000a9f 91e0 0272+LDS R30 , _CODE_FailedXYZ_G000 + ( 1 )
                 	__GETB1MN _CODE_FailedXYZ_G000,1
                +
000aa1 93e0 0261+STS _Address + ( 1 ) , R30
                 	__PUTB1MN _Address,1
                +
000aa3 91e0 0273+LDS R30 , _CODE_FailedXYZ_G000 + ( 2 )
                 	__GETB1MN _CODE_FailedXYZ_G000,2
                +
000aa5 93e0 0262+STS _Address + ( 2 ) , R30
                 	__PUTB1MN _Address,2
000aa7 9508      	RET
                 
                 ;OPTIMIZER ADDED SUBROUTINE, CALLED 2 TIMES, CODE SIZE REDUCTION:18 WORDS
                 SUBOPT_0x29:
000aa8 e0e0      	LDI  R30,LOW(0)
000aa9 93e0 026d 	STS  _CODE_IsEntering_G000,R30
000aab 93e0 0275 	STS  _CODE_EnteringCode_G000,R30
000aad 93e0 0276 	STS  _CODE_EnteringCode_G000+1,R30
000aaf 93e0 0277 	STS  _CODE_ExecutingDigit_G000,R30
000ab1 93e0 0274 	STS  _CODE_TimeLeft_G000,R30
000ab3 93e0 026e 	STS  _CODE_SuccessXYZ_G000,R30
                +
000ab5 93e0 026f+STS _CODE_SuccessXYZ_G000 + ( 1 ) , R30
                 	__PUTB1MN _CODE_SuccessXYZ_G000,1
                +
000ab7 93e0 0270+STS _CODE_SuccessXYZ_G000 + ( 2 ) , R30
                 	__PUTB1MN _CODE_SuccessXYZ_G000,2
000ab9 9508      	RET
                 
                 ;OPTIMIZER ADDED SUBROUTINE, CALLED 2 TIMES, CODE SIZE REDUCTION:1 WORDS
                 SUBOPT_0x2A:
000aba eee8      	LDI  R30,LOW(1000)
000abb e0f3      	LDI  R31,HIGH(1000)
000abc 93fa      	ST   -Y,R31
000abd 93ea      	ST   -Y,R30
000abe 940c 0ad0 	JMP  _delay_ms
                 
                 ;OPTIMIZER ADDED SUBROUTINE, CALLED 2 TIMES, CODE SIZE REDUCTION:1 WORDS
                 SUBOPT_0x2B:
000ac0 940e 08e9 	CALL _lcd_clear
                +
000ac2 e7e6     +LDI R30 , LOW ( 2 * _0x0 + ( 290 ) )
000ac3 e0f1     +LDI R31 , HIGH ( 2 * _0x0 + ( 290 ) )
                 	__POINTW1FN _0x0,290
000ac4 cf6b      	RJMP SUBOPT_0x16
                 
                 ;OPTIMIZER ADDED SUBROUTINE, CALLED 3 TIMES, CODE SIZE REDUCTION:5 WORDS
                 SUBOPT_0x2C:
000ac5 940e 0939 	CALL __long_delay_G100
000ac7 e3e0      	LDI  R30,LOW(48)
000ac8 93ea      	ST   -Y,R30
000ac9 940c 093e 	JMP  __lcd_init_write_G100
                 
                 ;OPTIMIZER ADDED SUBROUTINE, CALLED 3 TIMES, CODE SIZE REDUCTION:3 WORDS
                 SUBOPT_0x2D:
000acb 93ea      	ST   -Y,R30
000acc 940e 08b5 	CALL __lcd_write_data
000ace 940c 0939 	JMP  __long_delay_G100
                 
                 
                 	.CSEG
                 _delay_ms:
000ad0 91e9      	ld   r30,y+
000ad1 91f9      	ld   r31,y+
000ad2 9630      	adiw r30,0
000ad3 f039      	breq __delay_ms1
                 __delay_ms0:
                +
000ad4 ee88     +LDI R24 , LOW ( 0x3E8 )
000ad5 e093     +LDI R25 , HIGH ( 0x3E8 )
                +__DELAY_USW_LOOP :
000ad6 9701     +SBIW R24 , 1
000ad7 f7f1     +BRNE __DELAY_USW_LOOP
                 	__DELAY_USW 0x3E8
000ad8 95a8      	wdr
000ad9 9731      	sbiw r30,1
000ada f7c9      	brne __delay_ms0
                 __delay_ms1:
000adb 9508      	ret
                 
                 __SUBD21:
000adc 1bae      	SUB  R26,R30
000add 0bbf      	SBC  R27,R31
000ade 0b86      	SBC  R24,R22
000adf 0b97      	SBC  R25,R23
000ae0 9508      	RET
                 
                 __ANEGD1:
000ae1 95f0      	COM  R31
000ae2 9560      	COM  R22
000ae3 9570      	COM  R23
000ae4 95e1      	NEG  R30
000ae5 4fff      	SBCI R31,-1
000ae6 4f6f      	SBCI R22,-1
000ae7 4f7f      	SBCI R23,-1
000ae8 9508      	RET
                 
                 __LSRW2:
000ae9 95f6      	LSR  R31
000aea 95e7      	ROR  R30
000aeb 95f6      	LSR  R31
000aec 95e7      	ROR  R30
000aed 9508      	RET
                 
                 __CWD1:
000aee 2f6f      	MOV  R22,R31
000aef 0f66      	ADD  R22,R22
000af0 0b66      	SBC  R22,R22
000af1 2f76      	MOV  R23,R22
000af2 9508      	RET
                 
                 __CWD2:
000af3 2f8b      	MOV  R24,R27
000af4 0f88      	ADD  R24,R24
000af5 0b88      	SBC  R24,R24
000af6 2f98      	MOV  R25,R24
000af7 9508      	RET
                 
                 __MULW12U:
000af8 9ffa      	MUL  R31,R26
000af9 2df0      	MOV  R31,R0
000afa 9feb      	MUL  R30,R27
000afb 0df0      	ADD  R31,R0
000afc 9fea      	MUL  R30,R26
000afd 2de0      	MOV  R30,R0
000afe 0df1      	ADD  R31,R1
000aff 9508      	RET
                 
                 __MULD12U:
000b00 9f7a      	MUL  R23,R26
000b01 2d70      	MOV  R23,R0
000b02 9f6b      	MUL  R22,R27
000b03 0d70      	ADD  R23,R0
000b04 9ff8      	MUL  R31,R24
000b05 0d70      	ADD  R23,R0
000b06 9fe9      	MUL  R30,R25
000b07 0d70      	ADD  R23,R0
000b08 9f6a      	MUL  R22,R26
000b09 2d60      	MOV  R22,R0
000b0a 0d71      	ADD  R23,R1
000b0b 9ffb      	MUL  R31,R27
000b0c 0d60      	ADD  R22,R0
000b0d 1d71      	ADC  R23,R1
000b0e 9fe8      	MUL  R30,R24
000b0f 0d60      	ADD  R22,R0
000b10 1d71      	ADC  R23,R1
000b11 2788      	CLR  R24
000b12 9ffa      	MUL  R31,R26
000b13 2df0      	MOV  R31,R0
000b14 0d61      	ADD  R22,R1
000b15 1f78      	ADC  R23,R24
000b16 9feb      	MUL  R30,R27
000b17 0df0      	ADD  R31,R0
000b18 1d61      	ADC  R22,R1
000b19 1f78      	ADC  R23,R24
000b1a 9fea      	MUL  R30,R26
000b1b 2de0      	MOV  R30,R0
000b1c 0df1      	ADD  R31,R1
000b1d 1f68      	ADC  R22,R24
000b1e 1f78      	ADC  R23,R24
000b1f 9508      	RET
                 
                 __MULB1W2U:
000b20 2f6e      	MOV  R22,R30
000b21 9f6a      	MUL  R22,R26
000b22 01f0      	MOVW R30,R0
000b23 9f6b      	MUL  R22,R27
000b24 0df0      	ADD  R31,R0
000b25 9508      	RET
                 
                 __MULD12:
000b26 d03c      	RCALL __CHKSIGND
000b27 dfd8      	RCALL __MULD12U
000b28 f40e      	BRTC __MULD121
000b29 dfb7      	RCALL __ANEGD1
                 __MULD121:
000b2a 9508      	RET
                 
                 __DIVW21U:
000b2b 2400      	CLR  R0
000b2c 2411      	CLR  R1
000b2d e190      	LDI  R25,16
                 __DIVW21U1:
000b2e 0faa      	LSL  R26
000b2f 1fbb      	ROL  R27
000b30 1c00      	ROL  R0
000b31 1c11      	ROL  R1
000b32 1a0e      	SUB  R0,R30
000b33 0a1f      	SBC  R1,R31
000b34 f418      	BRCC __DIVW21U2
000b35 0e0e      	ADD  R0,R30
000b36 1e1f      	ADC  R1,R31
000b37 c001      	RJMP __DIVW21U3
                 __DIVW21U2:
000b38 60a1      	SBR  R26,1
                 __DIVW21U3:
000b39 959a      	DEC  R25
000b3a f799      	BRNE __DIVW21U1
000b3b 01fd      	MOVW R30,R26
000b3c 01d0      	MOVW R26,R0
000b3d 9508      	RET
                 
                 __DIVD21U:
000b3e 933f      	PUSH R19
000b3f 934f      	PUSH R20
000b40 935f      	PUSH R21
000b41 2400      	CLR  R0
000b42 2411      	CLR  R1
000b43 2744      	CLR  R20
000b44 2755      	CLR  R21
000b45 e230      	LDI  R19,32
                 __DIVD21U1:
000b46 0faa      	LSL  R26
000b47 1fbb      	ROL  R27
000b48 1f88      	ROL  R24
000b49 1f99      	ROL  R25
000b4a 1c00      	ROL  R0
000b4b 1c11      	ROL  R1
000b4c 1f44      	ROL  R20
000b4d 1f55      	ROL  R21
000b4e 1a0e      	SUB  R0,R30
000b4f 0a1f      	SBC  R1,R31
000b50 0b46      	SBC  R20,R22
000b51 0b57      	SBC  R21,R23
000b52 f428      	BRCC __DIVD21U2
000b53 0e0e      	ADD  R0,R30
000b54 1e1f      	ADC  R1,R31
000b55 1f46      	ADC  R20,R22
000b56 1f57      	ADC  R21,R23
000b57 c001      	RJMP __DIVD21U3
                 __DIVD21U2:
000b58 60a1      	SBR  R26,1
                 __DIVD21U3:
000b59 953a      	DEC  R19
000b5a f759      	BRNE __DIVD21U1
000b5b 01fd      	MOVW R30,R26
000b5c 01bc      	MOVW R22,R24
000b5d 01d0      	MOVW R26,R0
000b5e 01ca      	MOVW R24,R20
000b5f 915f      	POP  R21
000b60 914f      	POP  R20
000b61 913f      	POP  R19
000b62 9508      	RET
                 
                 __CHKSIGND:
000b63 94e8      	CLT
000b64 ff77      	SBRS R23,7
000b65 c002      	RJMP __CHKSD1
000b66 df7a      	RCALL __ANEGD1
000b67 9468      	SET
                 __CHKSD1:
000b68 ff97      	SBRS R25,7
000b69 c00b      	RJMP __CHKSD2
000b6a 2400      	CLR  R0
000b6b 95a0      	COM  R26
000b6c 95b0      	COM  R27
000b6d 9580      	COM  R24
000b6e 9590      	COM  R25
000b6f 9611      	ADIW R26,1
000b70 1d80      	ADC  R24,R0
000b71 1d90      	ADC  R25,R0
000b72 f800      	BLD  R0,0
000b73 9403      	INC  R0
000b74 fa00      	BST  R0,0
                 __CHKSD2:
000b75 9508      	RET
                 
                 __PUTPARD1:
000b76 937a      	ST   -Y,R23
000b77 936a      	ST   -Y,R22
000b78 93fa      	ST   -Y,R31
000b79 93ea      	ST   -Y,R30
000b7a 9508      	RET
                 
                 __EEPROMRDW:
000b7b 9611      	ADIW R26,1
000b7c d002      	RCALL __EEPROMRDB
000b7d 2ffe      	MOV  R31,R30
000b7e 9711      	SBIW R26,1
                 
                 __EEPROMRDB:
000b7f 99e1      	SBIC EECR,EEWE
000b80 cffe      	RJMP __EEPROMRDB
000b81 93ff      	PUSH R31
000b82 b7ff      	IN   R31,SREG
000b83 94f8      	CLI
000b84 bbae      	OUT  EEARL,R26
000b85 bbbf      	OUT  EEARH,R27
000b86 9ae0      	SBI  EECR,EERE
000b87 b3ed      	IN   R30,EEDR
000b88 bfff      	OUT  SREG,R31
000b89 91ff      	POP  R31
000b8a 9508      	RET
                 
                 __EEPROMWRW:
000b8b d007      	RCALL __EEPROMWRB
000b8c 9611      	ADIW R26,1
000b8d 93ef      	PUSH R30
000b8e 2fef      	MOV  R30,R31
000b8f d003      	RCALL __EEPROMWRB
000b90 91ef      	POP  R30
000b91 9711      	SBIW R26,1
000b92 9508      	RET
                 
                 __EEPROMWRB:
000b93 9be1      	SBIS EECR,EEWE
000b94 c002      	RJMP __EEPROMWRB1
000b95 95a8      	WDR
000b96 cffc      	RJMP __EEPROMWRB
                 __EEPROMWRB1:
000b97 b79f      	IN   R25,SREG
000b98 94f8      	CLI
000b99 bbae      	OUT  EEARL,R26
000b9a bbbf      	OUT  EEARH,R27
000b9b 9ae0      	SBI  EECR,EERE
000b9c b38d      	IN   R24,EEDR
000b9d 17e8      	CP   R30,R24
000b9e f019      	BREQ __EEPROMWRB0
000b9f bbed      	OUT  EEDR,R30
000ba0 9ae2      	SBI  EECR,EEMWE
000ba1 9ae1      	SBI  EECR,EEWE
                 __EEPROMWRB0:
000ba2 bf9f      	OUT  SREG,R25
000ba3 9508      	RET
                 
                 __CPD21:
000ba4 17ae      	CP   R26,R30
000ba5 07bf      	CPC  R27,R31
000ba6 0786      	CPC  R24,R22
000ba7 0797      	CPC  R25,R23
000ba8 9508      	RET
                 
                 ;END OF CODE MARKER
                 __END_OF_CODE:


RESOURCE USE INFORMATION
------------------------

Notice:
The register and instruction counts are symbol table hit counts,
and hence implicitly used resources are not counted, eg, the
'lpm' instruction without operands implicitly uses r0 and z,
none of which are counted.

x,y,z are separate entities in the symbol table and are
counted separately from r26..r31 here.

.dseg memory usage only counts static data declared with .byte

ATmega32 register use summary:
r0 :  40 r1 :  16 r2 :   0 r3 :   0 r4 :  22 r5 :   4 r6 :   3 r7 :   7 
r8 :   0 r9 :   0 r10:   0 r11:   0 r12:   0 r13:   0 r14:   0 r15:   0 
r16:   0 r17:   4 r18:   0 r19:   4 r20:   7 r21:   6 r22:  41 r23:  33 
r24:  37 r25:  20 r26: 393 r27:  77 r28:  20 r29:   1 r30: 722 r31: 175 
x  :   7 y  : 269 z  :   9 
Registers used: 23 out of 35 (65.7%)

ATmega32 instruction use summary:
.lds  :   0 .lds.l:   0 .sts  :   0 .sts.l:   0 adc   :  13 add   :  17 
adiw  :  23 and   :   0 andi  :   6 asr   :   0 bclr  :   0 bld   :   1 
brbc  :   0 brbs  :   0 brcc  :   2 brcs  :   0 break :   0 breq  :  28 
brge  :   7 brhc  :   0 brhs  :   0 brid  :   0 brie  :   0 brlo  :  16 
brlt  :  10 brmi  :   1 brne  : 119 brpl  :   1 brsh  :  23 brtc  :   1 
brts  :   1 brvc  :   0 brvs  :   0 bset  :   0 bst   :   1 call  : 241 
cbi   :  10 cbr   :   0 clc   :   0 clh   :   0 cli   :   3 cln   :   0 
clr   :  23 cls   :   0 clt   :   2 clv   :   0 clz   :   0 com   :   7 
cp    :  22 cpc   :  16 cpi   : 165 cpse  :   0 dec   :   5 des   :   0 
eor   :   0 fmul  :   0 fmuls :   0 fmulsu:   0 icall :   0 ijmp  :   0 
in    :  13 inc   :   4 jmp   :  44 ld    :  45 ldd   :  73 ldi   : 381 
lds   : 145 lpm   :   9 lsl   :   2 lsr   :   2 mov   :  30 movw  :  15 
mul   :  15 muls  :   0 mulsu :   0 neg   :   1 nop   :   0 or    :   2 
ori   :   2 out   :  51 pop   :   7 push  :   7 rcall :  40 ret   :  66 
reti  :   1 rjmp  : 133 rol   :  10 ror   :   2 sbc   :  12 sbci  :  12 
sbi   :  13 sbic  :  13 sbis  :  10 sbiw  :  21 sbr   :   2 sbrc  :   6 
sbrs  :   2 sec   :   0 seh   :   0 sei   :   1 sen   :   0 ser   :   5 
ses   :   0 set   :   2 sev   :   0 sez   :   0 sleep :   0 spm   :   0 
st    : 131 std   :  28 sts   : 105 sub   :   6 subi  :  36 swap  :   2 
tst   :   2 wdr   :   2 
Instructions used: 72 out of 116 (62.1%)

ATmega32 memory use summary [bytes]:
Segment   Begin    End      Code   Data   Used    Size   Use%
---------------------------------------------------------------
[.cseg] 0x000000 0x001752   5618    352   5970   32768  18.2%
[.dseg] 0x000060 0x000298      0     56     56    2048   2.7%
[.eseg] 0x000000 0x000006      0      6      6    1024   0.6%

Assembly complete, 0 errors, 11 warnings
