
;CodeVisionAVR C Compiler V2.04.4a Advanced
;(C) Copyright 1998-2009 Pavel Haiduc, HP InfoTech s.r.l.
;http://www.hpinfotech.com

;Chip type                : ATmega32
;Program type             : Application
;Clock frequency          : 8.000000 MHz
;Memory model             : Small
;Optimize for             : Size
;(s)printf features       : int, width
;(s)scanf features        : int, width
;External RAM size        : 0
;Data Stack size          : 512 byte(s)
;Heap size                : 0 byte(s)
;Promote 'char' to 'int'  : Yes
;'char' is unsigned       : Yes
;8 bit enums              : Yes
;global 'const' stored in FLASH: No
;Enhanced core instructions    : On
;Smart register allocation     : On
;Automatic register allocation : On

	#pragma AVRPART ADMIN PART_NAME ATmega32
	#pragma AVRPART MEMORY PROG_FLASH 32768
	#pragma AVRPART MEMORY EEPROM 1024
	#pragma AVRPART MEMORY INT_SRAM SIZE 2048
	#pragma AVRPART MEMORY INT_SRAM START_ADDR 0x60

	.LISTMAC
	.EQU UDRE=0x5
	.EQU RXC=0x7
	.EQU USR=0xB
	.EQU UDR=0xC
	.EQU SPSR=0xE
	.EQU SPDR=0xF
	.EQU EERE=0x0
	.EQU EEWE=0x1
	.EQU EEMWE=0x2
	.EQU EECR=0x1C
	.EQU EEDR=0x1D
	.EQU EEARL=0x1E
	.EQU EEARH=0x1F
	.EQU WDTCR=0x21
	.EQU MCUCR=0x35
	.EQU GICR=0x3B
	.EQU SPL=0x3D
	.EQU SPH=0x3E
	.EQU SREG=0x3F

	.DEF R0X0=R0
	.DEF R0X1=R1
	.DEF R0X2=R2
	.DEF R0X3=R3
	.DEF R0X4=R4
	.DEF R0X5=R5
	.DEF R0X6=R6
	.DEF R0X7=R7
	.DEF R0X8=R8
	.DEF R0X9=R9
	.DEF R0XA=R10
	.DEF R0XB=R11
	.DEF R0XC=R12
	.DEF R0XD=R13
	.DEF R0XE=R14
	.DEF R0XF=R15
	.DEF R0X10=R16
	.DEF R0X11=R17
	.DEF R0X12=R18
	.DEF R0X13=R19
	.DEF R0X14=R20
	.DEF R0X15=R21
	.DEF R0X16=R22
	.DEF R0X17=R23
	.DEF R0X18=R24
	.DEF R0X19=R25
	.DEF R0X1A=R26
	.DEF R0X1B=R27
	.DEF R0X1C=R28
	.DEF R0X1D=R29
	.DEF R0X1E=R30
	.DEF R0X1F=R31

	.MACRO __CPD1N
	CPI  R30,LOW(@0)
	LDI  R26,HIGH(@0)
	CPC  R31,R26
	LDI  R26,BYTE3(@0)
	CPC  R22,R26
	LDI  R26,BYTE4(@0)
	CPC  R23,R26
	.ENDM

	.MACRO __CPD2N
	CPI  R26,LOW(@0)
	LDI  R30,HIGH(@0)
	CPC  R27,R30
	LDI  R30,BYTE3(@0)
	CPC  R24,R30
	LDI  R30,BYTE4(@0)
	CPC  R25,R30
	.ENDM

	.MACRO __CPWRR
	CP   R@0,R@2
	CPC  R@1,R@3
	.ENDM

	.MACRO __CPWRN
	CPI  R@0,LOW(@2)
	LDI  R30,HIGH(@2)
	CPC  R@1,R30
	.ENDM

	.MACRO __ADDB1MN
	SUBI R30,LOW(-@0-(@1))
	.ENDM

	.MACRO __ADDB2MN
	SUBI R26,LOW(-@0-(@1))
	.ENDM

	.MACRO __ADDW1MN
	SUBI R30,LOW(-@0-(@1))
	SBCI R31,HIGH(-@0-(@1))
	.ENDM

	.MACRO __ADDW2MN
	SUBI R26,LOW(-@0-(@1))
	SBCI R27,HIGH(-@0-(@1))
	.ENDM

	.MACRO __ADDW1FN
	SUBI R30,LOW(-2*@0-(@1))
	SBCI R31,HIGH(-2*@0-(@1))
	.ENDM

	.MACRO __ADDD1FN
	SUBI R30,LOW(-2*@0-(@1))
	SBCI R31,HIGH(-2*@0-(@1))
	SBCI R22,BYTE3(-2*@0-(@1))
	.ENDM

	.MACRO __ADDD1N
	SUBI R30,LOW(-@0)
	SBCI R31,HIGH(-@0)
	SBCI R22,BYTE3(-@0)
	SBCI R23,BYTE4(-@0)
	.ENDM

	.MACRO __ADDD2N
	SUBI R26,LOW(-@0)
	SBCI R27,HIGH(-@0)
	SBCI R24,BYTE3(-@0)
	SBCI R25,BYTE4(-@0)
	.ENDM

	.MACRO __SUBD1N
	SUBI R30,LOW(@0)
	SBCI R31,HIGH(@0)
	SBCI R22,BYTE3(@0)
	SBCI R23,BYTE4(@0)
	.ENDM

	.MACRO __SUBD2N
	SUBI R26,LOW(@0)
	SBCI R27,HIGH(@0)
	SBCI R24,BYTE3(@0)
	SBCI R25,BYTE4(@0)
	.ENDM

	.MACRO __ANDBMNN
	LDS  R30,@0+(@1)
	ANDI R30,LOW(@2)
	STS  @0+(@1),R30
	.ENDM

	.MACRO __ANDWMNN
	LDS  R30,@0+(@1)
	ANDI R30,LOW(@2)
	STS  @0+(@1),R30
	LDS  R30,@0+(@1)+1
	ANDI R30,HIGH(@2)
	STS  @0+(@1)+1,R30
	.ENDM

	.MACRO __ANDD1N
	ANDI R30,LOW(@0)
	ANDI R31,HIGH(@0)
	ANDI R22,BYTE3(@0)
	ANDI R23,BYTE4(@0)
	.ENDM

	.MACRO __ANDD2N
	ANDI R26,LOW(@0)
	ANDI R27,HIGH(@0)
	ANDI R24,BYTE3(@0)
	ANDI R25,BYTE4(@0)
	.ENDM

	.MACRO __ORBMNN
	LDS  R30,@0+(@1)
	ORI  R30,LOW(@2)
	STS  @0+(@1),R30
	.ENDM

	.MACRO __ORWMNN
	LDS  R30,@0+(@1)
	ORI  R30,LOW(@2)
	STS  @0+(@1),R30
	LDS  R30,@0+(@1)+1
	ORI  R30,HIGH(@2)
	STS  @0+(@1)+1,R30
	.ENDM

	.MACRO __ORD1N
	ORI  R30,LOW(@0)
	ORI  R31,HIGH(@0)
	ORI  R22,BYTE3(@0)
	ORI  R23,BYTE4(@0)
	.ENDM

	.MACRO __ORD2N
	ORI  R26,LOW(@0)
	ORI  R27,HIGH(@0)
	ORI  R24,BYTE3(@0)
	ORI  R25,BYTE4(@0)
	.ENDM

	.MACRO __DELAY_USB
	LDI  R24,LOW(@0)
__DELAY_USB_LOOP:
	DEC  R24
	BRNE __DELAY_USB_LOOP
	.ENDM

	.MACRO __DELAY_USW
	LDI  R24,LOW(@0)
	LDI  R25,HIGH(@0)
__DELAY_USW_LOOP:
	SBIW R24,1
	BRNE __DELAY_USW_LOOP
	.ENDM

	.MACRO __GETD1S
	LDD  R30,Y+@0
	LDD  R31,Y+@0+1
	LDD  R22,Y+@0+2
	LDD  R23,Y+@0+3
	.ENDM

	.MACRO __GETD2S
	LDD  R26,Y+@0
	LDD  R27,Y+@0+1
	LDD  R24,Y+@0+2
	LDD  R25,Y+@0+3
	.ENDM

	.MACRO __PUTD1S
	STD  Y+@0,R30
	STD  Y+@0+1,R31
	STD  Y+@0+2,R22
	STD  Y+@0+3,R23
	.ENDM

	.MACRO __PUTD2S
	STD  Y+@0,R26
	STD  Y+@0+1,R27
	STD  Y+@0+2,R24
	STD  Y+@0+3,R25
	.ENDM

	.MACRO __PUTDZ2
	STD  Z+@0,R26
	STD  Z+@0+1,R27
	STD  Z+@0+2,R24
	STD  Z+@0+3,R25
	.ENDM

	.MACRO __CLRD1S
	STD  Y+@0,R30
	STD  Y+@0+1,R30
	STD  Y+@0+2,R30
	STD  Y+@0+3,R30
	.ENDM

	.MACRO __POINTB1MN
	LDI  R30,LOW(@0+(@1))
	.ENDM

	.MACRO __POINTW1MN
	LDI  R30,LOW(@0+(@1))
	LDI  R31,HIGH(@0+(@1))
	.ENDM

	.MACRO __POINTD1M
	LDI  R30,LOW(@0)
	LDI  R31,HIGH(@0)
	LDI  R22,BYTE3(@0)
	LDI  R23,BYTE4(@0)
	.ENDM

	.MACRO __POINTW1FN
	LDI  R30,LOW(2*@0+(@1))
	LDI  R31,HIGH(2*@0+(@1))
	.ENDM

	.MACRO __POINTD1FN
	LDI  R30,LOW(2*@0+(@1))
	LDI  R31,HIGH(2*@0+(@1))
	LDI  R22,BYTE3(2*@0+(@1))
	LDI  R23,BYTE4(2*@0+(@1))
	.ENDM

	.MACRO __POINTB2MN
	LDI  R26,LOW(@0+(@1))
	.ENDM

	.MACRO __POINTW2MN
	LDI  R26,LOW(@0+(@1))
	LDI  R27,HIGH(@0+(@1))
	.ENDM

	.MACRO __POINTBRM
	LDI  R@0,LOW(@1)
	.ENDM

	.MACRO __POINTWRM
	LDI  R@0,LOW(@2)
	LDI  R@1,HIGH(@2)
	.ENDM

	.MACRO __POINTBRMN
	LDI  R@0,LOW(@1+(@2))
	.ENDM

	.MACRO __POINTWRMN
	LDI  R@0,LOW(@2+(@3))
	LDI  R@1,HIGH(@2+(@3))
	.ENDM

	.MACRO __POINTWRFN
	LDI  R@0,LOW(@2*2+(@3))
	LDI  R@1,HIGH(@2*2+(@3))
	.ENDM

	.MACRO __GETD1N
	LDI  R30,LOW(@0)
	LDI  R31,HIGH(@0)
	LDI  R22,BYTE3(@0)
	LDI  R23,BYTE4(@0)
	.ENDM

	.MACRO __GETD2N
	LDI  R26,LOW(@0)
	LDI  R27,HIGH(@0)
	LDI  R24,BYTE3(@0)
	LDI  R25,BYTE4(@0)
	.ENDM

	.MACRO __GETB1MN
	LDS  R30,@0+(@1)
	.ENDM

	.MACRO __GETB1HMN
	LDS  R31,@0+(@1)
	.ENDM

	.MACRO __GETW1MN
	LDS  R30,@0+(@1)
	LDS  R31,@0+(@1)+1
	.ENDM

	.MACRO __GETD1MN
	LDS  R30,@0+(@1)
	LDS  R31,@0+(@1)+1
	LDS  R22,@0+(@1)+2
	LDS  R23,@0+(@1)+3
	.ENDM

	.MACRO __GETBRMN
	LDS  R@0,@1+(@2)
	.ENDM

	.MACRO __GETWRMN
	LDS  R@0,@2+(@3)
	LDS  R@1,@2+(@3)+1
	.ENDM

	.MACRO __GETWRZ
	LDD  R@0,Z+@2
	LDD  R@1,Z+@2+1
	.ENDM

	.MACRO __GETD2Z
	LDD  R26,Z+@0
	LDD  R27,Z+@0+1
	LDD  R24,Z+@0+2
	LDD  R25,Z+@0+3
	.ENDM

	.MACRO __GETB2MN
	LDS  R26,@0+(@1)
	.ENDM

	.MACRO __GETW2MN
	LDS  R26,@0+(@1)
	LDS  R27,@0+(@1)+1
	.ENDM

	.MACRO __GETD2MN
	LDS  R26,@0+(@1)
	LDS  R27,@0+(@1)+1
	LDS  R24,@0+(@1)+2
	LDS  R25,@0+(@1)+3
	.ENDM

	.MACRO __PUTB1MN
	STS  @0+(@1),R30
	.ENDM

	.MACRO __PUTW1MN
	STS  @0+(@1),R30
	STS  @0+(@1)+1,R31
	.ENDM

	.MACRO __PUTD1MN
	STS  @0+(@1),R30
	STS  @0+(@1)+1,R31
	STS  @0+(@1)+2,R22
	STS  @0+(@1)+3,R23
	.ENDM

	.MACRO __PUTB1EN
	LDI  R26,LOW(@0+(@1))
	LDI  R27,HIGH(@0+(@1))
	CALL __EEPROMWRB
	.ENDM

	.MACRO __PUTW1EN
	LDI  R26,LOW(@0+(@1))
	LDI  R27,HIGH(@0+(@1))
	CALL __EEPROMWRW
	.ENDM

	.MACRO __PUTD1EN
	LDI  R26,LOW(@0+(@1))
	LDI  R27,HIGH(@0+(@1))
	CALL __EEPROMWRD
	.ENDM

	.MACRO __PUTBR0MN
	STS  @0+(@1),R0
	.ENDM

	.MACRO __PUTBMRN
	STS  @0+(@1),R@2
	.ENDM

	.MACRO __PUTWMRN
	STS  @0+(@1),R@2
	STS  @0+(@1)+1,R@3
	.ENDM

	.MACRO __PUTBZR
	STD  Z+@1,R@0
	.ENDM

	.MACRO __PUTWZR
	STD  Z+@2,R@0
	STD  Z+@2+1,R@1
	.ENDM

	.MACRO __GETW1R
	MOV  R30,R@0
	MOV  R31,R@1
	.ENDM

	.MACRO __GETW2R
	MOV  R26,R@0
	MOV  R27,R@1
	.ENDM

	.MACRO __GETWRN
	LDI  R@0,LOW(@2)
	LDI  R@1,HIGH(@2)
	.ENDM

	.MACRO __PUTW1R
	MOV  R@0,R30
	MOV  R@1,R31
	.ENDM

	.MACRO __PUTW2R
	MOV  R@0,R26
	MOV  R@1,R27
	.ENDM

	.MACRO __ADDWRN
	SUBI R@0,LOW(-@2)
	SBCI R@1,HIGH(-@2)
	.ENDM

	.MACRO __ADDWRR
	ADD  R@0,R@2
	ADC  R@1,R@3
	.ENDM

	.MACRO __SUBWRN
	SUBI R@0,LOW(@2)
	SBCI R@1,HIGH(@2)
	.ENDM

	.MACRO __SUBWRR
	SUB  R@0,R@2
	SBC  R@1,R@3
	.ENDM

	.MACRO __ANDWRN
	ANDI R@0,LOW(@2)
	ANDI R@1,HIGH(@2)
	.ENDM

	.MACRO __ANDWRR
	AND  R@0,R@2
	AND  R@1,R@3
	.ENDM

	.MACRO __ORWRN
	ORI  R@0,LOW(@2)
	ORI  R@1,HIGH(@2)
	.ENDM

	.MACRO __ORWRR
	OR   R@0,R@2
	OR   R@1,R@3
	.ENDM

	.MACRO __EORWRR
	EOR  R@0,R@2
	EOR  R@1,R@3
	.ENDM

	.MACRO __GETWRS
	LDD  R@0,Y+@2
	LDD  R@1,Y+@2+1
	.ENDM

	.MACRO __PUTBSR
	STD  Y+@1,R@0
	.ENDM

	.MACRO __PUTWSR
	STD  Y+@2,R@0
	STD  Y+@2+1,R@1
	.ENDM

	.MACRO __MOVEWRR
	MOV  R@0,R@2
	MOV  R@1,R@3
	.ENDM

	.MACRO __INWR
	IN   R@0,@2
	IN   R@1,@2+1
	.ENDM

	.MACRO __OUTWR
	OUT  @2+1,R@1
	OUT  @2,R@0
	.ENDM

	.MACRO __CALL1MN
	LDS  R30,@0+(@1)
	LDS  R31,@0+(@1)+1
	ICALL
	.ENDM

	.MACRO __CALL1FN
	LDI  R30,LOW(2*@0+(@1))
	LDI  R31,HIGH(2*@0+(@1))
	CALL __GETW1PF
	ICALL
	.ENDM

	.MACRO __CALL2EN
	LDI  R26,LOW(@0+(@1))
	LDI  R27,HIGH(@0+(@1))
	CALL __EEPROMRDW
	ICALL
	.ENDM

	.MACRO __GETW1STACK
	IN   R26,SPL
	IN   R27,SPH
	ADIW R26,@0+1
	LD   R30,X+
	LD   R31,X
	.ENDM

	.MACRO __GETD1STACK
	IN   R26,SPL
	IN   R27,SPH
	ADIW R26,@0+1
	LD   R30,X+
	LD   R31,X+
	LD   R22,X
	.ENDM

	.MACRO __NBST
	BST  R@0,@1
	IN   R30,SREG
	LDI  R31,0x40
	EOR  R30,R31
	OUT  SREG,R30
	.ENDM


	.MACRO __PUTB1SN
	LDD  R26,Y+@0
	LDD  R27,Y+@0+1
	SUBI R26,LOW(-@1)
	SBCI R27,HIGH(-@1)
	ST   X,R30
	.ENDM

	.MACRO __PUTW1SN
	LDD  R26,Y+@0
	LDD  R27,Y+@0+1
	SUBI R26,LOW(-@1)
	SBCI R27,HIGH(-@1)
	ST   X+,R30
	ST   X,R31
	.ENDM

	.MACRO __PUTD1SN
	LDD  R26,Y+@0
	LDD  R27,Y+@0+1
	SUBI R26,LOW(-@1)
	SBCI R27,HIGH(-@1)
	CALL __PUTDP1
	.ENDM

	.MACRO __PUTB1SNS
	LDD  R26,Y+@0
	LDD  R27,Y+@0+1
	ADIW R26,@1
	ST   X,R30
	.ENDM

	.MACRO __PUTW1SNS
	LDD  R26,Y+@0
	LDD  R27,Y+@0+1
	ADIW R26,@1
	ST   X+,R30
	ST   X,R31
	.ENDM

	.MACRO __PUTD1SNS
	LDD  R26,Y+@0
	LDD  R27,Y+@0+1
	ADIW R26,@1
	CALL __PUTDP1
	.ENDM

	.MACRO __PUTB1PMN
	LDS  R26,@0
	LDS  R27,@0+1
	SUBI R26,LOW(-@1)
	SBCI R27,HIGH(-@1)
	ST   X,R30
	.ENDM

	.MACRO __PUTW1PMN
	LDS  R26,@0
	LDS  R27,@0+1
	SUBI R26,LOW(-@1)
	SBCI R27,HIGH(-@1)
	ST   X+,R30
	ST   X,R31
	.ENDM

	.MACRO __PUTD1PMN
	LDS  R26,@0
	LDS  R27,@0+1
	SUBI R26,LOW(-@1)
	SBCI R27,HIGH(-@1)
	CALL __PUTDP1
	.ENDM

	.MACRO __PUTB1PMNS
	LDS  R26,@0
	LDS  R27,@0+1
	ADIW R26,@1
	ST   X,R30
	.ENDM

	.MACRO __PUTW1PMNS
	LDS  R26,@0
	LDS  R27,@0+1
	ADIW R26,@1
	ST   X+,R30
	ST   X,R31
	.ENDM

	.MACRO __PUTD1PMNS
	LDS  R26,@0
	LDS  R27,@0+1
	ADIW R26,@1
	CALL __PUTDP1
	.ENDM

	.MACRO __PUTB1RN
	MOVW R26,R@0
	SUBI R26,LOW(-@1)
	SBCI R27,HIGH(-@1)
	ST   X,R30
	.ENDM

	.MACRO __PUTW1RN
	MOVW R26,R@0
	SUBI R26,LOW(-@1)
	SBCI R27,HIGH(-@1)
	ST   X+,R30
	ST   X,R31
	.ENDM

	.MACRO __PUTD1RN
	MOVW R26,R@0
	SUBI R26,LOW(-@1)
	SBCI R27,HIGH(-@1)
	CALL __PUTDP1
	.ENDM

	.MACRO __PUTB1RNS
	MOVW R26,R@0
	ADIW R26,@1
	ST   X,R30
	.ENDM

	.MACRO __PUTW1RNS
	MOVW R26,R@0
	ADIW R26,@1
	ST   X+,R30
	ST   X,R31
	.ENDM

	.MACRO __PUTD1RNS
	MOVW R26,R@0
	ADIW R26,@1
	CALL __PUTDP1
	.ENDM

	.MACRO __PUTB1RON
	MOV  R26,R@0
	MOV  R27,R@1
	SUBI R26,LOW(-@2)
	SBCI R27,HIGH(-@2)
	ST   X,R30
	.ENDM

	.MACRO __PUTW1RON
	MOV  R26,R@0
	MOV  R27,R@1
	SUBI R26,LOW(-@2)
	SBCI R27,HIGH(-@2)
	ST   X+,R30
	ST   X,R31
	.ENDM

	.MACRO __PUTD1RON
	MOV  R26,R@0
	MOV  R27,R@1
	SUBI R26,LOW(-@2)
	SBCI R27,HIGH(-@2)
	CALL __PUTDP1
	.ENDM

	.MACRO __PUTB1RONS
	MOV  R26,R@0
	MOV  R27,R@1
	ADIW R26,@2
	ST   X,R30
	.ENDM

	.MACRO __PUTW1RONS
	MOV  R26,R@0
	MOV  R27,R@1
	ADIW R26,@2
	ST   X+,R30
	ST   X,R31
	.ENDM

	.MACRO __PUTD1RONS
	MOV  R26,R@0
	MOV  R27,R@1
	ADIW R26,@2
	CALL __PUTDP1
	.ENDM


	.MACRO __GETB1SX
	MOVW R30,R28
	SUBI R30,LOW(-@0)
	SBCI R31,HIGH(-@0)
	LD   R30,Z
	.ENDM

	.MACRO __GETB1HSX
	MOVW R30,R28
	SUBI R30,LOW(-@0)
	SBCI R31,HIGH(-@0)
	LD   R31,Z
	.ENDM

	.MACRO __GETW1SX
	MOVW R30,R28
	SUBI R30,LOW(-@0)
	SBCI R31,HIGH(-@0)
	LD   R0,Z+
	LD   R31,Z
	MOV  R30,R0
	.ENDM

	.MACRO __GETD1SX
	MOVW R30,R28
	SUBI R30,LOW(-@0)
	SBCI R31,HIGH(-@0)
	LD   R0,Z+
	LD   R1,Z+
	LD   R22,Z+
	LD   R23,Z
	MOVW R30,R0
	.ENDM

	.MACRO __GETB2SX
	MOVW R26,R28
	SUBI R26,LOW(-@0)
	SBCI R27,HIGH(-@0)
	LD   R26,X
	.ENDM

	.MACRO __GETW2SX
	MOVW R26,R28
	SUBI R26,LOW(-@0)
	SBCI R27,HIGH(-@0)
	LD   R0,X+
	LD   R27,X
	MOV  R26,R0
	.ENDM

	.MACRO __GETD2SX
	MOVW R26,R28
	SUBI R26,LOW(-@0)
	SBCI R27,HIGH(-@0)
	LD   R0,X+
	LD   R1,X+
	LD   R24,X+
	LD   R25,X
	MOVW R26,R0
	.ENDM

	.MACRO __GETBRSX
	MOVW R30,R28
	SUBI R30,LOW(-@1)
	SBCI R31,HIGH(-@1)
	LD   R@0,Z
	.ENDM

	.MACRO __GETWRSX
	MOVW R30,R28
	SUBI R30,LOW(-@2)
	SBCI R31,HIGH(-@2)
	LD   R@0,Z+
	LD   R@1,Z
	.ENDM

	.MACRO __GETBRSX2
	MOVW R26,R28
	SUBI R26,LOW(-@1)
	SBCI R27,HIGH(-@1)
	LD   R@0,X
	.ENDM

	.MACRO __GETWRSX2
	MOVW R26,R28
	SUBI R26,LOW(-@2)
	SBCI R27,HIGH(-@2)
	LD   R@0,X+
	LD   R@1,X
	.ENDM

	.MACRO __LSLW8SX
	MOVW R30,R28
	SUBI R30,LOW(-@0)
	SBCI R31,HIGH(-@0)
	LD   R31,Z
	CLR  R30
	.ENDM

	.MACRO __PUTB1SX
	MOVW R26,R28
	SUBI R26,LOW(-@0)
	SBCI R27,HIGH(-@0)
	ST   X,R30
	.ENDM

	.MACRO __PUTW1SX
	MOVW R26,R28
	SUBI R26,LOW(-@0)
	SBCI R27,HIGH(-@0)
	ST   X+,R30
	ST   X,R31
	.ENDM

	.MACRO __PUTD1SX
	MOVW R26,R28
	SUBI R26,LOW(-@0)
	SBCI R27,HIGH(-@0)
	ST   X+,R30
	ST   X+,R31
	ST   X+,R22
	ST   X,R23
	.ENDM

	.MACRO __CLRW1SX
	MOVW R26,R28
	SUBI R26,LOW(-@0)
	SBCI R27,HIGH(-@0)
	ST   X+,R30
	ST   X,R30
	.ENDM

	.MACRO __CLRD1SX
	MOVW R26,R28
	SUBI R26,LOW(-@0)
	SBCI R27,HIGH(-@0)
	ST   X+,R30
	ST   X+,R30
	ST   X+,R30
	ST   X,R30
	.ENDM

	.MACRO __PUTB2SX
	MOVW R30,R28
	SUBI R30,LOW(-@0)
	SBCI R31,HIGH(-@0)
	ST   Z,R26
	.ENDM

	.MACRO __PUTW2SX
	MOVW R30,R28
	SUBI R30,LOW(-@0)
	SBCI R31,HIGH(-@0)
	ST   Z+,R26
	ST   Z,R27
	.ENDM

	.MACRO __PUTD2SX
	MOVW R30,R28
	SUBI R30,LOW(-@0)
	SBCI R31,HIGH(-@0)
	ST   Z+,R26
	ST   Z+,R27
	ST   Z+,R24
	ST   Z,R25
	.ENDM

	.MACRO __PUTBSRX
	MOVW R30,R28
	SUBI R30,LOW(-@1)
	SBCI R31,HIGH(-@1)
	ST   Z,R@0
	.ENDM

	.MACRO __PUTWSRX
	MOVW R30,R28
	SUBI R30,LOW(-@2)
	SBCI R31,HIGH(-@2)
	ST   Z+,R@0
	ST   Z,R@1
	.ENDM

	.MACRO __PUTB1SNX
	MOVW R26,R28
	SUBI R26,LOW(-@0)
	SBCI R27,HIGH(-@0)
	LD   R0,X+
	LD   R27,X
	MOV  R26,R0
	SUBI R26,LOW(-@1)
	SBCI R27,HIGH(-@1)
	ST   X,R30
	.ENDM

	.MACRO __PUTW1SNX
	MOVW R26,R28
	SUBI R26,LOW(-@0)
	SBCI R27,HIGH(-@0)
	LD   R0,X+
	LD   R27,X
	MOV  R26,R0
	SUBI R26,LOW(-@1)
	SBCI R27,HIGH(-@1)
	ST   X+,R30
	ST   X,R31
	.ENDM

	.MACRO __PUTD1SNX
	MOVW R26,R28
	SUBI R26,LOW(-@0)
	SBCI R27,HIGH(-@0)
	LD   R0,X+
	LD   R27,X
	MOV  R26,R0
	SUBI R26,LOW(-@1)
	SBCI R27,HIGH(-@1)
	ST   X+,R30
	ST   X+,R31
	ST   X+,R22
	ST   X,R23
	.ENDM

	.MACRO __MULBRR
	MULS R@0,R@1
	MOVW R30,R0
	.ENDM

	.MACRO __MULBRRU
	MUL  R@0,R@1
	MOVW R30,R0
	.ENDM

	.MACRO __MULBRR0
	MULS R@0,R@1
	.ENDM

	.MACRO __MULBRRU0
	MUL  R@0,R@1
	.ENDM

	.MACRO __MULBNWRU
	LDI  R26,@2
	MUL  R26,R@0
	MOVW R30,R0
	MUL  R26,R@1
	ADD  R31,R0
	.ENDM

;NAME DEFINITIONS FOR GLOBAL VARIABLES ALLOCATED TO REGISTERS
	.DEF _viena_sekunde1=R4
	.DEF _viena_sekunde2=R6
	.DEF _viena_sekunde4=R8
	.DEF _penkios_minutes=R10
	.DEF _viena_sekunde5=R12

	.CSEG
	.ORG 0x00

;INTERRUPT VECTORS
	JMP  __RESET
	JMP  0x00
	JMP  0x00
	JMP  0x00
	JMP  0x00
	JMP  0x00
	JMP  0x00
	JMP  0x00
	JMP  0x00
	JMP  0x00
	JMP  0x00
	JMP  0x00
	JMP  0x00
	JMP  0x00
	JMP  0x00
	JMP  0x00
	JMP  0x00
	JMP  0x00
	JMP  0x00
	JMP  0x00
	JMP  0x00

__RESET:
	CLI
	CLR  R30
	OUT  EECR,R30

;INTERRUPT VECTORS ARE PLACED
;AT THE START OF FLASH
	LDI  R31,1
	OUT  GICR,R31
	OUT  GICR,R30
	OUT  MCUCR,R30

;DISABLE WATCHDOG
	LDI  R31,0x18
	OUT  WDTCR,R31
	OUT  WDTCR,R30

;CLEAR R2-R14
	LDI  R24,(14-2)+1
	LDI  R26,2
	CLR  R27
__CLEAR_REG:
	ST   X+,R30
	DEC  R24
	BRNE __CLEAR_REG

;CLEAR SRAM
	LDI  R24,LOW(0x800)
	LDI  R25,HIGH(0x800)
	LDI  R26,0x60
__CLEAR_SRAM:
	ST   X+,R30
	SBIW R24,1
	BRNE __CLEAR_SRAM

;STACK POINTER INITIALIZATION
	LDI  R30,LOW(0x85F)
	OUT  SPL,R30
	LDI  R30,HIGH(0x85F)
	OUT  SPH,R30

;DATA STACK POINTER INITIALIZATION
	LDI  R28,LOW(0x260)
	LDI  R29,HIGH(0x260)

	JMP  _main

	.ESEG
	.ORG 0

	.DSEG
	.ORG 0x260

	.CSEG
;/*****************************************************
;Project : Skambutis
;Version : v1.1
;Date    : 2010 - 05 - 27
;Author  : Tomas Vanagas
;E-mail  : tomasvanagas@ymail.com
;Tel.    : 8 695 87284
;
;
;
;Mikroschemos pavadinimas      : ATmega32
;Mikroschemos taktinis daznis  : 8.000000 MHz
;Isorine RAM atmintis          : 0 Baitu
;Vidine RAM atmintis           : 512 Baitu
;Vidine FLASH atmintis         : 33792 Baitai
;*****************************************************/
;
;signed int viena_sekunde1, viena_sekunde2,
;viena_sekunde4, penkios_minutes, viena_sekunde5, puse_sekundes;
;
;long int viena_minute5, viena_sekunde3,;
;
;
;char PILNAS,TUSCIAS,KROVIMAS,ISKROVIMAS,
;BATERIJOS_BUSENA; //AKUMOLIATORIAUS:
;
;char OSC;      //LED DAZNIS:
;
;char
;MYGTUKAS_1, MYGTUKAS_2, MYGTUKAS_3, MYGTUKAS_4,
;MYGTUKAS_5, MYGTUKAS_6, MYGTUKAS_7,
;MYGTUKAS_PASPAUSTAS;     //MYGTUKAI
;
;char segm_a, segm_b, segm_c, segm_d, segm_e,
;segm_f, segm_g, segm_h; // SEGMENTAI
;
;signed char LAIKRODIS, sekundes, minutes, desimtys_minutes,
;valandos, desimtys_valandos; // TIKRO LAIKO KINTAMIEJI
;
;char a; // DUOMENU NESEJO KINTAMASIS
;
;signed char x,y,z,k; // SKAMBUCIO NUSTATYMUI
;signed char a2,b2,c2,d2;//ISPEJAMAJAM SKAMBUCIUI(pries pamoka)
;
;signed char b,d,e,f,g,i; // UZLAIKYMO KINTAMIEJI
;
;signed char REDAGAVIMAS, REDAG_SK_NR,
;EILUTES_SKAICIUS, EIL_SK; // PIRMINIAI KINTAMIEJI
;
;char BLYKCIOTI; // KAI REDAGAVIMAS:
;
;char PENKIOLIKA_SEKUNDZIU;// KAI PASIJUNGIA PARASO "HELLO"
;
;char DESIMT_SEKUNDZIU;//KAI TIKRAS LAIKAS RODOMAS:
;
;char SKAMBUTIS_TURETU_SKAMBETI,
;Sesios_sekundes, SKAMBUTIS_SKAMBA,
;ISPEJAMASIS_SKAMBUTIS; // SKAMBUCIO RELES PRITRAUKIMUI
;
;signed char DB_LAIKO_RODYMAS, UZRAKINTA,UZRAKTO_KODAS_1,
;UZRAKTO_KODAS_2,UZRAKTO_KODAS_3,UZRAKTO_KODAS_4, REDAG_UZRAKT_SKAIC,
;a1,b1,c1,d1; //     UZRAKTAS
;
;char KELINTADIENIO_PERZIURA, KELINTADIENIS;
;signed char KELINTADIENIO_REDAGAVIMAS; // KELINTADIENIS
;
;
;signed char // Standartiniai skambucio laikai:
;SKAMBUTIS_1dh, SKAMBUTIS_1h, SKAMBUTIS_1dm, SKAMBUTIS_1m,
;SKAMBUTIS_2dh, SKAMBUTIS_2h, SKAMBUTIS_2dm, SKAMBUTIS_2m,
;SKAMBUTIS_3dh, SKAMBUTIS_3h, SKAMBUTIS_3dm, SKAMBUTIS_3m,
;SKAMBUTIS_4dh, SKAMBUTIS_4h, SKAMBUTIS_4dm, SKAMBUTIS_4m,
;SKAMBUTIS_5dh, SKAMBUTIS_5h, SKAMBUTIS_5dm, SKAMBUTIS_5m,
;SKAMBUTIS_6dh, SKAMBUTIS_6h, SKAMBUTIS_6dm, SKAMBUTIS_6m,
;SKAMBUTIS_7dh, SKAMBUTIS_7h, SKAMBUTIS_7dm, SKAMBUTIS_7m,
;SKAMBUTIS_8dh, SKAMBUTIS_8h, SKAMBUTIS_8dm, SKAMBUTIS_8m,
;SKAMBUTIS_9dh, SKAMBUTIS_9h, SKAMBUTIS_9dm, SKAMBUTIS_9m,
;SKAMBUTIS_10dh,SKAMBUTIS_10h,SKAMBUTIS_10dm,SKAMBUTIS_10m,
;SKAMBUTIS_11dh,SKAMBUTIS_11h,SKAMBUTIS_11dm,SKAMBUTIS_11m,
;SKAMBUTIS_12dh,SKAMBUTIS_12h,SKAMBUTIS_12dm,SKAMBUTIS_12m,
;SKAMBUTIS_13dh,SKAMBUTIS_13h,SKAMBUTIS_13dm,SKAMBUTIS_13m,
;SKAMBUTIS_14dh,SKAMBUTIS_14h,SKAMBUTIS_14dm,SKAMBUTIS_14m,
;SKAMBUTIS_15dh,SKAMBUTIS_15h,SKAMBUTIS_15dm,SKAMBUTIS_15m,
;SKAMBUTIS_16dh,SKAMBUTIS_16h,SKAMBUTIS_16dm,SKAMBUTIS_16m,
;SKAMBUTIS_17dh,SKAMBUTIS_17h,SKAMBUTIS_17dm,SKAMBUTIS_17m,
;SKAMBUTIS_18dh,SKAMBUTIS_18h,SKAMBUTIS_18dm,SKAMBUTIS_18m,
;SKAMBUTIS_19dh,SKAMBUTIS_19h,SKAMBUTIS_19dm,SKAMBUTIS_19m,
;SKAMBUTIS_20dh,SKAMBUTIS_20h,SKAMBUTIS_20dm,SKAMBUTIS_20m;
;
;
;
;
;#include <mega32.h>
	#ifndef __SLEEP_DEFINED__
	#define __SLEEP_DEFINED__
	.EQU __se_bit=0x80
	.EQU __sm_mask=0x70
	.EQU __sm_powerdown=0x20
	.EQU __sm_powersave=0x30
	.EQU __sm_standby=0x60
	.EQU __sm_ext_standby=0x70
	.EQU __sm_adc_noise_red=0x10
	.SET power_ctrl_reg=mcucr
	#endif
;#include <delay.h>
;void main(void)
; 0000 0060 {

	.CSEG
_main:
; 0000 0061 PORTA = 0;
	LDI  R30,LOW(0)
	OUT  0x1B,R30
; 0000 0062 DDRA = 0b10011000;
	LDI  R30,LOW(152)
	OUT  0x1A,R30
; 0000 0063 
; 0000 0064 PORTB = 0;
	LDI  R30,LOW(0)
	OUT  0x18,R30
; 0000 0065 
; 0000 0066 DDRB = 0b11111111;
	LDI  R30,LOW(255)
	OUT  0x17,R30
; 0000 0067 
; 0000 0068 PORTC = 0x00;
	LDI  R30,LOW(0)
	OUT  0x15,R30
; 0000 0069 DDRC = 0b11111110;
	LDI  R30,LOW(254)
	OUT  0x14,R30
; 0000 006A 
; 0000 006B PORTD=0x00;
	LDI  R30,LOW(0)
	OUT  0x12,R30
; 0000 006C DDRD = 0b11111111;
	LDI  R30,LOW(255)
	OUT  0x11,R30
; 0000 006D 
; 0000 006E TCCR0=0x00;
	LDI  R30,LOW(0)
	OUT  0x33,R30
; 0000 006F TCNT0=0x00;
	OUT  0x32,R30
; 0000 0070 OCR0=0x00;
	OUT  0x3C,R30
; 0000 0071 
; 0000 0072 TCCR1A=0x00;
	OUT  0x2F,R30
; 0000 0073 TCCR1B=0x00;
	OUT  0x2E,R30
; 0000 0074 TCNT1H=0x00;
	OUT  0x2D,R30
; 0000 0075 TCNT1L=0x00;
	OUT  0x2C,R30
; 0000 0076 ICR1H=0x00;
	OUT  0x27,R30
; 0000 0077 ICR1L=0x00;
	OUT  0x26,R30
; 0000 0078 OCR1AH=0x00;
	OUT  0x2B,R30
; 0000 0079 OCR1AL=0x00;
	OUT  0x2A,R30
; 0000 007A OCR1BH=0x00;
	OUT  0x29,R30
; 0000 007B OCR1BL=0x00;
	OUT  0x28,R30
; 0000 007C 
; 0000 007D ASSR=0x00;
	OUT  0x22,R30
; 0000 007E TCCR2=0x00;
	OUT  0x25,R30
; 0000 007F TCNT2=0x00;
	OUT  0x24,R30
; 0000 0080 OCR2=0x00;
	OUT  0x23,R30
; 0000 0081 
; 0000 0082 MCUCR=0x00;
	OUT  0x35,R30
; 0000 0083 MCUCSR=0x00;
	OUT  0x34,R30
; 0000 0084 
; 0000 0085 TIMSK=0x00;
	OUT  0x39,R30
; 0000 0086 
; 0000 0087 ACSR=0x00;
	OUT  0x8,R30
; 0000 0088 SFIOR=0x00;
	OUT  0x30,R30
; 0000 0089 
; 0000 008A 
; 0000 008B 
; 0000 008C // STANDARTINIS LAIKAS:
; 0000 008D SKAMBUTIS_1dh = 0;
	STS  _SKAMBUTIS_1dh,R30
; 0000 008E SKAMBUTIS_1h  = 8;
	LDI  R30,LOW(8)
	STS  _SKAMBUTIS_1h,R30
; 0000 008F SKAMBUTIS_1dm = 0;        // 8:00
	LDI  R30,LOW(0)
	STS  _SKAMBUTIS_1dm,R30
; 0000 0090 SKAMBUTIS_1m  = 0;
	STS  _SKAMBUTIS_1m,R30
; 0000 0091 
; 0000 0092 SKAMBUTIS_2dh = 0;
	STS  _SKAMBUTIS_2dh,R30
; 0000 0093 SKAMBUTIS_2h  = 8;
	LDI  R30,LOW(8)
	STS  _SKAMBUTIS_2h,R30
; 0000 0094 SKAMBUTIS_2dm = 4;        // 8:45
	LDI  R30,LOW(4)
	STS  _SKAMBUTIS_2dm,R30
; 0000 0095 SKAMBUTIS_2m  = 5;
	LDI  R30,LOW(5)
	STS  _SKAMBUTIS_2m,R30
; 0000 0096 
; 0000 0097 SKAMBUTIS_3dh = 0;
	LDI  R30,LOW(0)
	STS  _SKAMBUTIS_3dh,R30
; 0000 0098 SKAMBUTIS_3h  = 8;
	LDI  R30,LOW(8)
	STS  _SKAMBUTIS_3h,R30
; 0000 0099 SKAMBUTIS_3dm = 5;        // 8:55
	LDI  R30,LOW(5)
	STS  _SKAMBUTIS_3dm,R30
; 0000 009A SKAMBUTIS_3m  = 5;
	STS  _SKAMBUTIS_3m,R30
; 0000 009B 
; 0000 009C SKAMBUTIS_4dh = 0;
	LDI  R30,LOW(0)
	STS  _SKAMBUTIS_4dh,R30
; 0000 009D SKAMBUTIS_4h  = 9;
	LDI  R30,LOW(9)
	STS  _SKAMBUTIS_4h,R30
; 0000 009E SKAMBUTIS_4dm = 4;        // 9:40
	LDI  R30,LOW(4)
	STS  _SKAMBUTIS_4dm,R30
; 0000 009F SKAMBUTIS_4m  = 0;
	LDI  R30,LOW(0)
	STS  _SKAMBUTIS_4m,R30
; 0000 00A0 
; 0000 00A1 SKAMBUTIS_5dh = 1;
	LDI  R30,LOW(1)
	STS  _SKAMBUTIS_5dh,R30
; 0000 00A2 SKAMBUTIS_5h  = 0;
	LDI  R30,LOW(0)
	STS  _SKAMBUTIS_5h,R30
; 0000 00A3 SKAMBUTIS_5dm = 0;        // 10:00
	STS  _SKAMBUTIS_5dm,R30
; 0000 00A4 SKAMBUTIS_5m  = 0;
	STS  _SKAMBUTIS_5m,R30
; 0000 00A5 
; 0000 00A6 SKAMBUTIS_6dh = 1;
	LDI  R30,LOW(1)
	STS  _SKAMBUTIS_6dh,R30
; 0000 00A7 SKAMBUTIS_6h  = 0;
	LDI  R30,LOW(0)
	STS  _SKAMBUTIS_6h,R30
; 0000 00A8 SKAMBUTIS_6dm = 4;        // 10:45
	LDI  R30,LOW(4)
	STS  _SKAMBUTIS_6dm,R30
; 0000 00A9 SKAMBUTIS_6m  = 5;
	LDI  R30,LOW(5)
	STS  _SKAMBUTIS_6m,R30
; 0000 00AA 
; 0000 00AB SKAMBUTIS_7dh = 1;
	LDI  R30,LOW(1)
	STS  _SKAMBUTIS_7dh,R30
; 0000 00AC SKAMBUTIS_7h  = 1;
	STS  _SKAMBUTIS_7h,R30
; 0000 00AD SKAMBUTIS_7dm = 0;        // 11:05
	LDI  R30,LOW(0)
	STS  _SKAMBUTIS_7dm,R30
; 0000 00AE SKAMBUTIS_7m  = 5;
	LDI  R30,LOW(5)
	STS  _SKAMBUTIS_7m,R30
; 0000 00AF 
; 0000 00B0 SKAMBUTIS_8dh = 1;
	LDI  R30,LOW(1)
	STS  _SKAMBUTIS_8dh,R30
; 0000 00B1 SKAMBUTIS_8h  = 1;
	STS  _SKAMBUTIS_8h,R30
; 0000 00B2 SKAMBUTIS_8dm = 5;        // 11:50
	LDI  R30,LOW(5)
	STS  _SKAMBUTIS_8dm,R30
; 0000 00B3 SKAMBUTIS_8m  = 0;
	LDI  R30,LOW(0)
	STS  _SKAMBUTIS_8m,R30
; 0000 00B4 
; 0000 00B5 SKAMBUTIS_9dh = 1;
	LDI  R30,LOW(1)
	STS  _SKAMBUTIS_9dh,R30
; 0000 00B6 SKAMBUTIS_9h  = 2;
	LDI  R30,LOW(2)
	STS  _SKAMBUTIS_9h,R30
; 0000 00B7 SKAMBUTIS_9dm = 0;        // 12:00
	LDI  R30,LOW(0)
	STS  _SKAMBUTIS_9dm,R30
; 0000 00B8 SKAMBUTIS_9m  = 0;
	STS  _SKAMBUTIS_9m,R30
; 0000 00B9 
; 0000 00BA SKAMBUTIS_10dh = 1;
	LDI  R30,LOW(1)
	STS  _SKAMBUTIS_10dh,R30
; 0000 00BB SKAMBUTIS_10h  = 2;
	LDI  R30,LOW(2)
	STS  _SKAMBUTIS_10h,R30
; 0000 00BC SKAMBUTIS_10dm = 4;       // 12:45
	LDI  R30,LOW(4)
	STS  _SKAMBUTIS_10dm,R30
; 0000 00BD SKAMBUTIS_10m  = 5;
	LDI  R30,LOW(5)
	STS  _SKAMBUTIS_10m,R30
; 0000 00BE 
; 0000 00BF SKAMBUTIS_11dh = 1;
	LDI  R30,LOW(1)
	STS  _SKAMBUTIS_11dh,R30
; 0000 00C0 SKAMBUTIS_11h  = 2;
	LDI  R30,LOW(2)
	STS  _SKAMBUTIS_11h,R30
; 0000 00C1 SKAMBUTIS_11dm = 5;       // 12:55
	LDI  R30,LOW(5)
	STS  _SKAMBUTIS_11dm,R30
; 0000 00C2 SKAMBUTIS_11m  = 5;
	STS  _SKAMBUTIS_11m,R30
; 0000 00C3 
; 0000 00C4 SKAMBUTIS_12dh = 1;
	LDI  R30,LOW(1)
	STS  _SKAMBUTIS_12dh,R30
; 0000 00C5 SKAMBUTIS_12h  = 3;
	LDI  R30,LOW(3)
	STS  _SKAMBUTIS_12h,R30
; 0000 00C6 SKAMBUTIS_12dm = 4;       // 13:40
	LDI  R30,LOW(4)
	STS  _SKAMBUTIS_12dm,R30
; 0000 00C7 SKAMBUTIS_12m  = 0;
	LDI  R30,LOW(0)
	STS  _SKAMBUTIS_12m,R30
; 0000 00C8 
; 0000 00C9 SKAMBUTIS_13dh = 1;
	LDI  R30,LOW(1)
	STS  _SKAMBUTIS_13dh,R30
; 0000 00CA SKAMBUTIS_13h  = 3;
	LDI  R30,LOW(3)
	STS  _SKAMBUTIS_13h,R30
; 0000 00CB SKAMBUTIS_13dm = 5;       // 13:50
	LDI  R30,LOW(5)
	STS  _SKAMBUTIS_13dm,R30
; 0000 00CC SKAMBUTIS_13m  = 0;
	LDI  R30,LOW(0)
	STS  _SKAMBUTIS_13m,R30
; 0000 00CD 
; 0000 00CE SKAMBUTIS_14dh = 1;
	LDI  R30,LOW(1)
	STS  _SKAMBUTIS_14dh,R30
; 0000 00CF SKAMBUTIS_14h  = 4;
	LDI  R30,LOW(4)
	STS  _SKAMBUTIS_14h,R30
; 0000 00D0 SKAMBUTIS_14dm = 3;       // 14:35
	LDI  R30,LOW(3)
	STS  _SKAMBUTIS_14dm,R30
; 0000 00D1 SKAMBUTIS_14m  = 5;
	LDI  R30,LOW(5)
	STS  _SKAMBUTIS_14m,R30
; 0000 00D2 
; 0000 00D3 SKAMBUTIS_15dh = 1;
	LDI  R30,LOW(1)
	STS  _SKAMBUTIS_15dh,R30
; 0000 00D4 SKAMBUTIS_15h  = 4;
	LDI  R30,LOW(4)
	STS  _SKAMBUTIS_15h,R30
; 0000 00D5 SKAMBUTIS_15dm = 4;       // 14:40
	STS  _SKAMBUTIS_15dm,R30
; 0000 00D6 SKAMBUTIS_15m  = 0;
	LDI  R30,LOW(0)
	STS  _SKAMBUTIS_15m,R30
; 0000 00D7 
; 0000 00D8 SKAMBUTIS_16dh = 1;
	LDI  R30,LOW(1)
	STS  _SKAMBUTIS_16dh,R30
; 0000 00D9 SKAMBUTIS_16h  = 5;
	LDI  R30,LOW(5)
	STS  _SKAMBUTIS_16h,R30
; 0000 00DA SKAMBUTIS_16dm = 2;       // 15:25
	LDI  R30,LOW(2)
	STS  _SKAMBUTIS_16dm,R30
; 0000 00DB SKAMBUTIS_16m  = 5;
	LDI  R30,LOW(5)
	STS  _SKAMBUTIS_16m,R30
; 0000 00DC 
; 0000 00DD SKAMBUTIS_17dh = 1;
	LDI  R30,LOW(1)
	STS  _SKAMBUTIS_17dh,R30
; 0000 00DE SKAMBUTIS_17h  = 5;
	LDI  R30,LOW(5)
	STS  _SKAMBUTIS_17h,R30
; 0000 00DF SKAMBUTIS_17dm = 3;       // 15:30
	LDI  R30,LOW(3)
	STS  _SKAMBUTIS_17dm,R30
; 0000 00E0 SKAMBUTIS_17m  = 0;
	LDI  R30,LOW(0)
	STS  _SKAMBUTIS_17m,R30
; 0000 00E1 
; 0000 00E2 SKAMBUTIS_18dh = 1;
	LDI  R30,LOW(1)
	STS  _SKAMBUTIS_18dh,R30
; 0000 00E3 SKAMBUTIS_18h  = 6;
	LDI  R30,LOW(6)
	STS  _SKAMBUTIS_18h,R30
; 0000 00E4 SKAMBUTIS_18dm = 1;       // 16:15
	LDI  R30,LOW(1)
	STS  _SKAMBUTIS_18dm,R30
; 0000 00E5 SKAMBUTIS_18m  = 5;
	LDI  R30,LOW(5)
	STS  _SKAMBUTIS_18m,R30
; 0000 00E6 
; 0000 00E7 SKAMBUTIS_19dh = 1;
	LDI  R30,LOW(1)
	STS  _SKAMBUTIS_19dh,R30
; 0000 00E8 SKAMBUTIS_19h  = 6;
	LDI  R30,LOW(6)
	STS  _SKAMBUTIS_19h,R30
; 0000 00E9 SKAMBUTIS_19dm = 2;       // 16:20
	LDI  R30,LOW(2)
	STS  _SKAMBUTIS_19dm,R30
; 0000 00EA SKAMBUTIS_19m  = 0;
	LDI  R30,LOW(0)
	STS  _SKAMBUTIS_19m,R30
; 0000 00EB 
; 0000 00EC 
; 0000 00ED SKAMBUTIS_20dh = 1;
	LDI  R30,LOW(1)
	STS  _SKAMBUTIS_20dh,R30
; 0000 00EE SKAMBUTIS_20h  = 7;
	LDI  R30,LOW(7)
	STS  _SKAMBUTIS_20h,R30
; 0000 00EF SKAMBUTIS_20dm = 0;       // 17:05
	LDI  R30,LOW(0)
	STS  _SKAMBUTIS_20dm,R30
; 0000 00F0 SKAMBUTIS_20m  = 5;
	LDI  R30,LOW(5)
	STS  _SKAMBUTIS_20m,R30
; 0000 00F1 
; 0000 00F2 UZRAKINTA = 1;
	LDI  R30,LOW(1)
	STS  _UZRAKINTA,R30
; 0000 00F3 KELINTADIENIS = 1;
	STS  _KELINTADIENIS,R30
; 0000 00F4 
; 0000 00F5 
; 0000 00F6 
; 0000 00F7 
; 0000 00F8 
; 0000 00F9 UZRAKTO_KODAS_1 = 1;
	STS  _UZRAKTO_KODAS_1,R30
; 0000 00FA UZRAKTO_KODAS_2 = 9;
	LDI  R30,LOW(9)
	STS  _UZRAKTO_KODAS_2,R30
; 0000 00FB UZRAKTO_KODAS_3 = 1;      //UZRAKTO KODAS
	LDI  R30,LOW(1)
	STS  _UZRAKTO_KODAS_3,R30
; 0000 00FC UZRAKTO_KODAS_4 = 9;
	LDI  R30,LOW(9)
	STS  _UZRAKTO_KODAS_4,R30
; 0000 00FD 
; 0000 00FE 
; 0000 00FF       do{
_0x4:
; 0000 0100       DB_LAIKO_RODYMAS = 1;
	LDI  R30,LOW(1)
	STS  _DB_LAIKO_RODYMAS,R30
; 0000 0101       OSC = OSC + 1 ;
	LDS  R30,_OSC
	SUBI R30,-LOW(1)
	STS  _OSC,R30
; 0000 0102       delay_us(10);
	__DELAY_USB 27
; 0000 0103       if(OSC==32){
	LDS  R26,_OSC
	CPI  R26,LOW(0x20)
	BRNE _0x6
; 0000 0104       OSC=0;}
	LDI  R30,LOW(0)
	STS  _OSC,R30
; 0000 0105 
; 0000 0106 
; 0000 0107       if(PENKIOLIKA_SEKUNDZIU<15){
_0x6:
	LDS  R26,_PENKIOLIKA_SEKUNDZIU
	CPI  R26,LOW(0xF)
	BRSH _0x7
; 0000 0108       viena_sekunde2 = viena_sekunde2 + 1;
	MOVW R30,R6
	ADIW R30,1
	MOVW R6,R30
; 0000 0109       if(viena_sekunde2==1300){
	LDI  R30,LOW(1300)
	LDI  R31,HIGH(1300)
	CP   R30,R6
	CPC  R31,R7
	BRNE _0x8
; 0000 010A       PENKIOLIKA_SEKUNDZIU = PENKIOLIKA_SEKUNDZIU + 1;
	LDS  R30,_PENKIOLIKA_SEKUNDZIU
	SUBI R30,-LOW(1)
	STS  _PENKIOLIKA_SEKUNDZIU,R30
; 0000 010B       viena_sekunde2 = 0;}}
	CLR  R6
	CLR  R7
_0x8:
; 0000 010C 
; 0000 010D       if(PENKIOLIKA_SEKUNDZIU==2){
_0x7:
	LDS  R26,_PENKIOLIKA_SEKUNDZIU
	CPI  R26,LOW(0x2)
	BRNE _0x9
; 0000 010E       if(OSC==28){
	LDS  R26,_OSC
	CPI  R26,LOW(0x1C)
	BRNE _0xA
; 0000 010F       a = 17;}}
	LDI  R30,LOW(17)
	STS  _a,R30
_0xA:
; 0000 0110       if(PENKIOLIKA_SEKUNDZIU==3){
_0x9:
	LDS  R26,_PENKIOLIKA_SEKUNDZIU
	CPI  R26,LOW(0x3)
	BRNE _0xB
; 0000 0111       if(OSC==24){
	LDS  R26,_OSC
	CPI  R26,LOW(0x18)
	BRNE _0xC
; 0000 0112       a = 17;}
	LDI  R30,LOW(17)
	STS  _a,R30
; 0000 0113       if(OSC==28){
_0xC:
	LDS  R26,_OSC
	CPI  R26,LOW(0x1C)
	BRNE _0xD
; 0000 0114       a = 15;}}
	LDI  R30,LOW(15)
	STS  _a,R30
_0xD:
; 0000 0115       if(PENKIOLIKA_SEKUNDZIU==4){
_0xB:
	LDS  R26,_PENKIOLIKA_SEKUNDZIU
	CPI  R26,LOW(0x4)
	BRNE _0xE
; 0000 0116       if(OSC==20){
	LDS  R26,_OSC
	CPI  R26,LOW(0x14)
	BRNE _0xF
; 0000 0117       a = 17;}
	LDI  R30,LOW(17)
	STS  _a,R30
; 0000 0118       if(OSC==24){
_0xF:
	LDS  R26,_OSC
	CPI  R26,LOW(0x18)
	BRNE _0x10
; 0000 0119       a = 15;}
	LDI  R30,LOW(15)
	STS  _a,R30
; 0000 011A       if(OSC==28){
_0x10:
	LDS  R26,_OSC
	CPI  R26,LOW(0x1C)
	BRNE _0x11
; 0000 011B       a = 22;}}
	LDI  R30,LOW(22)
	STS  _a,R30
_0x11:
; 0000 011C       if(PENKIOLIKA_SEKUNDZIU==5){
_0xE:
	LDS  R26,_PENKIOLIKA_SEKUNDZIU
	CPI  R26,LOW(0x5)
	BRNE _0x12
; 0000 011D       if(OSC==16){
	LDS  R26,_OSC
	CPI  R26,LOW(0x10)
	BRNE _0x13
; 0000 011E       a = 17;}
	LDI  R30,LOW(17)
	STS  _a,R30
; 0000 011F       if(OSC==20){
_0x13:
	LDS  R26,_OSC
	CPI  R26,LOW(0x14)
	BRNE _0x14
; 0000 0120       a = 15;}
	LDI  R30,LOW(15)
	STS  _a,R30
; 0000 0121       if(OSC==24){
_0x14:
	LDS  R26,_OSC
	CPI  R26,LOW(0x18)
	BRNE _0x15
; 0000 0122       a = 22;}
	LDI  R30,LOW(22)
	STS  _a,R30
; 0000 0123       if(OSC==28){
_0x15:
	LDS  R26,_OSC
	CPI  R26,LOW(0x1C)
	BRNE _0x16
; 0000 0124       a = 22;}}
	LDI  R30,LOW(22)
	STS  _a,R30
_0x16:
; 0000 0125       if(PENKIOLIKA_SEKUNDZIU==6){
_0x12:
	LDS  R26,_PENKIOLIKA_SEKUNDZIU
	CPI  R26,LOW(0x6)
	BRNE _0x17
; 0000 0126       if(OSC==12){
	LDS  R26,_OSC
	CPI  R26,LOW(0xC)
	BRNE _0x18
; 0000 0127       a = 17;}
	LDI  R30,LOW(17)
	STS  _a,R30
; 0000 0128       if(OSC==16){
_0x18:
	LDS  R26,_OSC
	CPI  R26,LOW(0x10)
	BRNE _0x19
; 0000 0129       a = 15;}
	LDI  R30,LOW(15)
	STS  _a,R30
; 0000 012A       if(OSC==20){
_0x19:
	LDS  R26,_OSC
	CPI  R26,LOW(0x14)
	BRNE _0x1A
; 0000 012B       a = 22;}
	LDI  R30,LOW(22)
	STS  _a,R30
; 0000 012C       if(OSC==24){
_0x1A:
	LDS  R26,_OSC
	CPI  R26,LOW(0x18)
	BRNE _0x1B
; 0000 012D       a = 22;}
	LDI  R30,LOW(22)
	STS  _a,R30
; 0000 012E       if(OSC==28){
_0x1B:
	LDS  R26,_OSC
	CPI  R26,LOW(0x1C)
	BRNE _0x1C
; 0000 012F       a = 0;}}
	LDI  R30,LOW(0)
	STS  _a,R30
_0x1C:
; 0000 0130       if(PENKIOLIKA_SEKUNDZIU==7){
_0x17:
	LDS  R26,_PENKIOLIKA_SEKUNDZIU
	CPI  R26,LOW(0x7)
	BRNE _0x1D
; 0000 0131       if(OSC==8){
	LDS  R26,_OSC
	CPI  R26,LOW(0x8)
	BRNE _0x1E
; 0000 0132       a = 17;}
	LDI  R30,LOW(17)
	STS  _a,R30
; 0000 0133       if(OSC==12){
_0x1E:
	LDS  R26,_OSC
	CPI  R26,LOW(0xC)
	BRNE _0x1F
; 0000 0134       a = 15;}
	LDI  R30,LOW(15)
	STS  _a,R30
; 0000 0135       if(OSC==16){
_0x1F:
	LDS  R26,_OSC
	CPI  R26,LOW(0x10)
	BRNE _0x20
; 0000 0136       a = 22;}
	LDI  R30,LOW(22)
	STS  _a,R30
; 0000 0137       if(OSC==20){
_0x20:
	LDS  R26,_OSC
	CPI  R26,LOW(0x14)
	BRNE _0x21
; 0000 0138       a = 22;}
	LDI  R30,LOW(22)
	STS  _a,R30
; 0000 0139       if(OSC==24){
_0x21:
	LDS  R26,_OSC
	CPI  R26,LOW(0x18)
	BRNE _0x22
; 0000 013A       a = 0;}}
	LDI  R30,LOW(0)
	STS  _a,R30
_0x22:
; 0000 013B       if(PENKIOLIKA_SEKUNDZIU==8){
_0x1D:
	LDS  R26,_PENKIOLIKA_SEKUNDZIU
	CPI  R26,LOW(0x8)
	BRNE _0x23
; 0000 013C       if(OSC==4){
	LDS  R26,_OSC
	CPI  R26,LOW(0x4)
	BRNE _0x24
; 0000 013D       a = 17;}
	LDI  R30,LOW(17)
	STS  _a,R30
; 0000 013E       if(OSC==8){
_0x24:
	LDS  R26,_OSC
	CPI  R26,LOW(0x8)
	BRNE _0x25
; 0000 013F       a = 15;}
	LDI  R30,LOW(15)
	STS  _a,R30
; 0000 0140       if(OSC==12){
_0x25:
	LDS  R26,_OSC
	CPI  R26,LOW(0xC)
	BRNE _0x26
; 0000 0141       a = 22;}
	LDI  R30,LOW(22)
	STS  _a,R30
; 0000 0142       if(OSC==16){
_0x26:
	LDS  R26,_OSC
	CPI  R26,LOW(0x10)
	BRNE _0x27
; 0000 0143       a = 22;}
	LDI  R30,LOW(22)
	STS  _a,R30
; 0000 0144       if(OSC==20){
_0x27:
	LDS  R26,_OSC
	CPI  R26,LOW(0x14)
	BRNE _0x28
; 0000 0145       a = 0;}}
	LDI  R30,LOW(0)
	STS  _a,R30
_0x28:
; 0000 0146       if(PENKIOLIKA_SEKUNDZIU==9){
_0x23:
	LDS  R26,_PENKIOLIKA_SEKUNDZIU
	CPI  R26,LOW(0x9)
	BRNE _0x29
; 0000 0147       if(OSC==0){
	LDS  R30,_OSC
	CPI  R30,0
	BRNE _0x2A
; 0000 0148       a = 17;}
	LDI  R30,LOW(17)
	STS  _a,R30
; 0000 0149       if(OSC==4){
_0x2A:
	LDS  R26,_OSC
	CPI  R26,LOW(0x4)
	BRNE _0x2B
; 0000 014A       a = 15;}
	LDI  R30,LOW(15)
	STS  _a,R30
; 0000 014B       if(OSC==8){
_0x2B:
	LDS  R26,_OSC
	CPI  R26,LOW(0x8)
	BRNE _0x2C
; 0000 014C       a = 22;}
	LDI  R30,LOW(22)
	STS  _a,R30
; 0000 014D       if(OSC==12){
_0x2C:
	LDS  R26,_OSC
	CPI  R26,LOW(0xC)
	BRNE _0x2D
; 0000 014E       a = 22;}
	LDI  R30,LOW(22)
	STS  _a,R30
; 0000 014F       if(OSC==16){
_0x2D:
	LDS  R26,_OSC
	CPI  R26,LOW(0x10)
	BRNE _0x2E
; 0000 0150       a = 0;}}
	LDI  R30,LOW(0)
	STS  _a,R30
_0x2E:
; 0000 0151       if(PENKIOLIKA_SEKUNDZIU==10){
_0x29:
	LDS  R26,_PENKIOLIKA_SEKUNDZIU
	CPI  R26,LOW(0xA)
	BRNE _0x2F
; 0000 0152       if(OSC==0){
	LDS  R30,_OSC
	CPI  R30,0
	BRNE _0x30
; 0000 0153       a = 15;}
	LDI  R30,LOW(15)
	STS  _a,R30
; 0000 0154       if(OSC==4){
_0x30:
	LDS  R26,_OSC
	CPI  R26,LOW(0x4)
	BRNE _0x31
; 0000 0155       a = 22;}
	LDI  R30,LOW(22)
	STS  _a,R30
; 0000 0156       if(OSC==8){
_0x31:
	LDS  R26,_OSC
	CPI  R26,LOW(0x8)
	BRNE _0x32
; 0000 0157       a = 22;}
	LDI  R30,LOW(22)
	STS  _a,R30
; 0000 0158       if(OSC==12){
_0x32:
	LDS  R26,_OSC
	CPI  R26,LOW(0xC)
	BRNE _0x33
; 0000 0159       a = 0;}}
	LDI  R30,LOW(0)
	STS  _a,R30
_0x33:
; 0000 015A       if(PENKIOLIKA_SEKUNDZIU==11){
_0x2F:
	LDS  R26,_PENKIOLIKA_SEKUNDZIU
	CPI  R26,LOW(0xB)
	BRNE _0x34
; 0000 015B       if(OSC==0){
	LDS  R30,_OSC
	CPI  R30,0
	BRNE _0x35
; 0000 015C       a = 22;}
	LDI  R30,LOW(22)
	STS  _a,R30
; 0000 015D       if(OSC==4){
_0x35:
	LDS  R26,_OSC
	CPI  R26,LOW(0x4)
	BRNE _0x36
; 0000 015E       a = 22;}
	LDI  R30,LOW(22)
	STS  _a,R30
; 0000 015F       if(OSC==8){
_0x36:
	LDS  R26,_OSC
	CPI  R26,LOW(0x8)
	BRNE _0x37
; 0000 0160       a = 0;}}
	LDI  R30,LOW(0)
	STS  _a,R30
_0x37:
; 0000 0161       if(PENKIOLIKA_SEKUNDZIU==12){
_0x34:
	LDS  R26,_PENKIOLIKA_SEKUNDZIU
	CPI  R26,LOW(0xC)
	BRNE _0x38
; 0000 0162       if(OSC==0){
	LDS  R30,_OSC
	CPI  R30,0
	BRNE _0x39
; 0000 0163       a = 22;}
	LDI  R30,LOW(22)
	STS  _a,R30
; 0000 0164       if(OSC==4){
_0x39:
	LDS  R26,_OSC
	CPI  R26,LOW(0x4)
	BRNE _0x3A
; 0000 0165       a = 0;}}
	LDI  R30,LOW(0)
	STS  _a,R30
_0x3A:
; 0000 0166       if(PENKIOLIKA_SEKUNDZIU==13){
_0x38:
	LDS  R26,_PENKIOLIKA_SEKUNDZIU
	CPI  R26,LOW(0xD)
	BRNE _0x3B
; 0000 0167       if(OSC==0){
	LDS  R30,_OSC
	CPI  R30,0
	BRNE _0x3C
; 0000 0168       a = 0;}}
	LDI  R30,LOW(0)
	STS  _a,R30
_0x3C:
; 0000 0169 
; 0000 016A       if(PENKIOLIKA_SEKUNDZIU==15){
_0x3B:
	LDS  R26,_PENKIOLIKA_SEKUNDZIU
	CPI  R26,LOW(0xF)
	BREQ PC+3
	JMP _0x3D
; 0000 016B       //           IEJIMAI ==> KINTAMIEJI(MYGTUKAI)
; 0000 016C       {if((PINA.2==0)&&(PINA.1==1)&&(PINA.0==1)&&(b==0)){
	CALL SUBOPT_0x0
	BRNE _0x3F
	SBIS 0x19,1
	RJMP _0x3F
	SBIS 0x19,0
	RJMP _0x3F
	LDS  R26,_b
	CPI  R26,LOW(0x0)
	BREQ _0x40
_0x3F:
	RJMP _0x3E
_0x40:
; 0000 016D       MYGTUKAS_1 = 1;}
	LDI  R30,LOW(1)
	RJMP _0x333
; 0000 016E       else
_0x3E:
; 0000 016F       MYGTUKAS_1 = 0;}
	LDI  R30,LOW(0)
_0x333:
	STS  _MYGTUKAS_1,R30
; 0000 0170       {if((PINA.2==1)&&(PINA.1==0)&&(PINA.0==1)&&(b==0)){
	SBIS 0x19,2
	RJMP _0x43
	CALL SUBOPT_0x1
	BRNE _0x43
	SBIS 0x19,0
	RJMP _0x43
	LDS  R26,_b
	CPI  R26,LOW(0x0)
	BREQ _0x44
_0x43:
	RJMP _0x42
_0x44:
; 0000 0171       MYGTUKAS_2 = 1;}
	LDI  R30,LOW(1)
	RJMP _0x334
; 0000 0172       else
_0x42:
; 0000 0173       MYGTUKAS_2 = 0;}
	LDI  R30,LOW(0)
_0x334:
	STS  _MYGTUKAS_2,R30
; 0000 0174       {if((PINA.2==0)&&(PINA.1==0)&&(PINA.0==1)&&(b==0)){
	CALL SUBOPT_0x0
	BRNE _0x47
	CALL SUBOPT_0x1
	BRNE _0x47
	SBIS 0x19,0
	RJMP _0x47
	LDS  R26,_b
	CPI  R26,LOW(0x0)
	BREQ _0x48
_0x47:
	RJMP _0x46
_0x48:
; 0000 0175       MYGTUKAS_3 = 1;}
	LDI  R30,LOW(1)
	RJMP _0x335
; 0000 0176       else
_0x46:
; 0000 0177       MYGTUKAS_3 = 0;}
	LDI  R30,LOW(0)
_0x335:
	STS  _MYGTUKAS_3,R30
; 0000 0178       {if((PINA.2==1)&&(PINA.1==1)&&(PINA.0==0)&&(b==0)){
	SBIS 0x19,2
	RJMP _0x4B
	SBIS 0x19,1
	RJMP _0x4B
	CALL SUBOPT_0x2
	BRNE _0x4B
	LDS  R26,_b
	CPI  R26,LOW(0x0)
	BREQ _0x4C
_0x4B:
	RJMP _0x4A
_0x4C:
; 0000 0179       MYGTUKAS_4 = 1;}
	LDI  R30,LOW(1)
	RJMP _0x336
; 0000 017A       else
_0x4A:
; 0000 017B       MYGTUKAS_4 = 0;}
	LDI  R30,LOW(0)
_0x336:
	STS  _MYGTUKAS_4,R30
; 0000 017C       {if((PINA.2==0)&&(PINA.1==1)&&(PINA.0==0)&&(b==0)){
	CALL SUBOPT_0x0
	BRNE _0x4F
	SBIS 0x19,1
	RJMP _0x4F
	CALL SUBOPT_0x2
	BRNE _0x4F
	LDS  R26,_b
	CPI  R26,LOW(0x0)
	BREQ _0x50
_0x4F:
	RJMP _0x4E
_0x50:
; 0000 017D       MYGTUKAS_5 = 1;}
	LDI  R30,LOW(1)
	RJMP _0x337
; 0000 017E       else
_0x4E:
; 0000 017F       MYGTUKAS_5 = 0;}
	LDI  R30,LOW(0)
_0x337:
	STS  _MYGTUKAS_5,R30
; 0000 0180       {if((PINA.2==1)&&(PINA.1==0)&&(PINA.0==0)&&(b==0)){
	SBIS 0x19,2
	RJMP _0x53
	CALL SUBOPT_0x1
	BRNE _0x53
	CALL SUBOPT_0x2
	BRNE _0x53
	LDS  R26,_b
	CPI  R26,LOW(0x0)
	BREQ _0x54
_0x53:
	RJMP _0x52
_0x54:
; 0000 0181       MYGTUKAS_6 = 1;}
	LDI  R30,LOW(1)
	RJMP _0x338
; 0000 0182       else
_0x52:
; 0000 0183       MYGTUKAS_6 = 0;}
	LDI  R30,LOW(0)
_0x338:
	STS  _MYGTUKAS_6,R30
; 0000 0184       {if((PINA.2==0)&&(PINA.1==0)&&(PINA.0==0)&&(b==0)){
	CALL SUBOPT_0x0
	BRNE _0x57
	CALL SUBOPT_0x1
	BRNE _0x57
	CALL SUBOPT_0x2
	BRNE _0x57
	LDS  R26,_b
	CPI  R26,LOW(0x0)
	BREQ _0x58
_0x57:
	RJMP _0x56
_0x58:
; 0000 0185       MYGTUKAS_7 = 1;}
	LDI  R30,LOW(1)
	RJMP _0x339
; 0000 0186       else
_0x56:
; 0000 0187       MYGTUKAS_7 = 0;}
	LDI  R30,LOW(0)
_0x339:
	STS  _MYGTUKAS_7,R30
; 0000 0188 
; 0000 0189       {if((PINA.2==1)&&(PINA.1==1)&&(PINA.0==1)){
	SBIS 0x19,2
	RJMP _0x5B
	SBIS 0x19,1
	RJMP _0x5B
	SBIC 0x19,0
	RJMP _0x5C
_0x5B:
	RJMP _0x5A
_0x5C:
; 0000 018A       MYGTUKAS_PASPAUSTAS = 0;}
	LDI  R30,LOW(0)
	RJMP _0x33A
; 0000 018B       else
_0x5A:
; 0000 018C       MYGTUKAS_PASPAUSTAS = 1;}
	LDI  R30,LOW(1)
_0x33A:
	STS  _MYGTUKAS_PASPAUSTAS,R30
; 0000 018D 
; 0000 018E       {if(MYGTUKAS_PASPAUSTAS==1){
	LDS  R26,_MYGTUKAS_PASPAUSTAS
	CPI  R26,LOW(0x1)
	BRNE _0x5E
; 0000 018F       b = 1;}
	LDI  R30,LOW(1)
	RJMP _0x33B
; 0000 0190       else
_0x5E:
; 0000 0191       b = 0;}
	LDI  R30,LOW(0)
_0x33B:
	STS  _b,R30
; 0000 0192 
; 0000 0193       {if((PINC.0==1)&&(i==0)&&(REDAGAVIMAS==0)){
	SBIS 0x13,0
	RJMP _0x61
	LDS  R26,_i
	CPI  R26,LOW(0x0)
	BRNE _0x61
	LDS  R26,_REDAGAVIMAS
	CPI  R26,LOW(0x0)
	BREQ _0x62
_0x61:
	RJMP _0x60
_0x62:
; 0000 0194       LAIKRODIS = 1;
	LDI  R30,LOW(1)
	STS  _LAIKRODIS,R30
; 0000 0195       i = 1;}
	STS  _i,R30
; 0000 0196       else
	RJMP _0x63
_0x60:
; 0000 0197       LAIKRODIS = 0;}
	LDI  R30,LOW(0)
	STS  _LAIKRODIS,R30
_0x63:
; 0000 0198 
; 0000 0199       if(PINC.0==0){
	SBIC 0x13,0
	RJMP _0x64
; 0000 019A       i = 0;}
	LDI  R30,LOW(0)
	STS  _i,R30
; 0000 019B       //AKUMOLIATORIAUS KROVIMAS IR ISKROVIMAS:
; 0000 019C       {if(PINA.5==1){
_0x64:
	SBIS 0x19,5
	RJMP _0x65
; 0000 019D       PILNAS = 1;
	LDI  R30,LOW(1)
	STS  _PILNAS,R30
; 0000 019E       if(OSC==0){
	LDS  R30,_OSC
	CPI  R30,0
	BRNE _0x66
; 0000 019F       segm_h = 1;}}
	LDI  R30,LOW(1)
	STS  _segm_h,R30
_0x66:
; 0000 01A0       else
	RJMP _0x67
_0x65:
; 0000 01A1       PILNAS = 0;}
	LDI  R30,LOW(0)
	STS  _PILNAS,R30
_0x67:
; 0000 01A2 
; 0000 01A3       {if(PINA.6==0){
	SBIC 0x19,6
	RJMP _0x68
; 0000 01A4       TUSCIAS = 1;
	LDI  R30,LOW(1)
	STS  _TUSCIAS,R30
; 0000 01A5       if(OSC==4){
	LDS  R26,_OSC
	CPI  R26,LOW(0x4)
	BRNE _0x69
; 0000 01A6       segm_h = 1;}}
	STS  _segm_h,R30
_0x69:
; 0000 01A7       else
	RJMP _0x6A
_0x68:
; 0000 01A8       TUSCIAS = 0;}
	LDI  R30,LOW(0)
	STS  _TUSCIAS,R30
_0x6A:
; 0000 01A9 
; 0000 01AA       if(PILNAS==1){
	LDS  R26,_PILNAS
	CPI  R26,LOW(0x1)
	BRNE _0x6B
; 0000 01AB       KROVIMAS = 0;}
	LDI  R30,LOW(0)
	STS  _KROVIMAS,R30
; 0000 01AC 
; 0000 01AD       if(TUSCIAS==1){
_0x6B:
	LDS  R26,_TUSCIAS
	CPI  R26,LOW(0x1)
	BRNE _0x6C
; 0000 01AE       ISKROVIMAS = 0;
	LDI  R30,LOW(0)
	STS  _ISKROVIMAS,R30
; 0000 01AF       KROVIMAS = 1;}
	LDI  R30,LOW(1)
	STS  _KROVIMAS,R30
; 0000 01B0 
; 0000 01B1       if((KELINTADIENIS==6)&&(desimtys_valandos==0)&&(valandos==0)
_0x6C:
; 0000 01B2       &&(desimtys_minutes==0)&&(minutes==0)&&(KROVIMAS==0)){
	LDS  R26,_KELINTADIENIS
	CPI  R26,LOW(0x6)
	BRNE _0x6E
	LDS  R26,_desimtys_valandos
	CPI  R26,LOW(0x0)
	BRNE _0x6E
	LDS  R26,_valandos
	CPI  R26,LOW(0x0)
	BRNE _0x6E
	LDS  R26,_desimtys_minutes
	CPI  R26,LOW(0x0)
	BRNE _0x6E
	LDS  R26,_minutes
	CPI  R26,LOW(0x0)
	BRNE _0x6E
	LDS  R26,_KROVIMAS
	CPI  R26,LOW(0x0)
	BREQ _0x6F
_0x6E:
	RJMP _0x6D
_0x6F:
; 0000 01B3       ISKROVIMAS = 1;}
	LDI  R30,LOW(1)
	STS  _ISKROVIMAS,R30
; 0000 01B4 
; 0000 01B5 
; 0000 01B6       //KAI REDAGUOJAMAS TIKRAS LAIKAS IR TADA ISSAUGOJAMA sekundes = 0;
; 0000 01B7       if((EILUTES_SKAICIUS==0)&&(MYGTUKAS_3==1)&&(REDAGAVIMAS==1)){
_0x6D:
	LDS  R26,_EILUTES_SKAICIUS
	CPI  R26,LOW(0x0)
	BRNE _0x71
	LDS  R26,_MYGTUKAS_3
	CPI  R26,LOW(0x1)
	BRNE _0x71
	LDS  R26,_REDAGAVIMAS
	CPI  R26,LOW(0x1)
	BREQ _0x72
_0x71:
	RJMP _0x70
_0x72:
; 0000 01B8       sekundes = 0;}
	LDI  R30,LOW(0)
	STS  _sekundes,R30
; 0000 01B9       //                           UZRAKINIMAS:
; 0000 01BA 
; 0000 01BB       if((EILUTES_SKAICIUS==0)&&(MYGTUKAS_7==1)&&
_0x70:
; 0000 01BC       (KELINTADIENIO_PERZIURA==0)){
	LDS  R26,_EILUTES_SKAICIUS
	CPI  R26,LOW(0x0)
	BRNE _0x74
	LDS  R26,_MYGTUKAS_7
	CPI  R26,LOW(0x1)
	BRNE _0x74
	LDS  R26,_KELINTADIENIO_PERZIURA
	CPI  R26,LOW(0x0)
	BREQ _0x75
_0x74:
	RJMP _0x73
_0x75:
; 0000 01BD       UZRAKINTA = 1;}
	LDI  R30,LOW(1)
	STS  _UZRAKINTA,R30
; 0000 01BE 
; 0000 01BF       if(UZRAKINTA==0){
_0x73:
	LDS  R30,_UZRAKINTA
	CPI  R30,0
	BRNE _0x76
; 0000 01C0       viena_sekunde4 = viena_sekunde4 + 1;
	MOVW R30,R8
	ADIW R30,1
	MOVW R8,R30
; 0000 01C1       if(viena_sekunde4==2000){
	LDI  R30,LOW(2000)
	LDI  R31,HIGH(2000)
	CP   R30,R8
	CPC  R31,R9
	BRNE _0x77
; 0000 01C2       penkios_minutes = penkios_minutes + 1;
	MOVW R30,R10
	ADIW R30,1
	MOVW R10,R30
; 0000 01C3       viena_sekunde4 = 0;}
	CLR  R8
	CLR  R9
; 0000 01C4       if(penkios_minutes==60){
_0x77:
	LDI  R30,LOW(60)
	LDI  R31,HIGH(60)
	CP   R30,R10
	CPC  R31,R11
	BRNE _0x78
; 0000 01C5       UZRAKINTA = 1;
	LDI  R30,LOW(1)
	STS  _UZRAKINTA,R30
; 0000 01C6       penkios_minutes = 0;}
	CLR  R10
	CLR  R11
; 0000 01C7 
; 0000 01C8       if((MYGTUKAS_1==1)||(MYGTUKAS_2==1)||(MYGTUKAS_3==1)||
_0x78:
; 0000 01C9       (MYGTUKAS_4==1)||(MYGTUKAS_5==1)||(MYGTUKAS_6==1)||
; 0000 01CA       (MYGTUKAS_7==1)){
	LDS  R26,_MYGTUKAS_1
	CPI  R26,LOW(0x1)
	BREQ _0x7A
	LDS  R26,_MYGTUKAS_2
	CPI  R26,LOW(0x1)
	BREQ _0x7A
	LDS  R26,_MYGTUKAS_3
	CPI  R26,LOW(0x1)
	BREQ _0x7A
	LDS  R26,_MYGTUKAS_4
	CPI  R26,LOW(0x1)
	BREQ _0x7A
	LDS  R26,_MYGTUKAS_5
	CPI  R26,LOW(0x1)
	BREQ _0x7A
	LDS  R26,_MYGTUKAS_6
	CPI  R26,LOW(0x1)
	BREQ _0x7A
	LDS  R26,_MYGTUKAS_7
	CPI  R26,LOW(0x1)
	BRNE _0x79
_0x7A:
; 0000 01CB       viena_sekunde4 = 0;
	CLR  R8
	CLR  R9
; 0000 01CC       penkios_minutes = 0;}}
	CLR  R10
	CLR  R11
_0x79:
; 0000 01CD 
; 0000 01CE 
; 0000 01CF       if(UZRAKINTA==1){
_0x76:
	LDS  R26,_UZRAKINTA
	CPI  R26,LOW(0x1)
	BREQ PC+3
	JMP _0x7C
; 0000 01D0       if((MYGTUKAS_1==1)||(MYGTUKAS_2==1)||(MYGTUKAS_3==1)||
; 0000 01D1       (MYGTUKAS_4==1)||(MYGTUKAS_5==1)||(MYGTUKAS_6==1)){
	LDS  R26,_MYGTUKAS_1
	CPI  R26,LOW(0x1)
	BREQ _0x7E
	LDS  R26,_MYGTUKAS_2
	CPI  R26,LOW(0x1)
	BREQ _0x7E
	LDS  R26,_MYGTUKAS_3
	CPI  R26,LOW(0x1)
	BREQ _0x7E
	LDS  R26,_MYGTUKAS_4
	CPI  R26,LOW(0x1)
	BREQ _0x7E
	LDS  R26,_MYGTUKAS_5
	CPI  R26,LOW(0x1)
	BREQ _0x7E
	LDS  R26,_MYGTUKAS_6
	CPI  R26,LOW(0x1)
	BRNE _0x7D
_0x7E:
; 0000 01D2       viena_minute5 = 20000;}
	__GETD1N 0x4E20
	CALL SUBOPT_0x3
; 0000 01D3       if(MYGTUKAS_7==1){
_0x7D:
	LDS  R26,_MYGTUKAS_7
	CPI  R26,LOW(0x1)
	BRNE _0x80
; 0000 01D4       viena_minute5 = 0;}
	CALL SUBOPT_0x4
; 0000 01D5 
; 0000 01D6       if(viena_minute5==0){
_0x80:
	CALL SUBOPT_0x5
	BRNE _0x81
; 0000 01D7       REDAG_UZRAKT_SKAIC = 0;
	LDI  R30,LOW(0)
	STS  _REDAG_UZRAKT_SKAIC,R30
; 0000 01D8       a1 = 0;
	CALL SUBOPT_0x6
; 0000 01D9       b1 = 0;
; 0000 01DA       c1 = 0;
; 0000 01DB       d1 = 0;}
; 0000 01DC 
; 0000 01DD       if(viena_minute5!=0){
_0x81:
	CALL SUBOPT_0x5
	BRNE PC+3
	JMP _0x82
; 0000 01DE       DB_LAIKO_RODYMAS = 0;
	LDI  R30,LOW(0)
	STS  _DB_LAIKO_RODYMAS,R30
; 0000 01DF       viena_minute5 = viena_minute5 - 1;
	LDS  R30,_viena_minute5
	LDS  R31,_viena_minute5+1
	LDS  R22,_viena_minute5+2
	LDS  R23,_viena_minute5+3
	__SUBD1N 1
	CALL SUBOPT_0x3
; 0000 01E0       if(OSC==0){
	LDS  R30,_OSC
	CPI  R30,0
	BRNE _0x83
; 0000 01E1       a = 10;}
	LDI  R30,LOW(10)
	STS  _a,R30
; 0000 01E2       if(OSC==4){
_0x83:
	LDS  R26,_OSC
	CPI  R26,LOW(0x4)
	BRNE _0x84
; 0000 01E3       a = 26;}
	LDI  R30,LOW(26)
	STS  _a,R30
; 0000 01E4       if(OSC==8){
_0x84:
	LDS  R26,_OSC
	CPI  R26,LOW(0x8)
	BRNE _0x85
; 0000 01E5       a = 30;}
	LDI  R30,LOW(30)
	STS  _a,R30
; 0000 01E6       if(OSC==12){
_0x85:
	LDS  R26,_OSC
	CPI  R26,LOW(0xC)
	BRNE _0x86
; 0000 01E7       a = 10;}
	LDI  R30,LOW(10)
	STS  _a,R30
; 0000 01E8       if(OSC==16){
_0x86:
	LDS  R26,_OSC
	CPI  R26,LOW(0x10)
	BRNE _0x87
; 0000 01E9       if(REDAG_UZRAKT_SKAIC==0){
	LDS  R30,_REDAG_UZRAKT_SKAIC
	CPI  R30,0
	BRNE _0x88
; 0000 01EA       a = a1;}
	LDS  R30,_a1
	STS  _a,R30
; 0000 01EB       if(REDAG_UZRAKT_SKAIC!=0){
_0x88:
	LDS  R30,_REDAG_UZRAKT_SKAIC
	CPI  R30,0
	BREQ _0x89
; 0000 01EC       a = 32;}}
	LDI  R30,LOW(32)
	STS  _a,R30
_0x89:
; 0000 01ED       if(OSC==20){
_0x87:
	LDS  R26,_OSC
	CPI  R26,LOW(0x14)
	BRNE _0x8A
; 0000 01EE       if(REDAG_UZRAKT_SKAIC==1){
	LDS  R26,_REDAG_UZRAKT_SKAIC
	CPI  R26,LOW(0x1)
	BRNE _0x8B
; 0000 01EF       a = b1;}
	LDS  R30,_b1
	STS  _a,R30
; 0000 01F0       if(REDAG_UZRAKT_SKAIC!=1){
_0x8B:
	LDS  R26,_REDAG_UZRAKT_SKAIC
	CPI  R26,LOW(0x1)
	BREQ _0x8C
; 0000 01F1       a = 32;}}
	LDI  R30,LOW(32)
	STS  _a,R30
_0x8C:
; 0000 01F2       if(OSC==24){
_0x8A:
	LDS  R26,_OSC
	CPI  R26,LOW(0x18)
	BRNE _0x8D
; 0000 01F3       if(REDAG_UZRAKT_SKAIC==2){
	LDS  R26,_REDAG_UZRAKT_SKAIC
	CPI  R26,LOW(0x2)
	BRNE _0x8E
; 0000 01F4       a = c1;}
	LDS  R30,_c1
	STS  _a,R30
; 0000 01F5       if(REDAG_UZRAKT_SKAIC!=2){
_0x8E:
	LDS  R26,_REDAG_UZRAKT_SKAIC
	CPI  R26,LOW(0x2)
	BREQ _0x8F
; 0000 01F6       a = 32;}}
	LDI  R30,LOW(32)
	STS  _a,R30
_0x8F:
; 0000 01F7       if(OSC==28){
_0x8D:
	LDS  R26,_OSC
	CPI  R26,LOW(0x1C)
	BRNE _0x90
; 0000 01F8       if(REDAG_UZRAKT_SKAIC==3){
	LDS  R26,_REDAG_UZRAKT_SKAIC
	CPI  R26,LOW(0x3)
	BRNE _0x91
; 0000 01F9       a = d1;}
	LDS  R30,_d1
	STS  _a,R30
; 0000 01FA       if(REDAG_UZRAKT_SKAIC!=3){
_0x91:
	LDS  R26,_REDAG_UZRAKT_SKAIC
	CPI  R26,LOW(0x3)
	BREQ _0x92
; 0000 01FB       a = 32;
	LDI  R30,LOW(32)
	STS  _a,R30
; 0000 01FC       }}
_0x92:
; 0000 01FD 
; 0000 01FE       if(MYGTUKAS_1==1){
_0x90:
	LDS  R26,_MYGTUKAS_1
	CPI  R26,LOW(0x1)
	BRNE _0x93
; 0000 01FF       if(REDAG_UZRAKT_SKAIC==0){
	LDS  R30,_REDAG_UZRAKT_SKAIC
	CPI  R30,0
	BRNE _0x94
; 0000 0200       a1 = a1 + 1;}
	LDS  R30,_a1
	SUBI R30,-LOW(1)
	STS  _a1,R30
; 0000 0201       if(REDAG_UZRAKT_SKAIC==1){
_0x94:
	LDS  R26,_REDAG_UZRAKT_SKAIC
	CPI  R26,LOW(0x1)
	BRNE _0x95
; 0000 0202       b1 = b1 + 1;}
	LDS  R30,_b1
	SUBI R30,-LOW(1)
	STS  _b1,R30
; 0000 0203       if(REDAG_UZRAKT_SKAIC==2){
_0x95:
	LDS  R26,_REDAG_UZRAKT_SKAIC
	CPI  R26,LOW(0x2)
	BRNE _0x96
; 0000 0204       c1 = c1 + 1;}
	LDS  R30,_c1
	SUBI R30,-LOW(1)
	STS  _c1,R30
; 0000 0205       if(REDAG_UZRAKT_SKAIC==3){
_0x96:
	LDS  R26,_REDAG_UZRAKT_SKAIC
	CPI  R26,LOW(0x3)
	BRNE _0x97
; 0000 0206       d1 = d1 + 1;}}
	LDS  R30,_d1
	SUBI R30,-LOW(1)
	STS  _d1,R30
_0x97:
; 0000 0207       if(MYGTUKAS_5==1){
_0x93:
	LDS  R26,_MYGTUKAS_5
	CPI  R26,LOW(0x1)
	BRNE _0x98
; 0000 0208       if(REDAG_UZRAKT_SKAIC==0){
	LDS  R30,_REDAG_UZRAKT_SKAIC
	CPI  R30,0
	BRNE _0x99
; 0000 0209       a1 = a1 - 1;}
	LDS  R30,_a1
	CALL SUBOPT_0x7
	STS  _a1,R30
; 0000 020A       if(REDAG_UZRAKT_SKAIC==1){
_0x99:
	LDS  R26,_REDAG_UZRAKT_SKAIC
	CPI  R26,LOW(0x1)
	BRNE _0x9A
; 0000 020B       b1 = b1 - 1;}
	LDS  R30,_b1
	CALL SUBOPT_0x7
	STS  _b1,R30
; 0000 020C       if(REDAG_UZRAKT_SKAIC==2){
_0x9A:
	LDS  R26,_REDAG_UZRAKT_SKAIC
	CPI  R26,LOW(0x2)
	BRNE _0x9B
; 0000 020D       c1 = c1 - 1;}
	LDS  R30,_c1
	CALL SUBOPT_0x7
	STS  _c1,R30
; 0000 020E       if(REDAG_UZRAKT_SKAIC==3){
_0x9B:
	LDS  R26,_REDAG_UZRAKT_SKAIC
	CPI  R26,LOW(0x3)
	BRNE _0x9C
; 0000 020F       d1 = d1 - 1;}}
	LDS  R30,_d1
	CALL SUBOPT_0x7
	STS  _d1,R30
_0x9C:
; 0000 0210       if(MYGTUKAS_2==1){
_0x98:
	LDS  R26,_MYGTUKAS_2
	CPI  R26,LOW(0x1)
	BRNE _0x9D
; 0000 0211       REDAG_UZRAKT_SKAIC = REDAG_UZRAKT_SKAIC - 1;}
	LDS  R30,_REDAG_UZRAKT_SKAIC
	CALL SUBOPT_0x7
	STS  _REDAG_UZRAKT_SKAIC,R30
; 0000 0212       if(MYGTUKAS_4==1){
_0x9D:
	LDS  R26,_MYGTUKAS_4
	CPI  R26,LOW(0x1)
	BRNE _0x9E
; 0000 0213       REDAG_UZRAKT_SKAIC = REDAG_UZRAKT_SKAIC + 1;}
	LDS  R30,_REDAG_UZRAKT_SKAIC
	SUBI R30,-LOW(1)
	STS  _REDAG_UZRAKT_SKAIC,R30
; 0000 0214 
; 0000 0215       if(REDAG_UZRAKT_SKAIC==-1){
_0x9E:
	LDS  R26,_REDAG_UZRAKT_SKAIC
	CPI  R26,LOW(0xFF)
	BRNE _0x9F
; 0000 0216       REDAG_UZRAKT_SKAIC = 3;}
	LDI  R30,LOW(3)
	STS  _REDAG_UZRAKT_SKAIC,R30
; 0000 0217       if(REDAG_UZRAKT_SKAIC==4){
_0x9F:
	LDS  R26,_REDAG_UZRAKT_SKAIC
	CPI  R26,LOW(0x4)
	BRNE _0xA0
; 0000 0218       REDAG_UZRAKT_SKAIC = 0;}
	LDI  R30,LOW(0)
	STS  _REDAG_UZRAKT_SKAIC,R30
; 0000 0219 
; 0000 021A 
; 0000 021B 
; 0000 021C       if(a1==-1){
_0xA0:
	LDS  R26,_a1
	CPI  R26,LOW(0xFF)
	BRNE _0xA1
; 0000 021D       a1 = 9;}
	LDI  R30,LOW(9)
	STS  _a1,R30
; 0000 021E       if(b1==-1){
_0xA1:
	LDS  R26,_b1
	CPI  R26,LOW(0xFF)
	BRNE _0xA2
; 0000 021F       b1 = 9;}
	LDI  R30,LOW(9)
	STS  _b1,R30
; 0000 0220       if(c1==-1){
_0xA2:
	LDS  R26,_c1
	CPI  R26,LOW(0xFF)
	BRNE _0xA3
; 0000 0221       c1 = 9;}
	LDI  R30,LOW(9)
	STS  _c1,R30
; 0000 0222       if(d1==-1){
_0xA3:
	LDS  R26,_d1
	CPI  R26,LOW(0xFF)
	BRNE _0xA4
; 0000 0223       d1 = 9;}
	LDI  R30,LOW(9)
	STS  _d1,R30
; 0000 0224       if(a1==10){
_0xA4:
	LDS  R26,_a1
	CPI  R26,LOW(0xA)
	BRNE _0xA5
; 0000 0225       a1 = 0;}
	LDI  R30,LOW(0)
	STS  _a1,R30
; 0000 0226       if(b1==10){
_0xA5:
	LDS  R26,_b1
	CPI  R26,LOW(0xA)
	BRNE _0xA6
; 0000 0227       b1 = 0;}
	LDI  R30,LOW(0)
	STS  _b1,R30
; 0000 0228       if(c1==10){
_0xA6:
	LDS  R26,_c1
	CPI  R26,LOW(0xA)
	BRNE _0xA7
; 0000 0229       c1 = 0;}
	LDI  R30,LOW(0)
	STS  _c1,R30
; 0000 022A       if(d1==10){
_0xA7:
	LDS  R26,_d1
	CPI  R26,LOW(0xA)
	BRNE _0xA8
; 0000 022B       d1 = 0;}}}
	LDI  R30,LOW(0)
	STS  _d1,R30
_0xA8:
_0x82:
; 0000 022C 
; 0000 022D       if((MYGTUKAS_3==1)&&(viena_minute5!=0)){
_0x7C:
	LDS  R26,_MYGTUKAS_3
	CPI  R26,LOW(0x1)
	BRNE _0xAA
	LDS  R26,_viena_minute5
	LDS  R27,_viena_minute5+1
	LDS  R24,_viena_minute5+2
	LDS  R25,_viena_minute5+3
	CALL __CPD02
	BRNE _0xAB
_0xAA:
	RJMP _0xA9
_0xAB:
; 0000 022E       if(
; 0000 022F       (UZRAKTO_KODAS_1==a1)&&
; 0000 0230       (UZRAKTO_KODAS_2==b1)&&
; 0000 0231       (UZRAKTO_KODAS_3==c1)&&
; 0000 0232       (UZRAKTO_KODAS_4==d1)){
	LDS  R30,_a1
	LDS  R26,_UZRAKTO_KODAS_1
	CP   R30,R26
	BRNE _0xAD
	LDS  R30,_b1
	LDS  R26,_UZRAKTO_KODAS_2
	CP   R30,R26
	BRNE _0xAD
	LDS  R30,_c1
	LDS  R26,_UZRAKTO_KODAS_3
	CP   R30,R26
	BRNE _0xAD
	LDS  R30,_d1
	LDS  R26,_UZRAKTO_KODAS_4
	CP   R30,R26
	BREQ _0xAE
_0xAD:
	RJMP _0xAC
_0xAE:
; 0000 0233       UZRAKINTA = 0;
	LDI  R30,LOW(0)
	STS  _UZRAKINTA,R30
; 0000 0234       viena_minute5 = 0;
	CALL SUBOPT_0x4
; 0000 0235       a1 = 0;
	CALL SUBOPT_0x6
; 0000 0236       b1 = 0;
; 0000 0237       c1 = 0;
; 0000 0238       d1 = 0;
; 0000 0239       REDAG_UZRAKT_SKAIC = 0;
	LDI  R30,LOW(0)
	STS  _REDAG_UZRAKT_SKAIC,R30
; 0000 023A       DB_LAIKO_RODYMAS = 1;}}
	LDI  R30,LOW(1)
	STS  _DB_LAIKO_RODYMAS,R30
_0xAC:
; 0000 023B 
; 0000 023C       if(UZRAKINTA==1){
_0xA9:
	LDS  R26,_UZRAKINTA
	CPI  R26,LOW(0x1)
	BRNE _0xAF
; 0000 023D       EILUTES_SKAICIUS = 0;
	LDI  R30,LOW(0)
	STS  _EILUTES_SKAICIUS,R30
; 0000 023E       REDAGAVIMAS = 0;
	CALL SUBOPT_0x8
; 0000 023F       MYGTUKAS_1 = 0;
	CALL SUBOPT_0x9
; 0000 0240       MYGTUKAS_2 = 0;
; 0000 0241       MYGTUKAS_3 = 0;
; 0000 0242       MYGTUKAS_4 = 0;
; 0000 0243       MYGTUKAS_5 = 0;
; 0000 0244       MYGTUKAS_6 = 0;
; 0000 0245       MYGTUKAS_7 = 0;
; 0000 0246       KELINTADIENIO_PERZIURA = 0;
	CALL SUBOPT_0xA
; 0000 0247       KELINTADIENIO_REDAGAVIMAS = 0;}
; 0000 0248 
; 0000 0249       //Baterijos busena;
; 0000 024A       if((REDAGAVIMAS==0)&&(KELINTADIENIO_REDAGAVIMAS==0)){
_0xAF:
	LDS  R26,_REDAGAVIMAS
	CPI  R26,LOW(0x0)
	BRNE _0xB1
	LDS  R26,_KELINTADIENIO_REDAGAVIMAS
	CPI  R26,LOW(0x0)
	BREQ _0xB2
_0xB1:
	RJMP _0xB0
_0xB2:
; 0000 024B 
; 0000 024C       if((EILUTES_SKAICIUS==0)&&(BATERIJOS_BUSENA==0)&&
; 0000 024D       (MYGTUKAS_4==1)){
	LDS  R26,_EILUTES_SKAICIUS
	CPI  R26,LOW(0x0)
	BRNE _0xB4
	LDS  R26,_BATERIJOS_BUSENA
	CPI  R26,LOW(0x0)
	BRNE _0xB4
	LDS  R26,_MYGTUKAS_4
	CPI  R26,LOW(0x1)
	BREQ _0xB5
_0xB4:
	RJMP _0xB3
_0xB5:
; 0000 024E       BATERIJOS_BUSENA = 1;
	LDI  R30,LOW(1)
	STS  _BATERIJOS_BUSENA,R30
; 0000 024F       MYGTUKAS_4 = 0;}
	LDI  R30,LOW(0)
	STS  _MYGTUKAS_4,R30
; 0000 0250 
; 0000 0251       if((EILUTES_SKAICIUS==0)&&(BATERIJOS_BUSENA==1)&&
_0xB3:
; 0000 0252       ((MYGTUKAS_1==1)||(MYGTUKAS_2==1)||(MYGTUKAS_3==1)||
; 0000 0253       (MYGTUKAS_4==1)||(MYGTUKAS_5==1)||(MYGTUKAS_6==1)||
; 0000 0254       (MYGTUKAS_7==1))){
	LDS  R26,_EILUTES_SKAICIUS
	CPI  R26,LOW(0x0)
	BRNE _0xB7
	LDS  R26,_BATERIJOS_BUSENA
	CPI  R26,LOW(0x1)
	BRNE _0xB7
	LDS  R26,_MYGTUKAS_1
	CPI  R26,LOW(0x1)
	BREQ _0xB8
	LDS  R26,_MYGTUKAS_2
	CPI  R26,LOW(0x1)
	BREQ _0xB8
	LDS  R26,_MYGTUKAS_3
	CPI  R26,LOW(0x1)
	BREQ _0xB8
	LDS  R26,_MYGTUKAS_4
	CPI  R26,LOW(0x1)
	BREQ _0xB8
	LDS  R26,_MYGTUKAS_5
	CPI  R26,LOW(0x1)
	BREQ _0xB8
	LDS  R26,_MYGTUKAS_6
	CPI  R26,LOW(0x1)
	BREQ _0xB8
	LDS  R26,_MYGTUKAS_7
	CPI  R26,LOW(0x1)
	BRNE _0xB7
_0xB8:
	RJMP _0xBA
_0xB7:
	RJMP _0xB6
_0xBA:
; 0000 0255       BATERIJOS_BUSENA = 0;
	LDI  R30,LOW(0)
	STS  _BATERIJOS_BUSENA,R30
; 0000 0256       MYGTUKAS_1 = 0;
	CALL SUBOPT_0x9
; 0000 0257       MYGTUKAS_2 = 0;
; 0000 0258       MYGTUKAS_3 = 0;
; 0000 0259       MYGTUKAS_4 = 0;
; 0000 025A       MYGTUKAS_5 = 0;
; 0000 025B       MYGTUKAS_6 = 0;
; 0000 025C       MYGTUKAS_7 = 0;}
; 0000 025D 
; 0000 025E       if(BATERIJOS_BUSENA==1){
_0xB6:
	LDS  R26,_BATERIJOS_BUSENA
	CPI  R26,LOW(0x1)
	BREQ PC+3
	JMP _0xBB
; 0000 025F       DB_LAIKO_RODYMAS = 0;
	LDI  R30,LOW(0)
	STS  _DB_LAIKO_RODYMAS,R30
; 0000 0260       if(KROVIMAS==1){
	LDS  R26,_KROVIMAS
	CPI  R26,LOW(0x1)
	BRNE _0xBC
; 0000 0261       if(OSC==0){
	LDS  R30,_OSC
	CPI  R30,0
	BRNE _0xBD
; 0000 0262       a = 12;}
	LDI  R30,LOW(12)
	STS  _a,R30
; 0000 0263       if(OSC==4){
_0xBD:
	LDS  R26,_OSC
	CPI  R26,LOW(0x4)
	BRNE _0xBE
; 0000 0264       a = 18;}
	LDI  R30,LOW(18)
	STS  _a,R30
; 0000 0265       if(OSC==8){
_0xBE:
	LDS  R26,_OSC
	CPI  R26,LOW(0x8)
	BRNE _0xBF
; 0000 0266       a = 10;}
	LDI  R30,LOW(10)
	STS  _a,R30
; 0000 0267       if(OSC==12){
_0xBF:
	LDS  R26,_OSC
	CPI  R26,LOW(0xC)
	BRNE _0xC0
; 0000 0268       a = 30;}}
	LDI  R30,LOW(30)
	STS  _a,R30
_0xC0:
; 0000 0269       if(ISKROVIMAS==1){
_0xBC:
	LDS  R26,_ISKROVIMAS
	CPI  R26,LOW(0x1)
	BRNE _0xC1
; 0000 026A       if(OSC==0){
	LDS  R30,_OSC
	CPI  R30,0
	BRNE _0xC2
; 0000 026B       a = 14;}
	LDI  R30,LOW(14)
	STS  _a,R30
; 0000 026C       if(OSC==4){
_0xC2:
	LDS  R26,_OSC
	CPI  R26,LOW(0x4)
	BRNE _0xC3
; 0000 026D       a = 12;}
	LDI  R30,LOW(12)
	STS  _a,R30
; 0000 026E       if(OSC==8){
_0xC3:
	LDS  R26,_OSC
	CPI  R26,LOW(0x8)
	BRNE _0xC4
; 0000 026F       a = 18;}
	LDI  R30,LOW(18)
	STS  _a,R30
; 0000 0270       if(OSC==12){
_0xC4:
	LDS  R26,_OSC
	CPI  R26,LOW(0xC)
	BRNE _0xC5
; 0000 0271       a = 30;}}
	LDI  R30,LOW(30)
	STS  _a,R30
_0xC5:
; 0000 0272       if(TUSCIAS==1){
_0xC1:
	LDS  R26,_TUSCIAS
	CPI  R26,LOW(0x1)
	BRNE _0xC6
; 0000 0273       if(OSC==16){
	LDS  R26,_OSC
	CPI  R26,LOW(0x10)
	BRNE _0xC7
; 0000 0274       a = 26;}
	LDI  R30,LOW(26)
	STS  _a,R30
; 0000 0275       if(OSC==20){
_0xC7:
	LDS  R26,_OSC
	CPI  R26,LOW(0x14)
	BRNE _0xC8
; 0000 0276       a = 27;}
	LDI  R30,LOW(27)
	STS  _a,R30
; 0000 0277       if(OSC==24){
_0xC8:
	LDS  R26,_OSC
	CPI  R26,LOW(0x18)
	BRNE _0xC9
; 0000 0278       a = 5;}
	LDI  R30,LOW(5)
	STS  _a,R30
; 0000 0279       if(OSC==28){
_0xC9:
	LDS  R26,_OSC
	CPI  R26,LOW(0x1C)
	BRNE _0xCA
; 0000 027A       a = 12;}}
	LDI  R30,LOW(12)
	STS  _a,R30
_0xCA:
; 0000 027B       if((TUSCIAS==0)&&(PILNAS==0)){
_0xC6:
	LDS  R26,_TUSCIAS
	CPI  R26,LOW(0x0)
	BRNE _0xCC
	LDS  R26,_PILNAS
	CPI  R26,LOW(0x0)
	BREQ _0xCD
_0xCC:
	RJMP _0xCB
_0xCD:
; 0000 027C       if(OSC==16){
	LDS  R26,_OSC
	CPI  R26,LOW(0x10)
	BRNE _0xCE
; 0000 027D       a = 24;}
	LDI  R30,LOW(24)
	STS  _a,R30
; 0000 027E       if(OSC==20){
_0xCE:
	LDS  R26,_OSC
	CPI  R26,LOW(0x14)
	BRNE _0xCF
; 0000 027F       a = 28;}
	LDI  R30,LOW(28)
	STS  _a,R30
; 0000 0280       if(OSC==24){
_0xCF:
	LDS  R26,_OSC
	CPI  R26,LOW(0x18)
	BRNE _0xD0
; 0000 0281       a = 5;}
	LDI  R30,LOW(5)
	STS  _a,R30
; 0000 0282       if(OSC==28){
_0xD0:
	LDS  R26,_OSC
	CPI  R26,LOW(0x1C)
	BRNE _0xD1
; 0000 0283       a = 15;}}
	LDI  R30,LOW(15)
	STS  _a,R30
_0xD1:
; 0000 0284       if(PILNAS==1){
_0xCB:
	LDS  R26,_PILNAS
	CPI  R26,LOW(0x1)
	BRNE _0xD2
; 0000 0285       if(OSC==16){
	LDS  R26,_OSC
	CPI  R26,LOW(0x10)
	BRNE _0xD3
; 0000 0286       a = 26;}
	LDI  R30,LOW(26)
	STS  _a,R30
; 0000 0287       if(OSC==20){
_0xD3:
	LDS  R26,_OSC
	CPI  R26,LOW(0x14)
	BRNE _0xD4
; 0000 0288       a = 1;}
	LDI  R30,LOW(1)
	STS  _a,R30
; 0000 0289       if(OSC==24){
_0xD4:
	LDS  R26,_OSC
	CPI  R26,LOW(0x18)
	BRNE _0xD5
; 0000 028A       a = 22;}
	LDI  R30,LOW(22)
	STS  _a,R30
; 0000 028B       if(OSC==28){
_0xD5:
	LDS  R26,_OSC
	CPI  R26,LOW(0x1C)
	BRNE _0xD6
; 0000 028C       a = 34;}}}}
	LDI  R30,LOW(34)
	STS  _a,R30
_0xD6:
_0xD2:
_0xBB:
; 0000 028D 
; 0000 028E       //KELINTADIENIO NUSTATYMAI:
; 0000 028F       if((DB_LAIKO_RODYMAS==1)&&(REDAGAVIMAS==0)&&
_0xB0:
; 0000 0290       (MYGTUKAS_2==1)&&(EILUTES_SKAICIUS==0)){
	LDS  R26,_DB_LAIKO_RODYMAS
	CPI  R26,LOW(0x1)
	BRNE _0xD8
	LDS  R26,_REDAGAVIMAS
	CPI  R26,LOW(0x0)
	BRNE _0xD8
	LDS  R26,_MYGTUKAS_2
	CPI  R26,LOW(0x1)
	BRNE _0xD8
	LDS  R26,_EILUTES_SKAICIUS
	CPI  R26,LOW(0x0)
	BREQ _0xD9
_0xD8:
	RJMP _0xD7
_0xD9:
; 0000 0291       KELINTADIENIO_PERZIURA = 1;}
	LDI  R30,LOW(1)
	STS  _KELINTADIENIO_PERZIURA,R30
; 0000 0292 
; 0000 0293       if(KELINTADIENIO_PERZIURA==1){
_0xD7:
	LDS  R26,_KELINTADIENIO_PERZIURA
	CPI  R26,LOW(0x1)
	BRNE _0xDA
; 0000 0294       DB_LAIKO_RODYMAS = 0;
	LDI  R30,LOW(0)
	STS  _DB_LAIKO_RODYMAS,R30
; 0000 0295       REDAGAVIMAS = 0;
	CALL SUBOPT_0x8
; 0000 0296       EILUTES_SKAICIUS = 0;}
	STS  _EILUTES_SKAICIUS,R30
; 0000 0297 
; 0000 0298       if((KELINTADIENIO_PERZIURA==1)&&
_0xDA:
; 0000 0299       (KELINTADIENIO_REDAGAVIMAS==0)&&
; 0000 029A       ((MYGTUKAS_1==1)||(MYGTUKAS_3==1)||
; 0000 029B       (MYGTUKAS_4==1)||(MYGTUKAS_5==1)||(MYGTUKAS_7==1))){
	LDS  R26,_KELINTADIENIO_PERZIURA
	CPI  R26,LOW(0x1)
	BRNE _0xDC
	LDS  R26,_KELINTADIENIO_REDAGAVIMAS
	CPI  R26,LOW(0x0)
	BRNE _0xDC
	LDS  R26,_MYGTUKAS_1
	CPI  R26,LOW(0x1)
	BREQ _0xDD
	LDS  R26,_MYGTUKAS_3
	CPI  R26,LOW(0x1)
	BREQ _0xDD
	LDS  R26,_MYGTUKAS_4
	CPI  R26,LOW(0x1)
	BREQ _0xDD
	LDS  R26,_MYGTUKAS_5
	CPI  R26,LOW(0x1)
	BREQ _0xDD
	LDS  R26,_MYGTUKAS_7
	CPI  R26,LOW(0x1)
	BRNE _0xDC
_0xDD:
	RJMP _0xDF
_0xDC:
	RJMP _0xDB
_0xDF:
; 0000 029C       KELINTADIENIO_PERZIURA = 0;
	CALL SUBOPT_0xA
; 0000 029D       KELINTADIENIO_REDAGAVIMAS = 0;}
; 0000 029E 
; 0000 029F       if((KELINTADIENIO_PERZIURA==1)&&(MYGTUKAS_6==1)&&
_0xDB:
; 0000 02A0       (KELINTADIENIO_REDAGAVIMAS==0)){
	LDS  R26,_KELINTADIENIO_PERZIURA
	CPI  R26,LOW(0x1)
	BRNE _0xE1
	LDS  R26,_MYGTUKAS_6
	CPI  R26,LOW(0x1)
	BRNE _0xE1
	LDS  R26,_KELINTADIENIO_REDAGAVIMAS
	CPI  R26,LOW(0x0)
	BREQ _0xE2
_0xE1:
	RJMP _0xE0
_0xE2:
; 0000 02A1       KELINTADIENIO_REDAGAVIMAS = 1;
	LDI  R30,LOW(1)
	STS  _KELINTADIENIO_REDAGAVIMAS,R30
; 0000 02A2       MYGTUKAS_6 = 0;}
	LDI  R30,LOW(0)
	STS  _MYGTUKAS_6,R30
; 0000 02A3 
; 0000 02A4       if((KELINTADIENIO_PERZIURA==1)&&((MYGTUKAS_6==1)||
_0xE0:
; 0000 02A5       (MYGTUKAS_3==1))&&(KELINTADIENIO_REDAGAVIMAS==1)){
	LDS  R26,_KELINTADIENIO_PERZIURA
	CPI  R26,LOW(0x1)
	BRNE _0xE4
	LDS  R26,_MYGTUKAS_6
	CPI  R26,LOW(0x1)
	BREQ _0xE5
	LDS  R26,_MYGTUKAS_3
	CPI  R26,LOW(0x1)
	BRNE _0xE4
_0xE5:
	LDS  R26,_KELINTADIENIO_REDAGAVIMAS
	CPI  R26,LOW(0x1)
	BREQ _0xE7
_0xE4:
	RJMP _0xE3
_0xE7:
; 0000 02A6       KELINTADIENIO_REDAGAVIMAS = 0;
	LDI  R30,LOW(0)
	STS  _KELINTADIENIO_REDAGAVIMAS,R30
; 0000 02A7       MYGTUKAS_6 = 0;}
	STS  _MYGTUKAS_6,R30
; 0000 02A8 
; 0000 02A9       if((desimtys_valandos==0)&&(valandos==0)&&
_0xE3:
; 0000 02AA       (desimtys_minutes==0)&&(minutes==0)&&(sekundes==0)&&
; 0000 02AB       (LAIKRODIS==1)){
	LDS  R26,_desimtys_valandos
	CPI  R26,LOW(0x0)
	BRNE _0xE9
	LDS  R26,_valandos
	CPI  R26,LOW(0x0)
	BRNE _0xE9
	LDS  R26,_desimtys_minutes
	CPI  R26,LOW(0x0)
	BRNE _0xE9
	LDS  R26,_minutes
	CPI  R26,LOW(0x0)
	BRNE _0xE9
	LDS  R26,_sekundes
	CPI  R26,LOW(0x0)
	BRNE _0xE9
	LDS  R26,_LAIKRODIS
	CPI  R26,LOW(0x1)
	BREQ _0xEA
_0xE9:
	RJMP _0xE8
_0xEA:
; 0000 02AC       KELINTADIENIS = KELINTADIENIS + 1;}
	LDS  R30,_KELINTADIENIS
	SUBI R30,-LOW(1)
	STS  _KELINTADIENIS,R30
; 0000 02AD 
; 0000 02AE       if((KELINTADIENIO_REDAGAVIMAS==1)&&(MYGTUKAS_1==1)){
_0xE8:
	LDS  R26,_KELINTADIENIO_REDAGAVIMAS
	CPI  R26,LOW(0x1)
	BRNE _0xEC
	LDS  R26,_MYGTUKAS_1
	CPI  R26,LOW(0x1)
	BREQ _0xED
_0xEC:
	RJMP _0xEB
_0xED:
; 0000 02AF       KELINTADIENIS = KELINTADIENIS + 1;}
	LDS  R30,_KELINTADIENIS
	SUBI R30,-LOW(1)
	STS  _KELINTADIENIS,R30
; 0000 02B0 
; 0000 02B1       if((KELINTADIENIO_REDAGAVIMAS==1)&&(MYGTUKAS_5==1)){
_0xEB:
	LDS  R26,_KELINTADIENIO_REDAGAVIMAS
	CPI  R26,LOW(0x1)
	BRNE _0xEF
	LDS  R26,_MYGTUKAS_5
	CPI  R26,LOW(0x1)
	BREQ _0xF0
_0xEF:
	RJMP _0xEE
_0xF0:
; 0000 02B2       KELINTADIENIS = KELINTADIENIS - 1;}
	LDS  R30,_KELINTADIENIS
	LDI  R31,0
	SBIW R30,1
	STS  _KELINTADIENIS,R30
; 0000 02B3 
; 0000 02B4       if(KELINTADIENIS==0){
_0xEE:
	LDS  R30,_KELINTADIENIS
	CPI  R30,0
	BRNE _0xF1
; 0000 02B5       KELINTADIENIS = 7;}
	LDI  R30,LOW(7)
	STS  _KELINTADIENIS,R30
; 0000 02B6 
; 0000 02B7       if(KELINTADIENIS==8){
_0xF1:
	LDS  R26,_KELINTADIENIS
	CPI  R26,LOW(0x8)
	BRNE _0xF2
; 0000 02B8       KELINTADIENIS = 1;}
	LDI  R30,LOW(1)
	STS  _KELINTADIENIS,R30
; 0000 02B9 
; 0000 02BA       if((KELINTADIENIO_PERZIURA==1)&&(BATERIJOS_BUSENA==0)){
_0xF2:
	LDS  R26,_KELINTADIENIO_PERZIURA
	CPI  R26,LOW(0x1)
	BRNE _0xF4
	LDS  R26,_BATERIJOS_BUSENA
	CPI  R26,LOW(0x0)
	BREQ _0xF5
_0xF4:
	RJMP _0xF3
_0xF5:
; 0000 02BB       if(OSC==0){
	LDS  R30,_OSC
	CPI  R30,0
	BRNE _0xF6
; 0000 02BC       a = KELINTADIENIS;}
	LDS  R30,_KELINTADIENIS
	STS  _a,R30
; 0000 02BD       if(OSC==4){
_0xF6:
	LDS  R26,_OSC
	CPI  R26,LOW(0x4)
	BRNE _0xF7
; 0000 02BE       a = 32;}
	LDI  R30,LOW(32)
	STS  _a,R30
; 0000 02BF       if(OSC==8){
_0xF7:
	LDS  R26,_OSC
	CPI  R26,LOW(0x8)
	BRNE _0xF8
; 0000 02C0       a = 14;}
	LDI  R30,LOW(14)
	STS  _a,R30
; 0000 02C1       if(OSC==12){
_0xF8:
	LDS  R26,_OSC
	CPI  R26,LOW(0xC)
	BRNE _0xF9
; 0000 02C2       a = 20;}
	LDI  R30,LOW(20)
	STS  _a,R30
; 0000 02C3       if(OSC==16){
_0xF9:
	LDS  R26,_OSC
	CPI  R26,LOW(0x10)
	BRNE _0xFA
; 0000 02C4       a = 15;}
	LDI  R30,LOW(15)
	STS  _a,R30
; 0000 02C5       if(OSC==20){
_0xFA:
	LDS  R26,_OSC
	CPI  R26,LOW(0x14)
	BRNE _0xFB
; 0000 02C6       a = 34;}
	LDI  R30,LOW(34)
	STS  _a,R30
; 0000 02C7       if(OSC==24){
_0xFB:
	LDS  R26,_OSC
	CPI  R26,LOW(0x18)
	BRNE _0xFC
; 0000 02C8       a = 20;}
	LDI  R30,LOW(20)
	STS  _a,R30
; 0000 02C9       if(OSC==28){
_0xFC:
	LDS  R26,_OSC
	CPI  R26,LOW(0x1C)
	BRNE _0xFD
; 0000 02CA       a = 5;}
	LDI  R30,LOW(5)
	STS  _a,R30
; 0000 02CB       MYGTUKAS_1 = 0;
_0xFD:
	LDI  R30,LOW(0)
	STS  _MYGTUKAS_1,R30
; 0000 02CC       MYGTUKAS_2 = 0;
	STS  _MYGTUKAS_2,R30
; 0000 02CD       MYGTUKAS_3 = 0;
	STS  _MYGTUKAS_3,R30
; 0000 02CE       MYGTUKAS_4 = 0;
	STS  _MYGTUKAS_4,R30
; 0000 02CF       MYGTUKAS_5 = 0;
	STS  _MYGTUKAS_5,R30
; 0000 02D0       MYGTUKAS_6 = 0;}
	STS  _MYGTUKAS_6,R30
; 0000 02D1 
; 0000 02D2       if((KELINTADIENIO_REDAGAVIMAS==1)&&(BLYKCIOTI==1)){
_0xF3:
	LDS  R26,_KELINTADIENIO_REDAGAVIMAS
	CPI  R26,LOW(0x1)
	BRNE _0xFF
	LDS  R26,_BLYKCIOTI
	CPI  R26,LOW(0x1)
	BREQ _0x100
_0xFF:
	RJMP _0xFE
_0x100:
; 0000 02D3       a = 33;}
	LDI  R30,LOW(33)
	STS  _a,R30
; 0000 02D4 
; 0000 02D5 
; 0000 02D6 
; 0000 02D7       //TIKRAS LAIKAS:
; 0000 02D8       //redaguojant:
; 0000 02D9 
; 0000 02DA       if((desimtys_valandos<0)&&(valandos<4)){
_0xFE:
	LDS  R26,_desimtys_valandos
	CPI  R26,0
	BRGE _0x102
	LDS  R26,_valandos
	CPI  R26,LOW(0x4)
	BRLT _0x103
_0x102:
	RJMP _0x101
_0x103:
; 0000 02DB       desimtys_valandos = 2;}
	LDI  R30,LOW(2)
	STS  _desimtys_valandos,R30
; 0000 02DC 
; 0000 02DD       if((desimtys_valandos<0)&&(valandos>=4)){
_0x101:
	LDS  R26,_desimtys_valandos
	CPI  R26,0
	BRGE _0x105
	LDS  R26,_valandos
	CPI  R26,LOW(0x4)
	BRGE _0x106
_0x105:
	RJMP _0x104
_0x106:
; 0000 02DE       desimtys_valandos = 1;}
	LDI  R30,LOW(1)
	STS  _desimtys_valandos,R30
; 0000 02DF 
; 0000 02E0       if(valandos<0){
_0x104:
	LDS  R26,_valandos
	CPI  R26,0
	BRGE _0x107
; 0000 02E1       valandos = 9;}
	LDI  R30,LOW(9)
	STS  _valandos,R30
; 0000 02E2       if(desimtys_minutes<0){
_0x107:
	LDS  R26,_desimtys_minutes
	CPI  R26,0
	BRGE _0x108
; 0000 02E3       desimtys_minutes = 5;}
	LDI  R30,LOW(5)
	STS  _desimtys_minutes,R30
; 0000 02E4       if(minutes<0){
_0x108:
	LDS  R26,_minutes
	CPI  R26,0
	BRGE _0x109
; 0000 02E5       minutes = 9;}
	LDI  R30,LOW(9)
	STS  _minutes,R30
; 0000 02E6 
; 0000 02E7       //laiko skaiciavimas:
; 0000 02E8       if((LAIKRODIS==1)&&(REDAGAVIMAS==0)){
_0x109:
	LDS  R26,_LAIKRODIS
	CPI  R26,LOW(0x1)
	BRNE _0x10B
	LDS  R26,_REDAGAVIMAS
	CPI  R26,LOW(0x0)
	BREQ _0x10C
_0x10B:
	RJMP _0x10A
_0x10C:
; 0000 02E9       sekundes = sekundes + 2;}
	LDS  R30,_sekundes
	SUBI R30,-LOW(2)
	STS  _sekundes,R30
; 0000 02EA 
; 0000 02EB       if((sekundes==60)&&(REDAGAVIMAS==0)){
_0x10A:
	LDS  R26,_sekundes
	CPI  R26,LOW(0x3C)
	BRNE _0x10E
	LDS  R26,_REDAGAVIMAS
	CPI  R26,LOW(0x0)
	BREQ _0x10F
_0x10E:
	RJMP _0x10D
_0x10F:
; 0000 02EC       minutes = minutes + 1;
	LDS  R30,_minutes
	SUBI R30,-LOW(1)
	STS  _minutes,R30
; 0000 02ED       sekundes = 0;}
	LDI  R30,LOW(0)
	STS  _sekundes,R30
; 0000 02EE 
; 0000 02EF       if((minutes==10)&&(REDAGAVIMAS==0)){
_0x10D:
	LDS  R26,_minutes
	CPI  R26,LOW(0xA)
	BRNE _0x111
	LDS  R26,_REDAGAVIMAS
	CPI  R26,LOW(0x0)
	BREQ _0x112
_0x111:
	RJMP _0x110
_0x112:
; 0000 02F0       desimtys_minutes = desimtys_minutes + 1;
	LDS  R30,_desimtys_minutes
	SUBI R30,-LOW(1)
	STS  _desimtys_minutes,R30
; 0000 02F1       minutes = 0;}
	LDI  R30,LOW(0)
	STS  _minutes,R30
; 0000 02F2 
; 0000 02F3       if((desimtys_minutes==6)&&(REDAGAVIMAS==0)){
_0x110:
	LDS  R26,_desimtys_minutes
	CPI  R26,LOW(0x6)
	BRNE _0x114
	LDS  R26,_REDAGAVIMAS
	CPI  R26,LOW(0x0)
	BREQ _0x115
_0x114:
	RJMP _0x113
_0x115:
; 0000 02F4       valandos = valandos + 1;
	LDS  R30,_valandos
	SUBI R30,-LOW(1)
	STS  _valandos,R30
; 0000 02F5       desimtys_minutes = 0;}
	LDI  R30,LOW(0)
	STS  _desimtys_minutes,R30
; 0000 02F6 
; 0000 02F7       if((valandos==10)&&(REDAGAVIMAS==0)){
_0x113:
	LDS  R26,_valandos
	CPI  R26,LOW(0xA)
	BRNE _0x117
	LDS  R26,_REDAGAVIMAS
	CPI  R26,LOW(0x0)
	BREQ _0x118
_0x117:
	RJMP _0x116
_0x118:
; 0000 02F8       desimtys_valandos = desimtys_valandos + 1;
	LDS  R30,_desimtys_valandos
	SUBI R30,-LOW(1)
	STS  _desimtys_valandos,R30
; 0000 02F9       valandos = 0;}
	LDI  R30,LOW(0)
	STS  _valandos,R30
; 0000 02FA 
; 0000 02FB       if((valandos>=4)&&(desimtys_valandos>=2)&&
_0x116:
; 0000 02FC       (REDAGAVIMAS==0)){
	LDS  R26,_valandos
	CPI  R26,LOW(0x4)
	BRLT _0x11A
	LDS  R26,_desimtys_valandos
	CPI  R26,LOW(0x2)
	BRLT _0x11A
	LDS  R26,_REDAGAVIMAS
	CPI  R26,LOW(0x0)
	BREQ _0x11B
_0x11A:
	RJMP _0x119
_0x11B:
; 0000 02FD       valandos = 0;
	LDI  R30,LOW(0)
	STS  _valandos,R30
; 0000 02FE       desimtys_valandos = 0;}
	STS  _desimtys_valandos,R30
; 0000 02FF 
; 0000 0300       //EILUTES SKAICIAUS NUSTATYMAS:
; 0000 0301       if(REDAGAVIMAS==0){
_0x119:
	LDS  R30,_REDAGAVIMAS
	CPI  R30,0
	BREQ PC+3
	JMP _0x11C
; 0000 0302       if(MYGTUKAS_1==1){
	LDS  R26,_MYGTUKAS_1
	CPI  R26,LOW(0x1)
	BRNE _0x11D
; 0000 0303       if((EILUTES_SKAICIUS!=20)&&(g==0)){
	LDS  R26,_EILUTES_SKAICIUS
	CPI  R26,LOW(0x14)
	BREQ _0x11F
	LDS  R26,_g
	CPI  R26,LOW(0x0)
	BREQ _0x120
_0x11F:
	RJMP _0x11E
_0x120:
; 0000 0304       EILUTES_SKAICIUS = EILUTES_SKAICIUS + 1;
	LDS  R30,_EILUTES_SKAICIUS
	SUBI R30,-LOW(1)
	CALL SUBOPT_0xB
; 0000 0305       g = 1;}
; 0000 0306       if((EILUTES_SKAICIUS==20)&&(g==0)){
_0x11E:
	LDS  R26,_EILUTES_SKAICIUS
	CPI  R26,LOW(0x14)
	BRNE _0x122
	LDS  R26,_g
	CPI  R26,LOW(0x0)
	BREQ _0x123
_0x122:
	RJMP _0x121
_0x123:
; 0000 0307       EILUTES_SKAICIUS = 1;
	LDI  R30,LOW(1)
	CALL SUBOPT_0xB
; 0000 0308       g = 1;}}
_0x121:
; 0000 0309       if(MYGTUKAS_5==1){
_0x11D:
	LDS  R26,_MYGTUKAS_5
	CPI  R26,LOW(0x1)
	BRNE _0x124
; 0000 030A       if((EILUTES_SKAICIUS<=1)&&(g==0)){
	LDS  R26,_EILUTES_SKAICIUS
	CPI  R26,LOW(0x2)
	BRGE _0x126
	LDS  R26,_g
	CPI  R26,LOW(0x0)
	BREQ _0x127
_0x126:
	RJMP _0x125
_0x127:
; 0000 030B       EILUTES_SKAICIUS = 20;
	LDI  R30,LOW(20)
	CALL SUBOPT_0xB
; 0000 030C       g = 1;}
; 0000 030D       if((EILUTES_SKAICIUS>=2)&&(g==0)){
_0x125:
	LDS  R26,_EILUTES_SKAICIUS
	CPI  R26,LOW(0x2)
	BRLT _0x129
	LDS  R26,_g
	CPI  R26,LOW(0x0)
	BREQ _0x12A
_0x129:
	RJMP _0x128
_0x12A:
; 0000 030E       EILUTES_SKAICIUS = EILUTES_SKAICIUS - 1;
	LDS  R30,_EILUTES_SKAICIUS
	CALL SUBOPT_0x7
	CALL SUBOPT_0xB
; 0000 030F       g = 1;}}
_0x128:
; 0000 0310       g = 0;
_0x124:
	LDI  R30,LOW(0)
	STS  _g,R30
; 0000 0311       if(MYGTUKAS_7){
	LDS  R30,_MYGTUKAS_7
	CPI  R30,0
	BREQ _0x12B
; 0000 0312       EILUTES_SKAICIUS = 0;}}
	LDI  R30,LOW(0)
	STS  _EILUTES_SKAICIUS,R30
_0x12B:
; 0000 0313       //REDAGAVIMAS:
; 0000 0314 
; 0000 0315       if(MYGTUKAS_6==1){
_0x11C:
	LDS  R26,_MYGTUKAS_6
	CPI  R26,LOW(0x1)
	BRNE _0x12C
; 0000 0316       REDAGAVIMAS = 1;}
	LDI  R30,LOW(1)
	STS  _REDAGAVIMAS,R30
; 0000 0317       if(MYGTUKAS_2==1){
_0x12C:
	LDS  R26,_MYGTUKAS_2
	CPI  R26,LOW(0x1)
	BRNE _0x12D
; 0000 0318       REDAG_SK_NR = REDAG_SK_NR - 1;}
	LDS  R30,_REDAG_SK_NR
	CALL SUBOPT_0x7
	STS  _REDAG_SK_NR,R30
; 0000 0319       if(MYGTUKAS_4==1){
_0x12D:
	LDS  R26,_MYGTUKAS_4
	CPI  R26,LOW(0x1)
	BRNE _0x12E
; 0000 031A       REDAG_SK_NR = REDAG_SK_NR + 1;}
	LDS  R30,_REDAG_SK_NR
	SUBI R30,-LOW(1)
	STS  _REDAG_SK_NR,R30
; 0000 031B 
; 0000 031C       if(REDAG_SK_NR==-1){
_0x12E:
	LDS  R26,_REDAG_SK_NR
	CPI  R26,LOW(0xFF)
	BRNE _0x12F
; 0000 031D       REDAG_SK_NR = 3;}
	LDI  R30,LOW(3)
	STS  _REDAG_SK_NR,R30
; 0000 031E 
; 0000 031F       if(REDAG_SK_NR==4){
_0x12F:
	LDS  R26,_REDAG_SK_NR
	CPI  R26,LOW(0x4)
	BRNE _0x130
; 0000 0320       REDAG_SK_NR = 0;}
	LDI  R30,LOW(0)
	STS  _REDAG_SK_NR,R30
; 0000 0321 
; 0000 0322       if(MYGTUKAS_3==1){
_0x130:
	LDS  R26,_MYGTUKAS_3
	CPI  R26,LOW(0x1)
	BRNE _0x131
; 0000 0323       REDAGAVIMAS = 0;
	CALL SUBOPT_0x8
; 0000 0324       REDAG_SK_NR = 0;}
	STS  _REDAG_SK_NR,R30
; 0000 0325 
; 0000 0326       //TIKROJO LAIKO REDAGAVIMAS:
; 0000 0327       if((EILUTES_SKAICIUS==0)&&(REDAGAVIMAS==1)){
_0x131:
	LDS  R26,_EILUTES_SKAICIUS
	CPI  R26,LOW(0x0)
	BRNE _0x133
	LDS  R26,_REDAGAVIMAS
	CPI  R26,LOW(0x1)
	BREQ _0x134
_0x133:
	RJMP _0x132
_0x134:
; 0000 0328       if((REDAG_SK_NR==0)&&(MYGTUKAS_1==1)){
	LDS  R26,_REDAG_SK_NR
	CPI  R26,LOW(0x0)
	BRNE _0x136
	LDS  R26,_MYGTUKAS_1
	CPI  R26,LOW(0x1)
	BREQ _0x137
_0x136:
	RJMP _0x135
_0x137:
; 0000 0329       desimtys_valandos = desimtys_valandos + 1;}
	LDS  R30,_desimtys_valandos
	SUBI R30,-LOW(1)
	STS  _desimtys_valandos,R30
; 0000 032A       if((REDAG_SK_NR==0)&&(MYGTUKAS_5==1)){
_0x135:
	LDS  R26,_REDAG_SK_NR
	CPI  R26,LOW(0x0)
	BRNE _0x139
	LDS  R26,_MYGTUKAS_5
	CPI  R26,LOW(0x1)
	BREQ _0x13A
_0x139:
	RJMP _0x138
_0x13A:
; 0000 032B       desimtys_valandos = desimtys_valandos - 1;}
	LDS  R30,_desimtys_valandos
	CALL SUBOPT_0x7
	STS  _desimtys_valandos,R30
; 0000 032C       if((REDAG_SK_NR==1)&&(MYGTUKAS_1==1)){
_0x138:
	LDS  R26,_REDAG_SK_NR
	CPI  R26,LOW(0x1)
	BRNE _0x13C
	LDS  R26,_MYGTUKAS_1
	CPI  R26,LOW(0x1)
	BREQ _0x13D
_0x13C:
	RJMP _0x13B
_0x13D:
; 0000 032D       valandos = valandos + 1;}
	LDS  R30,_valandos
	SUBI R30,-LOW(1)
	STS  _valandos,R30
; 0000 032E       if((REDAG_SK_NR==1)&&(MYGTUKAS_5==1)){
_0x13B:
	LDS  R26,_REDAG_SK_NR
	CPI  R26,LOW(0x1)
	BRNE _0x13F
	LDS  R26,_MYGTUKAS_5
	CPI  R26,LOW(0x1)
	BREQ _0x140
_0x13F:
	RJMP _0x13E
_0x140:
; 0000 032F       valandos = valandos - 1;}
	LDS  R30,_valandos
	CALL SUBOPT_0x7
	STS  _valandos,R30
; 0000 0330       if((REDAG_SK_NR==2)&&(MYGTUKAS_1==1)){
_0x13E:
	LDS  R26,_REDAG_SK_NR
	CPI  R26,LOW(0x2)
	BRNE _0x142
	LDS  R26,_MYGTUKAS_1
	CPI  R26,LOW(0x1)
	BREQ _0x143
_0x142:
	RJMP _0x141
_0x143:
; 0000 0331       desimtys_minutes = desimtys_minutes + 1;}
	LDS  R30,_desimtys_minutes
	SUBI R30,-LOW(1)
	STS  _desimtys_minutes,R30
; 0000 0332       if((REDAG_SK_NR==2)&&(MYGTUKAS_5==1)){
_0x141:
	LDS  R26,_REDAG_SK_NR
	CPI  R26,LOW(0x2)
	BRNE _0x145
	LDS  R26,_MYGTUKAS_5
	CPI  R26,LOW(0x1)
	BREQ _0x146
_0x145:
	RJMP _0x144
_0x146:
; 0000 0333       desimtys_minutes = desimtys_minutes - 1;}
	LDS  R30,_desimtys_minutes
	CALL SUBOPT_0x7
	STS  _desimtys_minutes,R30
; 0000 0334       if((REDAG_SK_NR==3)&&(MYGTUKAS_1==1)){
_0x144:
	LDS  R26,_REDAG_SK_NR
	CPI  R26,LOW(0x3)
	BRNE _0x148
	LDS  R26,_MYGTUKAS_1
	CPI  R26,LOW(0x1)
	BREQ _0x149
_0x148:
	RJMP _0x147
_0x149:
; 0000 0335       minutes = minutes + 1;}
	LDS  R30,_minutes
	SUBI R30,-LOW(1)
	STS  _minutes,R30
; 0000 0336       if((REDAG_SK_NR==3)&&(MYGTUKAS_5==1)){
_0x147:
	LDS  R26,_REDAG_SK_NR
	CPI  R26,LOW(0x3)
	BRNE _0x14B
	LDS  R26,_MYGTUKAS_5
	CPI  R26,LOW(0x1)
	BREQ _0x14C
_0x14B:
	RJMP _0x14A
_0x14C:
; 0000 0337       minutes = minutes - 1;}}
	LDS  R30,_minutes
	CALL SUBOPT_0x7
	STS  _minutes,R30
_0x14A:
; 0000 0338       if(REDAGAVIMAS==1){
_0x132:
	LDS  R26,_REDAGAVIMAS
	CPI  R26,LOW(0x1)
	BREQ PC+3
	JMP _0x14D
; 0000 0339       if(minutes==10){
	LDS  R26,_minutes
	CPI  R26,LOW(0xA)
	BRNE _0x14E
; 0000 033A       minutes=0;}
	LDI  R30,LOW(0)
	STS  _minutes,R30
; 0000 033B       if(desimtys_minutes==6){
_0x14E:
	LDS  R26,_desimtys_minutes
	CPI  R26,LOW(0x6)
	BRNE _0x14F
; 0000 033C       desimtys_minutes = 0;}
	LDI  R30,LOW(0)
	STS  _desimtys_minutes,R30
; 0000 033D       if(valandos==10){
_0x14F:
	LDS  R26,_valandos
	CPI  R26,LOW(0xA)
	BRNE _0x150
; 0000 033E       valandos = 0;}
	LDI  R30,LOW(0)
	STS  _valandos,R30
; 0000 033F       if(desimtys_valandos==3){
_0x150:
	LDS  R26,_desimtys_valandos
	CPI  R26,LOW(0x3)
	BRNE _0x151
; 0000 0340       desimtys_valandos = 0;}
	LDI  R30,LOW(0)
	STS  _desimtys_valandos,R30
; 0000 0341       if((desimtys_valandos==2)&&(valandos>=4)){
_0x151:
	LDS  R26,_desimtys_valandos
	CPI  R26,LOW(0x2)
	BRNE _0x153
	LDS  R26,_valandos
	CPI  R26,LOW(0x4)
	BRGE _0x154
_0x153:
	RJMP _0x152
_0x154:
; 0000 0342       desimtys_valandos = 0;}
	LDI  R30,LOW(0)
	STS  _desimtys_valandos,R30
; 0000 0343 
; 0000 0344       if(minutes==-1){
_0x152:
	LDS  R26,_minutes
	CPI  R26,LOW(0xFF)
	BRNE _0x155
; 0000 0345       minutes = 9;}
	LDI  R30,LOW(9)
	STS  _minutes,R30
; 0000 0346       if(desimtys_minutes==-1){
_0x155:
	LDS  R26,_desimtys_minutes
	CPI  R26,LOW(0xFF)
	BRNE _0x156
; 0000 0347       desimtys_minutes = 5;}
	LDI  R30,LOW(5)
	STS  _desimtys_minutes,R30
; 0000 0348       if((valandos==-1)&&(desimtys_valandos<=1)){
_0x156:
	LDS  R26,_valandos
	CPI  R26,LOW(0xFF)
	BRNE _0x158
	LDS  R26,_desimtys_valandos
	CPI  R26,LOW(0x2)
	BRLT _0x159
_0x158:
	RJMP _0x157
_0x159:
; 0000 0349       valandos = 9;}
	LDI  R30,LOW(9)
	STS  _valandos,R30
; 0000 034A       if((valandos==-1)&&(desimtys_valandos>=2)){
_0x157:
	LDS  R26,_valandos
	CPI  R26,LOW(0xFF)
	BRNE _0x15B
	LDS  R26,_desimtys_valandos
	CPI  R26,LOW(0x2)
	BRGE _0x15C
_0x15B:
	RJMP _0x15A
_0x15C:
; 0000 034B       valandos = 3;}}
	LDI  R30,LOW(3)
	STS  _valandos,R30
_0x15A:
; 0000 034C 
; 0000 034D 
; 0000 034E 
; 0000 034F       //skambucio laiko redagavimas:
; 0000 0350        if(EILUTES_SKAICIUS==0){
_0x14D:
	LDS  R30,_EILUTES_SKAICIUS
	CPI  R30,0
	BRNE _0x15D
; 0000 0351       d = 0;
	LDI  R30,LOW(0)
	STS  _d,R30
; 0000 0352       e = 0;}
	STS  _e,R30
; 0000 0353 
; 0000 0354 
; 0000 0355       if(EILUTES_SKAICIUS!=0){
_0x15D:
	LDS  R30,_EILUTES_SKAICIUS
	CPI  R30,0
	BREQ _0x15E
; 0000 0356       d = EILUTES_SKAICIUS/10;
	LDS  R26,_EILUTES_SKAICIUS
	LDI  R27,0
	SBRC R26,7
	SER  R27
	LDI  R30,LOW(10)
	LDI  R31,HIGH(10)
	CALL __DIVW21
	STS  _d,R30
; 0000 0357       e = EILUTES_SKAICIUS - d*10;}
	LDS  R30,_EILUTES_SKAICIUS
	LDI  R31,0
	SBRC R30,7
	SER  R31
	MOVW R22,R30
	LDS  R26,_d
	LDI  R30,LOW(10)
	MULS R30,R26
	MOVW R30,R0
	MOVW R26,R30
	MOVW R30,R22
	SUB  R30,R26
	SBC  R31,R27
	STS  _e,R30
; 0000 0358 
; 0000 0359       {if(EILUTES_SKAICIUS!=EIL_SK){
_0x15E:
	LDS  R30,_EIL_SK
	LDS  R26,_EILUTES_SKAICIUS
	CP   R30,R26
	BREQ _0x15F
; 0000 035A       f = 1;}
	LDI  R30,LOW(1)
	RJMP _0x33C
; 0000 035B       else
_0x15F:
; 0000 035C       f = 0;}
	LDI  R30,LOW(0)
_0x33C:
	STS  _f,R30
; 0000 035D 
; 0000 035E       EIL_SK = EILUTES_SKAICIUS;
	LDS  R30,_EILUTES_SKAICIUS
	STS  _EIL_SK,R30
; 0000 035F 
; 0000 0360       if((EILUTES_SKAICIUS==1)&&(f==1)){
	LDS  R26,_EILUTES_SKAICIUS
	CPI  R26,LOW(0x1)
	BRNE _0x162
	LDS  R26,_f
	CPI  R26,LOW(0x1)
	BREQ _0x163
_0x162:
	RJMP _0x161
_0x163:
; 0000 0361       x = SKAMBUTIS_1dh;
	LDS  R30,_SKAMBUTIS_1dh
	STS  _x,R30
; 0000 0362       y = SKAMBUTIS_1h;
	LDS  R30,_SKAMBUTIS_1h
	STS  _y,R30
; 0000 0363       z = SKAMBUTIS_1dm;
	LDS  R30,_SKAMBUTIS_1dm
	STS  _z,R30
; 0000 0364       k = SKAMBUTIS_1m;}
	LDS  R30,_SKAMBUTIS_1m
	STS  _k,R30
; 0000 0365       if((EILUTES_SKAICIUS==2)&&(f==1)){
_0x161:
	LDS  R26,_EILUTES_SKAICIUS
	CPI  R26,LOW(0x2)
	BRNE _0x165
	LDS  R26,_f
	CPI  R26,LOW(0x1)
	BREQ _0x166
_0x165:
	RJMP _0x164
_0x166:
; 0000 0366       x = SKAMBUTIS_2dh;
	LDS  R30,_SKAMBUTIS_2dh
	STS  _x,R30
; 0000 0367       y = SKAMBUTIS_2h;
	LDS  R30,_SKAMBUTIS_2h
	STS  _y,R30
; 0000 0368       z = SKAMBUTIS_2dm;
	LDS  R30,_SKAMBUTIS_2dm
	STS  _z,R30
; 0000 0369       k = SKAMBUTIS_2m;}
	LDS  R30,_SKAMBUTIS_2m
	STS  _k,R30
; 0000 036A       if((EILUTES_SKAICIUS==3)&&(f==1)){
_0x164:
	LDS  R26,_EILUTES_SKAICIUS
	CPI  R26,LOW(0x3)
	BRNE _0x168
	LDS  R26,_f
	CPI  R26,LOW(0x1)
	BREQ _0x169
_0x168:
	RJMP _0x167
_0x169:
; 0000 036B       x = SKAMBUTIS_3dh;
	LDS  R30,_SKAMBUTIS_3dh
	STS  _x,R30
; 0000 036C       y = SKAMBUTIS_3h;
	LDS  R30,_SKAMBUTIS_3h
	STS  _y,R30
; 0000 036D       z = SKAMBUTIS_3dm;
	LDS  R30,_SKAMBUTIS_3dm
	STS  _z,R30
; 0000 036E       k = SKAMBUTIS_3m;}
	LDS  R30,_SKAMBUTIS_3m
	STS  _k,R30
; 0000 036F       if((EILUTES_SKAICIUS==4)&&(f==1)){
_0x167:
	LDS  R26,_EILUTES_SKAICIUS
	CPI  R26,LOW(0x4)
	BRNE _0x16B
	LDS  R26,_f
	CPI  R26,LOW(0x1)
	BREQ _0x16C
_0x16B:
	RJMP _0x16A
_0x16C:
; 0000 0370       x = SKAMBUTIS_4dh;
	LDS  R30,_SKAMBUTIS_4dh
	STS  _x,R30
; 0000 0371       y = SKAMBUTIS_4h;
	LDS  R30,_SKAMBUTIS_4h
	STS  _y,R30
; 0000 0372       z = SKAMBUTIS_4dm;
	LDS  R30,_SKAMBUTIS_4dm
	STS  _z,R30
; 0000 0373       k = SKAMBUTIS_4m;}
	LDS  R30,_SKAMBUTIS_4m
	STS  _k,R30
; 0000 0374       if((EILUTES_SKAICIUS==5)&&(f==1)){
_0x16A:
	LDS  R26,_EILUTES_SKAICIUS
	CPI  R26,LOW(0x5)
	BRNE _0x16E
	LDS  R26,_f
	CPI  R26,LOW(0x1)
	BREQ _0x16F
_0x16E:
	RJMP _0x16D
_0x16F:
; 0000 0375       x = SKAMBUTIS_5dh;
	LDS  R30,_SKAMBUTIS_5dh
	STS  _x,R30
; 0000 0376       y = SKAMBUTIS_5h;
	LDS  R30,_SKAMBUTIS_5h
	STS  _y,R30
; 0000 0377       z = SKAMBUTIS_5dm;
	LDS  R30,_SKAMBUTIS_5dm
	STS  _z,R30
; 0000 0378       k = SKAMBUTIS_5m;}
	LDS  R30,_SKAMBUTIS_5m
	STS  _k,R30
; 0000 0379       if((EILUTES_SKAICIUS==6)&&(f==1)){
_0x16D:
	LDS  R26,_EILUTES_SKAICIUS
	CPI  R26,LOW(0x6)
	BRNE _0x171
	LDS  R26,_f
	CPI  R26,LOW(0x1)
	BREQ _0x172
_0x171:
	RJMP _0x170
_0x172:
; 0000 037A       x = SKAMBUTIS_6dh;
	LDS  R30,_SKAMBUTIS_6dh
	STS  _x,R30
; 0000 037B       y = SKAMBUTIS_6h;
	LDS  R30,_SKAMBUTIS_6h
	STS  _y,R30
; 0000 037C       z = SKAMBUTIS_6dm;
	LDS  R30,_SKAMBUTIS_6dm
	STS  _z,R30
; 0000 037D       k = SKAMBUTIS_6m;}
	LDS  R30,_SKAMBUTIS_6m
	STS  _k,R30
; 0000 037E       if((EILUTES_SKAICIUS==7)&&(f==1)){
_0x170:
	LDS  R26,_EILUTES_SKAICIUS
	CPI  R26,LOW(0x7)
	BRNE _0x174
	LDS  R26,_f
	CPI  R26,LOW(0x1)
	BREQ _0x175
_0x174:
	RJMP _0x173
_0x175:
; 0000 037F       x = SKAMBUTIS_7dh;
	LDS  R30,_SKAMBUTIS_7dh
	STS  _x,R30
; 0000 0380       y = SKAMBUTIS_7h;
	LDS  R30,_SKAMBUTIS_7h
	STS  _y,R30
; 0000 0381       z = SKAMBUTIS_7dm;
	LDS  R30,_SKAMBUTIS_7dm
	STS  _z,R30
; 0000 0382       k = SKAMBUTIS_7m;}
	LDS  R30,_SKAMBUTIS_7m
	STS  _k,R30
; 0000 0383       if((EILUTES_SKAICIUS==8)&&(f==1)){
_0x173:
	LDS  R26,_EILUTES_SKAICIUS
	CPI  R26,LOW(0x8)
	BRNE _0x177
	LDS  R26,_f
	CPI  R26,LOW(0x1)
	BREQ _0x178
_0x177:
	RJMP _0x176
_0x178:
; 0000 0384       x = SKAMBUTIS_8dh;
	LDS  R30,_SKAMBUTIS_8dh
	STS  _x,R30
; 0000 0385       y = SKAMBUTIS_8h;
	LDS  R30,_SKAMBUTIS_8h
	STS  _y,R30
; 0000 0386       z = SKAMBUTIS_8dm;
	LDS  R30,_SKAMBUTIS_8dm
	STS  _z,R30
; 0000 0387       k = SKAMBUTIS_8m;}
	LDS  R30,_SKAMBUTIS_8m
	STS  _k,R30
; 0000 0388       if((EILUTES_SKAICIUS==9)&&(f==1)){
_0x176:
	LDS  R26,_EILUTES_SKAICIUS
	CPI  R26,LOW(0x9)
	BRNE _0x17A
	LDS  R26,_f
	CPI  R26,LOW(0x1)
	BREQ _0x17B
_0x17A:
	RJMP _0x179
_0x17B:
; 0000 0389       x = SKAMBUTIS_9dh;
	LDS  R30,_SKAMBUTIS_9dh
	STS  _x,R30
; 0000 038A       y = SKAMBUTIS_9h;
	LDS  R30,_SKAMBUTIS_9h
	STS  _y,R30
; 0000 038B       z = SKAMBUTIS_9dm;
	LDS  R30,_SKAMBUTIS_9dm
	STS  _z,R30
; 0000 038C       k = SKAMBUTIS_9m;}
	LDS  R30,_SKAMBUTIS_9m
	STS  _k,R30
; 0000 038D       if((EILUTES_SKAICIUS==10)&&(f==1)){
_0x179:
	LDS  R26,_EILUTES_SKAICIUS
	CPI  R26,LOW(0xA)
	BRNE _0x17D
	LDS  R26,_f
	CPI  R26,LOW(0x1)
	BREQ _0x17E
_0x17D:
	RJMP _0x17C
_0x17E:
; 0000 038E       x = SKAMBUTIS_10dh;
	LDS  R30,_SKAMBUTIS_10dh
	STS  _x,R30
; 0000 038F       y = SKAMBUTIS_10h;
	LDS  R30,_SKAMBUTIS_10h
	STS  _y,R30
; 0000 0390       z = SKAMBUTIS_10dm;
	LDS  R30,_SKAMBUTIS_10dm
	STS  _z,R30
; 0000 0391       k = SKAMBUTIS_10m;}
	LDS  R30,_SKAMBUTIS_10m
	STS  _k,R30
; 0000 0392       if((EILUTES_SKAICIUS==11)&&(f==1)){
_0x17C:
	LDS  R26,_EILUTES_SKAICIUS
	CPI  R26,LOW(0xB)
	BRNE _0x180
	LDS  R26,_f
	CPI  R26,LOW(0x1)
	BREQ _0x181
_0x180:
	RJMP _0x17F
_0x181:
; 0000 0393       x = SKAMBUTIS_11dh;
	LDS  R30,_SKAMBUTIS_11dh
	STS  _x,R30
; 0000 0394       y = SKAMBUTIS_11h;
	LDS  R30,_SKAMBUTIS_11h
	STS  _y,R30
; 0000 0395       z = SKAMBUTIS_11dm;
	LDS  R30,_SKAMBUTIS_11dm
	STS  _z,R30
; 0000 0396       k = SKAMBUTIS_11m;}
	LDS  R30,_SKAMBUTIS_11m
	STS  _k,R30
; 0000 0397       if((EILUTES_SKAICIUS==12)&&(f==1)){
_0x17F:
	LDS  R26,_EILUTES_SKAICIUS
	CPI  R26,LOW(0xC)
	BRNE _0x183
	LDS  R26,_f
	CPI  R26,LOW(0x1)
	BREQ _0x184
_0x183:
	RJMP _0x182
_0x184:
; 0000 0398       x = SKAMBUTIS_12dh;
	LDS  R30,_SKAMBUTIS_12dh
	STS  _x,R30
; 0000 0399       y = SKAMBUTIS_12h;
	LDS  R30,_SKAMBUTIS_12h
	STS  _y,R30
; 0000 039A       z = SKAMBUTIS_12dm;
	LDS  R30,_SKAMBUTIS_12dm
	STS  _z,R30
; 0000 039B       k = SKAMBUTIS_12m;}
	LDS  R30,_SKAMBUTIS_12m
	STS  _k,R30
; 0000 039C       if((EILUTES_SKAICIUS==13)&&(f==1)){
_0x182:
	LDS  R26,_EILUTES_SKAICIUS
	CPI  R26,LOW(0xD)
	BRNE _0x186
	LDS  R26,_f
	CPI  R26,LOW(0x1)
	BREQ _0x187
_0x186:
	RJMP _0x185
_0x187:
; 0000 039D       x = SKAMBUTIS_13dh;
	LDS  R30,_SKAMBUTIS_13dh
	STS  _x,R30
; 0000 039E       y = SKAMBUTIS_13h;
	LDS  R30,_SKAMBUTIS_13h
	STS  _y,R30
; 0000 039F       z = SKAMBUTIS_13dm;
	LDS  R30,_SKAMBUTIS_13dm
	STS  _z,R30
; 0000 03A0       k = SKAMBUTIS_13m;}
	LDS  R30,_SKAMBUTIS_13m
	STS  _k,R30
; 0000 03A1       if((EILUTES_SKAICIUS==14)&&(f==1)){
_0x185:
	LDS  R26,_EILUTES_SKAICIUS
	CPI  R26,LOW(0xE)
	BRNE _0x189
	LDS  R26,_f
	CPI  R26,LOW(0x1)
	BREQ _0x18A
_0x189:
	RJMP _0x188
_0x18A:
; 0000 03A2       x = SKAMBUTIS_14dh;
	LDS  R30,_SKAMBUTIS_14dh
	STS  _x,R30
; 0000 03A3       y = SKAMBUTIS_14h;
	LDS  R30,_SKAMBUTIS_14h
	STS  _y,R30
; 0000 03A4       z = SKAMBUTIS_14dm;
	LDS  R30,_SKAMBUTIS_14dm
	STS  _z,R30
; 0000 03A5       k = SKAMBUTIS_14m;}
	LDS  R30,_SKAMBUTIS_14m
	STS  _k,R30
; 0000 03A6       if((EILUTES_SKAICIUS==15)&&(f==1)){
_0x188:
	LDS  R26,_EILUTES_SKAICIUS
	CPI  R26,LOW(0xF)
	BRNE _0x18C
	LDS  R26,_f
	CPI  R26,LOW(0x1)
	BREQ _0x18D
_0x18C:
	RJMP _0x18B
_0x18D:
; 0000 03A7       x = SKAMBUTIS_15dh;
	LDS  R30,_SKAMBUTIS_15dh
	STS  _x,R30
; 0000 03A8       y = SKAMBUTIS_15h;
	LDS  R30,_SKAMBUTIS_15h
	STS  _y,R30
; 0000 03A9       z = SKAMBUTIS_15dm;
	LDS  R30,_SKAMBUTIS_15dm
	STS  _z,R30
; 0000 03AA       k = SKAMBUTIS_15m;}
	LDS  R30,_SKAMBUTIS_15m
	STS  _k,R30
; 0000 03AB       if((EILUTES_SKAICIUS==16)&&(f==1)){
_0x18B:
	LDS  R26,_EILUTES_SKAICIUS
	CPI  R26,LOW(0x10)
	BRNE _0x18F
	LDS  R26,_f
	CPI  R26,LOW(0x1)
	BREQ _0x190
_0x18F:
	RJMP _0x18E
_0x190:
; 0000 03AC       x = SKAMBUTIS_16dh;
	LDS  R30,_SKAMBUTIS_16dh
	STS  _x,R30
; 0000 03AD       y = SKAMBUTIS_16h;
	LDS  R30,_SKAMBUTIS_16h
	STS  _y,R30
; 0000 03AE       z = SKAMBUTIS_16dm;
	LDS  R30,_SKAMBUTIS_16dm
	STS  _z,R30
; 0000 03AF       k = SKAMBUTIS_16m;}
	LDS  R30,_SKAMBUTIS_16m
	STS  _k,R30
; 0000 03B0       if((EILUTES_SKAICIUS==17)&&(f==1)){
_0x18E:
	LDS  R26,_EILUTES_SKAICIUS
	CPI  R26,LOW(0x11)
	BRNE _0x192
	LDS  R26,_f
	CPI  R26,LOW(0x1)
	BREQ _0x193
_0x192:
	RJMP _0x191
_0x193:
; 0000 03B1       x = SKAMBUTIS_17dh;
	LDS  R30,_SKAMBUTIS_17dh
	STS  _x,R30
; 0000 03B2       y = SKAMBUTIS_17h;
	LDS  R30,_SKAMBUTIS_17h
	STS  _y,R30
; 0000 03B3       z = SKAMBUTIS_17dm;
	LDS  R30,_SKAMBUTIS_17dm
	STS  _z,R30
; 0000 03B4       k = SKAMBUTIS_17m;}
	LDS  R30,_SKAMBUTIS_17m
	STS  _k,R30
; 0000 03B5       if((EILUTES_SKAICIUS==18)&&(f==1)){
_0x191:
	LDS  R26,_EILUTES_SKAICIUS
	CPI  R26,LOW(0x12)
	BRNE _0x195
	LDS  R26,_f
	CPI  R26,LOW(0x1)
	BREQ _0x196
_0x195:
	RJMP _0x194
_0x196:
; 0000 03B6       x = SKAMBUTIS_18dh;
	LDS  R30,_SKAMBUTIS_18dh
	STS  _x,R30
; 0000 03B7       y = SKAMBUTIS_18h;
	LDS  R30,_SKAMBUTIS_18h
	STS  _y,R30
; 0000 03B8       z = SKAMBUTIS_18dm;
	LDS  R30,_SKAMBUTIS_18dm
	STS  _z,R30
; 0000 03B9       k = SKAMBUTIS_18m;}
	LDS  R30,_SKAMBUTIS_18m
	STS  _k,R30
; 0000 03BA       if((EILUTES_SKAICIUS==19)&&(f==1)){
_0x194:
	LDS  R26,_EILUTES_SKAICIUS
	CPI  R26,LOW(0x13)
	BRNE _0x198
	LDS  R26,_f
	CPI  R26,LOW(0x1)
	BREQ _0x199
_0x198:
	RJMP _0x197
_0x199:
; 0000 03BB       x = SKAMBUTIS_19dh;
	LDS  R30,_SKAMBUTIS_19dh
	STS  _x,R30
; 0000 03BC       y = SKAMBUTIS_19h;
	LDS  R30,_SKAMBUTIS_19h
	STS  _y,R30
; 0000 03BD       z = SKAMBUTIS_19dm;
	LDS  R30,_SKAMBUTIS_19dm
	STS  _z,R30
; 0000 03BE       k = SKAMBUTIS_19m;}
	LDS  R30,_SKAMBUTIS_19m
	STS  _k,R30
; 0000 03BF       if((EILUTES_SKAICIUS==20)&&(f==1)){
_0x197:
	LDS  R26,_EILUTES_SKAICIUS
	CPI  R26,LOW(0x14)
	BRNE _0x19B
	LDS  R26,_f
	CPI  R26,LOW(0x1)
	BREQ _0x19C
_0x19B:
	RJMP _0x19A
_0x19C:
; 0000 03C0       x = SKAMBUTIS_20dh;
	LDS  R30,_SKAMBUTIS_20dh
	STS  _x,R30
; 0000 03C1       y = SKAMBUTIS_20h;
	LDS  R30,_SKAMBUTIS_20h
	STS  _y,R30
; 0000 03C2       z = SKAMBUTIS_20dm;
	LDS  R30,_SKAMBUTIS_20dm
	STS  _z,R30
; 0000 03C3       k = SKAMBUTIS_20m;}
	LDS  R30,_SKAMBUTIS_20m
	STS  _k,R30
; 0000 03C4 
; 0000 03C5       if((EILUTES_SKAICIUS!=0)&&(REDAGAVIMAS==1)){
_0x19A:
	LDS  R26,_EILUTES_SKAICIUS
	CPI  R26,LOW(0x0)
	BREQ _0x19E
	LDS  R26,_REDAGAVIMAS
	CPI  R26,LOW(0x1)
	BREQ _0x19F
_0x19E:
	RJMP _0x19D
_0x19F:
; 0000 03C6       if((MYGTUKAS_1==1)&&(REDAG_SK_NR==3)){
	LDS  R26,_MYGTUKAS_1
	CPI  R26,LOW(0x1)
	BRNE _0x1A1
	LDS  R26,_REDAG_SK_NR
	CPI  R26,LOW(0x3)
	BREQ _0x1A2
_0x1A1:
	RJMP _0x1A0
_0x1A2:
; 0000 03C7       k = k + 1;}
	LDS  R30,_k
	SUBI R30,-LOW(1)
	STS  _k,R30
; 0000 03C8       if((MYGTUKAS_5==1)&&(REDAG_SK_NR==3)){
_0x1A0:
	LDS  R26,_MYGTUKAS_5
	CPI  R26,LOW(0x1)
	BRNE _0x1A4
	LDS  R26,_REDAG_SK_NR
	CPI  R26,LOW(0x3)
	BREQ _0x1A5
_0x1A4:
	RJMP _0x1A3
_0x1A5:
; 0000 03C9       k = k - 1;}
	LDS  R30,_k
	CALL SUBOPT_0x7
	STS  _k,R30
; 0000 03CA       if((MYGTUKAS_1==1)&&(REDAG_SK_NR==2)){
_0x1A3:
	LDS  R26,_MYGTUKAS_1
	CPI  R26,LOW(0x1)
	BRNE _0x1A7
	LDS  R26,_REDAG_SK_NR
	CPI  R26,LOW(0x2)
	BREQ _0x1A8
_0x1A7:
	RJMP _0x1A6
_0x1A8:
; 0000 03CB       z = z + 1;}
	LDS  R30,_z
	SUBI R30,-LOW(1)
	STS  _z,R30
; 0000 03CC       if((MYGTUKAS_5==1)&&(REDAG_SK_NR==2)){
_0x1A6:
	LDS  R26,_MYGTUKAS_5
	CPI  R26,LOW(0x1)
	BRNE _0x1AA
	LDS  R26,_REDAG_SK_NR
	CPI  R26,LOW(0x2)
	BREQ _0x1AB
_0x1AA:
	RJMP _0x1A9
_0x1AB:
; 0000 03CD       z = z - 1;}
	LDS  R30,_z
	CALL SUBOPT_0x7
	STS  _z,R30
; 0000 03CE       if((MYGTUKAS_1==1)&&(REDAG_SK_NR==1)){
_0x1A9:
	LDS  R26,_MYGTUKAS_1
	CPI  R26,LOW(0x1)
	BRNE _0x1AD
	LDS  R26,_REDAG_SK_NR
	CPI  R26,LOW(0x1)
	BREQ _0x1AE
_0x1AD:
	RJMP _0x1AC
_0x1AE:
; 0000 03CF       y = y + 1;}
	LDS  R30,_y
	SUBI R30,-LOW(1)
	STS  _y,R30
; 0000 03D0       if((MYGTUKAS_5==1)&&(REDAG_SK_NR==1)){
_0x1AC:
	LDS  R26,_MYGTUKAS_5
	CPI  R26,LOW(0x1)
	BRNE _0x1B0
	LDS  R26,_REDAG_SK_NR
	CPI  R26,LOW(0x1)
	BREQ _0x1B1
_0x1B0:
	RJMP _0x1AF
_0x1B1:
; 0000 03D1       y = y - 1;}
	LDS  R30,_y
	CALL SUBOPT_0x7
	STS  _y,R30
; 0000 03D2       if((MYGTUKAS_1==1)&&(REDAG_SK_NR==0)){
_0x1AF:
	LDS  R26,_MYGTUKAS_1
	CPI  R26,LOW(0x1)
	BRNE _0x1B3
	LDS  R26,_REDAG_SK_NR
	CPI  R26,LOW(0x0)
	BREQ _0x1B4
_0x1B3:
	RJMP _0x1B2
_0x1B4:
; 0000 03D3       x = x + 1;}
	LDS  R30,_x
	SUBI R30,-LOW(1)
	STS  _x,R30
; 0000 03D4       if((MYGTUKAS_5==1)&&(REDAG_SK_NR==0)){
_0x1B2:
	LDS  R26,_MYGTUKAS_5
	CPI  R26,LOW(0x1)
	BRNE _0x1B6
	LDS  R26,_REDAG_SK_NR
	CPI  R26,LOW(0x0)
	BREQ _0x1B7
_0x1B6:
	RJMP _0x1B5
_0x1B7:
; 0000 03D5       x = x - 1;}
	LDS  R30,_x
	CALL SUBOPT_0x7
	STS  _x,R30
; 0000 03D6 
; 0000 03D7       if(k==-1){
_0x1B5:
	LDS  R26,_k
	CPI  R26,LOW(0xFF)
	BRNE _0x1B8
; 0000 03D8       k = 9;}
	LDI  R30,LOW(9)
	STS  _k,R30
; 0000 03D9       if(z==-1){
_0x1B8:
	LDS  R26,_z
	CPI  R26,LOW(0xFF)
	BRNE _0x1B9
; 0000 03DA       z = 5;}
	LDI  R30,LOW(5)
	STS  _z,R30
; 0000 03DB       if((y==-1)&&(x==2)){
_0x1B9:
	LDS  R26,_y
	CPI  R26,LOW(0xFF)
	BRNE _0x1BB
	LDS  R26,_x
	CPI  R26,LOW(0x2)
	BREQ _0x1BC
_0x1BB:
	RJMP _0x1BA
_0x1BC:
; 0000 03DC       y = 3;}
	LDI  R30,LOW(3)
	STS  _y,R30
; 0000 03DD       if((y==-1)&&(x!=2)){
_0x1BA:
	LDS  R26,_y
	CPI  R26,LOW(0xFF)
	BRNE _0x1BE
	LDS  R26,_x
	CPI  R26,LOW(0x2)
	BRNE _0x1BF
_0x1BE:
	RJMP _0x1BD
_0x1BF:
; 0000 03DE       y = 9;}
	LDI  R30,LOW(9)
	STS  _y,R30
; 0000 03DF       if((x==-1)&&(y >3)){
_0x1BD:
	LDS  R26,_x
	CPI  R26,LOW(0xFF)
	BRNE _0x1C1
	LDS  R26,_y
	CPI  R26,LOW(0x4)
	BRGE _0x1C2
_0x1C1:
	RJMP _0x1C0
_0x1C2:
; 0000 03E0       x = 1;}
	LDI  R30,LOW(1)
	STS  _x,R30
; 0000 03E1       if((x==-1)&&(y<4)){
_0x1C0:
	LDS  R26,_x
	CPI  R26,LOW(0xFF)
	BRNE _0x1C4
	LDS  R26,_y
	CPI  R26,LOW(0x4)
	BRLT _0x1C5
_0x1C4:
	RJMP _0x1C3
_0x1C5:
; 0000 03E2       x = 2;}
	LDI  R30,LOW(2)
	STS  _x,R30
; 0000 03E3 
; 0000 03E4       if(k==10){
_0x1C3:
	LDS  R26,_k
	CPI  R26,LOW(0xA)
	BRNE _0x1C6
; 0000 03E5       k = 0;}
	LDI  R30,LOW(0)
	STS  _k,R30
; 0000 03E6       if(z==6){
_0x1C6:
	LDS  R26,_z
	CPI  R26,LOW(0x6)
	BRNE _0x1C7
; 0000 03E7       z = 0;}
	LDI  R30,LOW(0)
	STS  _z,R30
; 0000 03E8       if((y>=4)&&(x==2)&&(REDAG_SK_NR==1)){
_0x1C7:
	LDS  R26,_y
	CPI  R26,LOW(0x4)
	BRLT _0x1C9
	LDS  R26,_x
	CPI  R26,LOW(0x2)
	BRNE _0x1C9
	LDS  R26,_REDAG_SK_NR
	CPI  R26,LOW(0x1)
	BREQ _0x1CA
_0x1C9:
	RJMP _0x1C8
_0x1CA:
; 0000 03E9       y = 0;}
	LDI  R30,LOW(0)
	STS  _y,R30
; 0000 03EA       if((y==10)&&(x!=2)){
_0x1C8:
	LDS  R26,_y
	CPI  R26,LOW(0xA)
	BRNE _0x1CC
	LDS  R26,_x
	CPI  R26,LOW(0x2)
	BRNE _0x1CD
_0x1CC:
	RJMP _0x1CB
_0x1CD:
; 0000 03EB       y = 0;}
	LDI  R30,LOW(0)
	STS  _y,R30
; 0000 03EC       if((x==2)&&(y>=4)&&(REDAG_SK_NR==0)){
_0x1CB:
	LDS  R26,_x
	CPI  R26,LOW(0x2)
	BRNE _0x1CF
	LDS  R26,_y
	CPI  R26,LOW(0x4)
	BRLT _0x1CF
	LDS  R26,_REDAG_SK_NR
	CPI  R26,LOW(0x0)
	BREQ _0x1D0
_0x1CF:
	RJMP _0x1CE
_0x1D0:
; 0000 03ED       x = 0;}
	LDI  R30,LOW(0)
	STS  _x,R30
; 0000 03EE       if(x==3){
_0x1CE:
	LDS  R26,_x
	CPI  R26,LOW(0x3)
	BRNE _0x1D1
; 0000 03EF       x = 0;}}
	LDI  R30,LOW(0)
	STS  _x,R30
_0x1D1:
; 0000 03F0 
; 0000 03F1       if(MYGTUKAS_3==1){
_0x19D:
	LDS  R26,_MYGTUKAS_3
	CPI  R26,LOW(0x1)
	BREQ PC+3
	JMP _0x1D2
; 0000 03F2       if(EILUTES_SKAICIUS==1){
	LDS  R26,_EILUTES_SKAICIUS
	CPI  R26,LOW(0x1)
	BRNE _0x1D3
; 0000 03F3       SKAMBUTIS_1dh = x;
	LDS  R30,_x
	STS  _SKAMBUTIS_1dh,R30
; 0000 03F4       SKAMBUTIS_1h  = y;
	LDS  R30,_y
	STS  _SKAMBUTIS_1h,R30
; 0000 03F5       SKAMBUTIS_1dm = z;
	LDS  R30,_z
	STS  _SKAMBUTIS_1dm,R30
; 0000 03F6       SKAMBUTIS_1m  = k;}
	LDS  R30,_k
	STS  _SKAMBUTIS_1m,R30
; 0000 03F7       if(EILUTES_SKAICIUS==2){
_0x1D3:
	LDS  R26,_EILUTES_SKAICIUS
	CPI  R26,LOW(0x2)
	BRNE _0x1D4
; 0000 03F8       SKAMBUTIS_2dh = x;
	LDS  R30,_x
	STS  _SKAMBUTIS_2dh,R30
; 0000 03F9       SKAMBUTIS_2h  = y;
	LDS  R30,_y
	STS  _SKAMBUTIS_2h,R30
; 0000 03FA       SKAMBUTIS_2dm = z;
	LDS  R30,_z
	STS  _SKAMBUTIS_2dm,R30
; 0000 03FB       SKAMBUTIS_2m  = k;}
	LDS  R30,_k
	STS  _SKAMBUTIS_2m,R30
; 0000 03FC       if(EILUTES_SKAICIUS==3){
_0x1D4:
	LDS  R26,_EILUTES_SKAICIUS
	CPI  R26,LOW(0x3)
	BRNE _0x1D5
; 0000 03FD       SKAMBUTIS_3dh = x;
	LDS  R30,_x
	STS  _SKAMBUTIS_3dh,R30
; 0000 03FE       SKAMBUTIS_3h  = y;
	LDS  R30,_y
	STS  _SKAMBUTIS_3h,R30
; 0000 03FF       SKAMBUTIS_3dm = z;
	LDS  R30,_z
	STS  _SKAMBUTIS_3dm,R30
; 0000 0400       SKAMBUTIS_3m  = k;}
	LDS  R30,_k
	STS  _SKAMBUTIS_3m,R30
; 0000 0401       if(EILUTES_SKAICIUS==4){
_0x1D5:
	LDS  R26,_EILUTES_SKAICIUS
	CPI  R26,LOW(0x4)
	BRNE _0x1D6
; 0000 0402       SKAMBUTIS_4dh = x;
	LDS  R30,_x
	STS  _SKAMBUTIS_4dh,R30
; 0000 0403       SKAMBUTIS_4h  = y;
	LDS  R30,_y
	STS  _SKAMBUTIS_4h,R30
; 0000 0404       SKAMBUTIS_4dm = z;
	LDS  R30,_z
	STS  _SKAMBUTIS_4dm,R30
; 0000 0405       SKAMBUTIS_4m  = k;}
	LDS  R30,_k
	STS  _SKAMBUTIS_4m,R30
; 0000 0406       if(EILUTES_SKAICIUS==5){
_0x1D6:
	LDS  R26,_EILUTES_SKAICIUS
	CPI  R26,LOW(0x5)
	BRNE _0x1D7
; 0000 0407       SKAMBUTIS_5dh = x;
	LDS  R30,_x
	STS  _SKAMBUTIS_5dh,R30
; 0000 0408       SKAMBUTIS_5h  = y;
	LDS  R30,_y
	STS  _SKAMBUTIS_5h,R30
; 0000 0409       SKAMBUTIS_5dm = z;
	LDS  R30,_z
	STS  _SKAMBUTIS_5dm,R30
; 0000 040A       SKAMBUTIS_5m  = k;}
	LDS  R30,_k
	STS  _SKAMBUTIS_5m,R30
; 0000 040B       if(EILUTES_SKAICIUS==6){
_0x1D7:
	LDS  R26,_EILUTES_SKAICIUS
	CPI  R26,LOW(0x6)
	BRNE _0x1D8
; 0000 040C       SKAMBUTIS_6dh = x;
	LDS  R30,_x
	STS  _SKAMBUTIS_6dh,R30
; 0000 040D       SKAMBUTIS_6h  = y;
	LDS  R30,_y
	STS  _SKAMBUTIS_6h,R30
; 0000 040E       SKAMBUTIS_6dm = z;
	LDS  R30,_z
	STS  _SKAMBUTIS_6dm,R30
; 0000 040F       SKAMBUTIS_6m  = k;}
	LDS  R30,_k
	STS  _SKAMBUTIS_6m,R30
; 0000 0410       if(EILUTES_SKAICIUS==7){
_0x1D8:
	LDS  R26,_EILUTES_SKAICIUS
	CPI  R26,LOW(0x7)
	BRNE _0x1D9
; 0000 0411       SKAMBUTIS_7dh = x;
	LDS  R30,_x
	STS  _SKAMBUTIS_7dh,R30
; 0000 0412       SKAMBUTIS_7h  = y;
	LDS  R30,_y
	STS  _SKAMBUTIS_7h,R30
; 0000 0413       SKAMBUTIS_7dm = z;
	LDS  R30,_z
	STS  _SKAMBUTIS_7dm,R30
; 0000 0414       SKAMBUTIS_7m  = k;}
	LDS  R30,_k
	STS  _SKAMBUTIS_7m,R30
; 0000 0415       if(EILUTES_SKAICIUS==8){
_0x1D9:
	LDS  R26,_EILUTES_SKAICIUS
	CPI  R26,LOW(0x8)
	BRNE _0x1DA
; 0000 0416       SKAMBUTIS_8dh = x;
	LDS  R30,_x
	STS  _SKAMBUTIS_8dh,R30
; 0000 0417       SKAMBUTIS_8h  = y;
	LDS  R30,_y
	STS  _SKAMBUTIS_8h,R30
; 0000 0418       SKAMBUTIS_8dm = z;
	LDS  R30,_z
	STS  _SKAMBUTIS_8dm,R30
; 0000 0419       SKAMBUTIS_8m  = k;}
	LDS  R30,_k
	STS  _SKAMBUTIS_8m,R30
; 0000 041A       if(EILUTES_SKAICIUS==9){
_0x1DA:
	LDS  R26,_EILUTES_SKAICIUS
	CPI  R26,LOW(0x9)
	BRNE _0x1DB
; 0000 041B       SKAMBUTIS_9dh = x;
	LDS  R30,_x
	STS  _SKAMBUTIS_9dh,R30
; 0000 041C       SKAMBUTIS_9h  = y;
	LDS  R30,_y
	STS  _SKAMBUTIS_9h,R30
; 0000 041D       SKAMBUTIS_9dm = z;
	LDS  R30,_z
	STS  _SKAMBUTIS_9dm,R30
; 0000 041E       SKAMBUTIS_9m  = k;}
	LDS  R30,_k
	STS  _SKAMBUTIS_9m,R30
; 0000 041F       if(EILUTES_SKAICIUS==10){
_0x1DB:
	LDS  R26,_EILUTES_SKAICIUS
	CPI  R26,LOW(0xA)
	BRNE _0x1DC
; 0000 0420       SKAMBUTIS_10dh = x;
	LDS  R30,_x
	STS  _SKAMBUTIS_10dh,R30
; 0000 0421       SKAMBUTIS_10h  = y;
	LDS  R30,_y
	STS  _SKAMBUTIS_10h,R30
; 0000 0422       SKAMBUTIS_10dm = z;
	LDS  R30,_z
	STS  _SKAMBUTIS_10dm,R30
; 0000 0423       SKAMBUTIS_10m  = k;}
	LDS  R30,_k
	STS  _SKAMBUTIS_10m,R30
; 0000 0424       if(EILUTES_SKAICIUS==11){
_0x1DC:
	LDS  R26,_EILUTES_SKAICIUS
	CPI  R26,LOW(0xB)
	BRNE _0x1DD
; 0000 0425       SKAMBUTIS_11dh = x;
	LDS  R30,_x
	STS  _SKAMBUTIS_11dh,R30
; 0000 0426       SKAMBUTIS_11h  = y;
	LDS  R30,_y
	STS  _SKAMBUTIS_11h,R30
; 0000 0427       SKAMBUTIS_11dm = z;
	LDS  R30,_z
	STS  _SKAMBUTIS_11dm,R30
; 0000 0428       SKAMBUTIS_11m  = k;}
	LDS  R30,_k
	STS  _SKAMBUTIS_11m,R30
; 0000 0429       if(EILUTES_SKAICIUS==12){
_0x1DD:
	LDS  R26,_EILUTES_SKAICIUS
	CPI  R26,LOW(0xC)
	BRNE _0x1DE
; 0000 042A       SKAMBUTIS_12dh = x;
	LDS  R30,_x
	STS  _SKAMBUTIS_12dh,R30
; 0000 042B       SKAMBUTIS_12h  = y;
	LDS  R30,_y
	STS  _SKAMBUTIS_12h,R30
; 0000 042C       SKAMBUTIS_12dm = z;
	LDS  R30,_z
	STS  _SKAMBUTIS_12dm,R30
; 0000 042D       SKAMBUTIS_12m  = k;}
	LDS  R30,_k
	STS  _SKAMBUTIS_12m,R30
; 0000 042E       if(EILUTES_SKAICIUS==13){
_0x1DE:
	LDS  R26,_EILUTES_SKAICIUS
	CPI  R26,LOW(0xD)
	BRNE _0x1DF
; 0000 042F       SKAMBUTIS_13dh = x;
	LDS  R30,_x
	STS  _SKAMBUTIS_13dh,R30
; 0000 0430       SKAMBUTIS_13h  = y;
	LDS  R30,_y
	STS  _SKAMBUTIS_13h,R30
; 0000 0431       SKAMBUTIS_13dm = z;
	LDS  R30,_z
	STS  _SKAMBUTIS_13dm,R30
; 0000 0432       SKAMBUTIS_13m  = k;}
	LDS  R30,_k
	STS  _SKAMBUTIS_13m,R30
; 0000 0433       if(EILUTES_SKAICIUS==14){
_0x1DF:
	LDS  R26,_EILUTES_SKAICIUS
	CPI  R26,LOW(0xE)
	BRNE _0x1E0
; 0000 0434       SKAMBUTIS_14dh = x;
	LDS  R30,_x
	STS  _SKAMBUTIS_14dh,R30
; 0000 0435       SKAMBUTIS_14h  = y;
	LDS  R30,_y
	STS  _SKAMBUTIS_14h,R30
; 0000 0436       SKAMBUTIS_14dm = z;
	LDS  R30,_z
	STS  _SKAMBUTIS_14dm,R30
; 0000 0437       SKAMBUTIS_14m  = k;}
	LDS  R30,_k
	STS  _SKAMBUTIS_14m,R30
; 0000 0438       if(EILUTES_SKAICIUS==15){
_0x1E0:
	LDS  R26,_EILUTES_SKAICIUS
	CPI  R26,LOW(0xF)
	BRNE _0x1E1
; 0000 0439       SKAMBUTIS_15dh = x;
	LDS  R30,_x
	STS  _SKAMBUTIS_15dh,R30
; 0000 043A       SKAMBUTIS_15h  = y;
	LDS  R30,_y
	STS  _SKAMBUTIS_15h,R30
; 0000 043B       SKAMBUTIS_15dm = z;
	LDS  R30,_z
	STS  _SKAMBUTIS_15dm,R30
; 0000 043C       SKAMBUTIS_15m  = k;}
	LDS  R30,_k
	STS  _SKAMBUTIS_15m,R30
; 0000 043D       if(EILUTES_SKAICIUS==16){
_0x1E1:
	LDS  R26,_EILUTES_SKAICIUS
	CPI  R26,LOW(0x10)
	BRNE _0x1E2
; 0000 043E       SKAMBUTIS_16dh = x;
	LDS  R30,_x
	STS  _SKAMBUTIS_16dh,R30
; 0000 043F       SKAMBUTIS_16h  = y;
	LDS  R30,_y
	STS  _SKAMBUTIS_16h,R30
; 0000 0440       SKAMBUTIS_16dm = z;
	LDS  R30,_z
	STS  _SKAMBUTIS_16dm,R30
; 0000 0441       SKAMBUTIS_16m  = k;}
	LDS  R30,_k
	STS  _SKAMBUTIS_16m,R30
; 0000 0442       if(EILUTES_SKAICIUS==17){
_0x1E2:
	LDS  R26,_EILUTES_SKAICIUS
	CPI  R26,LOW(0x11)
	BRNE _0x1E3
; 0000 0443       SKAMBUTIS_17dh = x;
	LDS  R30,_x
	STS  _SKAMBUTIS_17dh,R30
; 0000 0444       SKAMBUTIS_17h  = y;
	LDS  R30,_y
	STS  _SKAMBUTIS_17h,R30
; 0000 0445       SKAMBUTIS_17dm = z;
	LDS  R30,_z
	STS  _SKAMBUTIS_17dm,R30
; 0000 0446       SKAMBUTIS_17m  = k;}
	LDS  R30,_k
	STS  _SKAMBUTIS_17m,R30
; 0000 0447       if(EILUTES_SKAICIUS==18){
_0x1E3:
	LDS  R26,_EILUTES_SKAICIUS
	CPI  R26,LOW(0x12)
	BRNE _0x1E4
; 0000 0448       SKAMBUTIS_18dh = x;
	LDS  R30,_x
	STS  _SKAMBUTIS_18dh,R30
; 0000 0449       SKAMBUTIS_18h  = y;
	LDS  R30,_y
	STS  _SKAMBUTIS_18h,R30
; 0000 044A       SKAMBUTIS_18dm = z;
	LDS  R30,_z
	STS  _SKAMBUTIS_18dm,R30
; 0000 044B       SKAMBUTIS_18m  = k;}
	LDS  R30,_k
	STS  _SKAMBUTIS_18m,R30
; 0000 044C       if(EILUTES_SKAICIUS==19){
_0x1E4:
	LDS  R26,_EILUTES_SKAICIUS
	CPI  R26,LOW(0x13)
	BRNE _0x1E5
; 0000 044D       SKAMBUTIS_19dh = x;
	LDS  R30,_x
	STS  _SKAMBUTIS_19dh,R30
; 0000 044E       SKAMBUTIS_19h  = y;
	LDS  R30,_y
	STS  _SKAMBUTIS_19h,R30
; 0000 044F       SKAMBUTIS_19dm = z;
	LDS  R30,_z
	STS  _SKAMBUTIS_19dm,R30
; 0000 0450       SKAMBUTIS_19m  = k;}
	LDS  R30,_k
	STS  _SKAMBUTIS_19m,R30
; 0000 0451       if(EILUTES_SKAICIUS==20){
_0x1E5:
	LDS  R26,_EILUTES_SKAICIUS
	CPI  R26,LOW(0x14)
	BRNE _0x1E6
; 0000 0452       SKAMBUTIS_20dh = x;
	LDS  R30,_x
	STS  _SKAMBUTIS_20dh,R30
; 0000 0453       SKAMBUTIS_20h  = y;
	LDS  R30,_y
	STS  _SKAMBUTIS_20h,R30
; 0000 0454       SKAMBUTIS_20dm = z;
	LDS  R30,_z
	STS  _SKAMBUTIS_20dm,R30
; 0000 0455       SKAMBUTIS_20m  = k;}}
	LDS  R30,_k
	STS  _SKAMBUTIS_20m,R30
_0x1E6:
; 0000 0456 
; 0000 0457       // RELES PRITRAUKIMAS:
; 0000 0458       // ispejamasis skambutis:
; 0000 0459       a2 = desimtys_valandos;
_0x1D2:
	LDS  R30,_desimtys_valandos
	STS  _a2,R30
; 0000 045A       b2 = valandos;
	LDS  R30,_valandos
	STS  _b2,R30
; 0000 045B       c2 = desimtys_minutes;
	LDS  R30,_desimtys_minutes
	STS  _c2,R30
; 0000 045C       d2 = minutes + 2;
	LDS  R30,_minutes
	SUBI R30,-LOW(2)
	STS  _d2,R30
; 0000 045D 
; 0000 045E       if(d2==10){
	LDS  R26,_d2
	CPI  R26,LOW(0xA)
	BRNE _0x1E7
; 0000 045F       d2 = 0;
	LDI  R30,LOW(0)
	STS  _d2,R30
; 0000 0460       c2 = c2 + 1;}
	LDS  R30,_c2
	SUBI R30,-LOW(1)
	STS  _c2,R30
; 0000 0461       if(c2==6){
_0x1E7:
	LDS  R26,_c2
	CPI  R26,LOW(0x6)
	BRNE _0x1E8
; 0000 0462       c2 = 0;
	LDI  R30,LOW(0)
	STS  _c2,R30
; 0000 0463       b2 = b2 + 1;}
	LDS  R30,_b2
	SUBI R30,-LOW(1)
	STS  _b2,R30
; 0000 0464       if(b2==10){
_0x1E8:
	LDS  R26,_b2
	CPI  R26,LOW(0xA)
	BRNE _0x1E9
; 0000 0465       b2 = 0;
	LDI  R30,LOW(0)
	STS  _b2,R30
; 0000 0466       a2 = a2 + 1;}
	LDS  R30,_a2
	SUBI R30,-LOW(1)
	STS  _a2,R30
; 0000 0467       if((a2==2)&&(b2==4)){
_0x1E9:
	LDS  R26,_a2
	CPI  R26,LOW(0x2)
	BRNE _0x1EB
	LDS  R26,_b2
	CPI  R26,LOW(0x4)
	BREQ _0x1EC
_0x1EB:
	RJMP _0x1EA
_0x1EC:
; 0000 0468       a2 = 0;
	LDI  R30,LOW(0)
	STS  _a2,R30
; 0000 0469       b2 = 0;}
	STS  _b2,R30
; 0000 046A 
; 0000 046B 
; 0000 046C       //ispejamojo skambucio reles pritraukimas
; 0000 046D       if((SKAMBUTIS_1dh==a2)&&
_0x1EA:
; 0000 046E       (SKAMBUTIS_1h==b2)&&
; 0000 046F       (SKAMBUTIS_1dm==c2)&&
; 0000 0470       (SKAMBUTIS_1m==d2)){
	LDS  R30,_a2
	LDS  R26,_SKAMBUTIS_1dh
	CP   R30,R26
	BRNE _0x1EE
	LDS  R30,_b2
	LDS  R26,_SKAMBUTIS_1h
	CP   R30,R26
	BRNE _0x1EE
	LDS  R30,_c2
	LDS  R26,_SKAMBUTIS_1dm
	CP   R30,R26
	BRNE _0x1EE
	LDS  R30,_d2
	LDS  R26,_SKAMBUTIS_1m
	CP   R30,R26
	BREQ _0x1EF
_0x1EE:
	RJMP _0x1ED
_0x1EF:
; 0000 0471       ISPEJAMASIS_SKAMBUTIS = 1;}
	LDI  R30,LOW(1)
	STS  _ISPEJAMASIS_SKAMBUTIS,R30
; 0000 0472 
; 0000 0473       if((SKAMBUTIS_3dh==a2)&&
_0x1ED:
; 0000 0474       (SKAMBUTIS_3h==b2)&&
; 0000 0475       (SKAMBUTIS_3dm==c2)&&
; 0000 0476       (SKAMBUTIS_3m==d2)){
	LDS  R30,_a2
	LDS  R26,_SKAMBUTIS_3dh
	CP   R30,R26
	BRNE _0x1F1
	LDS  R30,_b2
	LDS  R26,_SKAMBUTIS_3h
	CP   R30,R26
	BRNE _0x1F1
	LDS  R30,_c2
	LDS  R26,_SKAMBUTIS_3dm
	CP   R30,R26
	BRNE _0x1F1
	LDS  R30,_d2
	LDS  R26,_SKAMBUTIS_3m
	CP   R30,R26
	BREQ _0x1F2
_0x1F1:
	RJMP _0x1F0
_0x1F2:
; 0000 0477       ISPEJAMASIS_SKAMBUTIS = 1;}
	LDI  R30,LOW(1)
	STS  _ISPEJAMASIS_SKAMBUTIS,R30
; 0000 0478 
; 0000 0479       if((SKAMBUTIS_5dh==a2)&&
_0x1F0:
; 0000 047A       (SKAMBUTIS_5h==b2)&&
; 0000 047B       (SKAMBUTIS_5dm==c2)&&
; 0000 047C       (SKAMBUTIS_5m==d2)){
	LDS  R30,_a2
	LDS  R26,_SKAMBUTIS_5dh
	CP   R30,R26
	BRNE _0x1F4
	LDS  R30,_b2
	LDS  R26,_SKAMBUTIS_5h
	CP   R30,R26
	BRNE _0x1F4
	LDS  R30,_c2
	LDS  R26,_SKAMBUTIS_5dm
	CP   R30,R26
	BRNE _0x1F4
	LDS  R30,_d2
	LDS  R26,_SKAMBUTIS_5m
	CP   R30,R26
	BREQ _0x1F5
_0x1F4:
	RJMP _0x1F3
_0x1F5:
; 0000 047D       ISPEJAMASIS_SKAMBUTIS = 1;}
	LDI  R30,LOW(1)
	STS  _ISPEJAMASIS_SKAMBUTIS,R30
; 0000 047E 
; 0000 047F       if((SKAMBUTIS_7dh==a2)&&
_0x1F3:
; 0000 0480       (SKAMBUTIS_7h==b2)&&
; 0000 0481       (SKAMBUTIS_7dm==c2)&&
; 0000 0482       (SKAMBUTIS_7m==d2)){
	LDS  R30,_a2
	LDS  R26,_SKAMBUTIS_7dh
	CP   R30,R26
	BRNE _0x1F7
	LDS  R30,_b2
	LDS  R26,_SKAMBUTIS_7h
	CP   R30,R26
	BRNE _0x1F7
	LDS  R30,_c2
	LDS  R26,_SKAMBUTIS_7dm
	CP   R30,R26
	BRNE _0x1F7
	LDS  R30,_d2
	LDS  R26,_SKAMBUTIS_7m
	CP   R30,R26
	BREQ _0x1F8
_0x1F7:
	RJMP _0x1F6
_0x1F8:
; 0000 0483       ISPEJAMASIS_SKAMBUTIS = 1;}
	LDI  R30,LOW(1)
	STS  _ISPEJAMASIS_SKAMBUTIS,R30
; 0000 0484 
; 0000 0485       if((SKAMBUTIS_9dh==a2)&&
_0x1F6:
; 0000 0486       (SKAMBUTIS_9h==b2)&&
; 0000 0487       (SKAMBUTIS_9dm==c2)&&
; 0000 0488       (SKAMBUTIS_9m==d2)){
	LDS  R30,_a2
	LDS  R26,_SKAMBUTIS_9dh
	CP   R30,R26
	BRNE _0x1FA
	LDS  R30,_b2
	LDS  R26,_SKAMBUTIS_9h
	CP   R30,R26
	BRNE _0x1FA
	LDS  R30,_c2
	LDS  R26,_SKAMBUTIS_9dm
	CP   R30,R26
	BRNE _0x1FA
	LDS  R30,_d2
	LDS  R26,_SKAMBUTIS_9m
	CP   R30,R26
	BREQ _0x1FB
_0x1FA:
	RJMP _0x1F9
_0x1FB:
; 0000 0489       ISPEJAMASIS_SKAMBUTIS = 1;}
	LDI  R30,LOW(1)
	STS  _ISPEJAMASIS_SKAMBUTIS,R30
; 0000 048A 
; 0000 048B       if((SKAMBUTIS_11dh==a2)&&
_0x1F9:
; 0000 048C       (SKAMBUTIS_11h==b2)&&
; 0000 048D       (SKAMBUTIS_11dm==c2)&&
; 0000 048E       (SKAMBUTIS_11m==d2)){
	LDS  R30,_a2
	LDS  R26,_SKAMBUTIS_11dh
	CP   R30,R26
	BRNE _0x1FD
	LDS  R30,_b2
	LDS  R26,_SKAMBUTIS_11h
	CP   R30,R26
	BRNE _0x1FD
	LDS  R30,_c2
	LDS  R26,_SKAMBUTIS_11dm
	CP   R30,R26
	BRNE _0x1FD
	LDS  R30,_d2
	LDS  R26,_SKAMBUTIS_11m
	CP   R30,R26
	BREQ _0x1FE
_0x1FD:
	RJMP _0x1FC
_0x1FE:
; 0000 048F       ISPEJAMASIS_SKAMBUTIS = 1;}
	LDI  R30,LOW(1)
	STS  _ISPEJAMASIS_SKAMBUTIS,R30
; 0000 0490 
; 0000 0491       if((SKAMBUTIS_13dh==a2)&&
_0x1FC:
; 0000 0492       (SKAMBUTIS_13h==b2)&&
; 0000 0493       (SKAMBUTIS_13dm==c2)&&
; 0000 0494       (SKAMBUTIS_13m==d2)){
	LDS  R30,_a2
	LDS  R26,_SKAMBUTIS_13dh
	CP   R30,R26
	BRNE _0x200
	LDS  R30,_b2
	LDS  R26,_SKAMBUTIS_13h
	CP   R30,R26
	BRNE _0x200
	LDS  R30,_c2
	LDS  R26,_SKAMBUTIS_13dm
	CP   R30,R26
	BRNE _0x200
	LDS  R30,_d2
	LDS  R26,_SKAMBUTIS_13m
	CP   R30,R26
	BREQ _0x201
_0x200:
	RJMP _0x1FF
_0x201:
; 0000 0495       ISPEJAMASIS_SKAMBUTIS = 1;}
	LDI  R30,LOW(1)
	STS  _ISPEJAMASIS_SKAMBUTIS,R30
; 0000 0496 
; 0000 0497       if((SKAMBUTIS_15dh==a2)&&
_0x1FF:
; 0000 0498       (SKAMBUTIS_15h==b2)&&
; 0000 0499       (SKAMBUTIS_15dm==c2)&&
; 0000 049A       (SKAMBUTIS_15m==d2)){
	LDS  R30,_a2
	LDS  R26,_SKAMBUTIS_15dh
	CP   R30,R26
	BRNE _0x203
	LDS  R30,_b2
	LDS  R26,_SKAMBUTIS_15h
	CP   R30,R26
	BRNE _0x203
	LDS  R30,_c2
	LDS  R26,_SKAMBUTIS_15dm
	CP   R30,R26
	BRNE _0x203
	LDS  R30,_d2
	LDS  R26,_SKAMBUTIS_15m
	CP   R30,R26
	BREQ _0x204
_0x203:
	RJMP _0x202
_0x204:
; 0000 049B       ISPEJAMASIS_SKAMBUTIS = 1;}
	LDI  R30,LOW(1)
	STS  _ISPEJAMASIS_SKAMBUTIS,R30
; 0000 049C 
; 0000 049D       if((SKAMBUTIS_17dh==a2)&&
_0x202:
; 0000 049E       (SKAMBUTIS_17h==b2)&&
; 0000 049F       (SKAMBUTIS_17dm==c2)&&
; 0000 04A0       (SKAMBUTIS_17m==d2)){
	LDS  R30,_a2
	LDS  R26,_SKAMBUTIS_17dh
	CP   R30,R26
	BRNE _0x206
	LDS  R30,_b2
	LDS  R26,_SKAMBUTIS_17h
	CP   R30,R26
	BRNE _0x206
	LDS  R30,_c2
	LDS  R26,_SKAMBUTIS_17dm
	CP   R30,R26
	BRNE _0x206
	LDS  R30,_d2
	LDS  R26,_SKAMBUTIS_17m
	CP   R30,R26
	BREQ _0x207
_0x206:
	RJMP _0x205
_0x207:
; 0000 04A1       ISPEJAMASIS_SKAMBUTIS = 1;}
	LDI  R30,LOW(1)
	STS  _ISPEJAMASIS_SKAMBUTIS,R30
; 0000 04A2 
; 0000 04A3       if((SKAMBUTIS_19dh==a2)&&
_0x205:
; 0000 04A4       (SKAMBUTIS_19h==b2)&&
; 0000 04A5       (SKAMBUTIS_19dm==c2)&&
; 0000 04A6       (SKAMBUTIS_19m==d2)){
	LDS  R30,_a2
	LDS  R26,_SKAMBUTIS_19dh
	CP   R30,R26
	BRNE _0x209
	LDS  R30,_b2
	LDS  R26,_SKAMBUTIS_19h
	CP   R30,R26
	BRNE _0x209
	LDS  R30,_c2
	LDS  R26,_SKAMBUTIS_19dm
	CP   R30,R26
	BRNE _0x209
	LDS  R30,_d2
	LDS  R26,_SKAMBUTIS_19m
	CP   R30,R26
	BREQ _0x20A
_0x209:
	RJMP _0x208
_0x20A:
; 0000 04A7       ISPEJAMASIS_SKAMBUTIS = 1;}
	LDI  R30,LOW(1)
	STS  _ISPEJAMASIS_SKAMBUTIS,R30
; 0000 04A8 
; 0000 04A9 
; 0000 04AA       if((ISPEJAMASIS_SKAMBUTIS==1)&&(puse_sekundes!=700)&&
_0x208:
; 0000 04AB       (REDAGAVIMAS==0)){
	LDS  R26,_ISPEJAMASIS_SKAMBUTIS
	CPI  R26,LOW(0x1)
	BRNE _0x20C
	LDS  R26,_puse_sekundes
	LDS  R27,_puse_sekundes+1
	CPI  R26,LOW(0x2BC)
	LDI  R30,HIGH(0x2BC)
	CPC  R27,R30
	BREQ _0x20C
	LDS  R26,_REDAGAVIMAS
	CPI  R26,LOW(0x0)
	BREQ _0x20D
_0x20C:
	RJMP _0x20B
_0x20D:
; 0000 04AC       puse_sekundes = puse_sekundes + 1;
	LDS  R30,_puse_sekundes
	LDS  R31,_puse_sekundes+1
	ADIW R30,1
	STS  _puse_sekundes,R30
	STS  _puse_sekundes+1,R31
; 0000 04AD       SKAMBUTIS_SKAMBA = 1;}
	LDI  R30,LOW(1)
	STS  _SKAMBUTIS_SKAMBA,R30
; 0000 04AE 
; 0000 04AF       if(ISPEJAMASIS_SKAMBUTIS==0){
_0x20B:
	LDS  R30,_ISPEJAMASIS_SKAMBUTIS
	CPI  R30,0
	BRNE _0x20E
; 0000 04B0       puse_sekundes = 0;}
	LDI  R30,LOW(0)
	STS  _puse_sekundes,R30
	STS  _puse_sekundes+1,R30
; 0000 04B1 
; 0000 04B2       //tikras_skambutis:
; 0000 04B3       if((SKAMBUTIS_1dh==desimtys_valandos)&&
_0x20E:
; 0000 04B4       (SKAMBUTIS_1h==valandos)&&
; 0000 04B5       (SKAMBUTIS_1dm==desimtys_minutes)&&
; 0000 04B6       (SKAMBUTIS_1m==minutes)){
	LDS  R30,_desimtys_valandos
	LDS  R26,_SKAMBUTIS_1dh
	CP   R30,R26
	BRNE _0x210
	LDS  R30,_valandos
	LDS  R26,_SKAMBUTIS_1h
	CP   R30,R26
	BRNE _0x210
	LDS  R30,_desimtys_minutes
	LDS  R26,_SKAMBUTIS_1dm
	CP   R30,R26
	BRNE _0x210
	LDS  R30,_minutes
	LDS  R26,_SKAMBUTIS_1m
	CP   R30,R26
	BREQ _0x211
_0x210:
	RJMP _0x20F
_0x211:
; 0000 04B7       SKAMBUTIS_TURETU_SKAMBETI = 1;}
	LDI  R30,LOW(1)
	STS  _SKAMBUTIS_TURETU_SKAMBETI,R30
; 0000 04B8 
; 0000 04B9       if((SKAMBUTIS_2dh==desimtys_valandos)&&
_0x20F:
; 0000 04BA       (SKAMBUTIS_2h==valandos)&&
; 0000 04BB       (SKAMBUTIS_2dm==desimtys_minutes)&&
; 0000 04BC       (SKAMBUTIS_2m==minutes)){
	LDS  R30,_desimtys_valandos
	LDS  R26,_SKAMBUTIS_2dh
	CP   R30,R26
	BRNE _0x213
	LDS  R30,_valandos
	LDS  R26,_SKAMBUTIS_2h
	CP   R30,R26
	BRNE _0x213
	LDS  R30,_desimtys_minutes
	LDS  R26,_SKAMBUTIS_2dm
	CP   R30,R26
	BRNE _0x213
	LDS  R30,_minutes
	LDS  R26,_SKAMBUTIS_2m
	CP   R30,R26
	BREQ _0x214
_0x213:
	RJMP _0x212
_0x214:
; 0000 04BD       SKAMBUTIS_TURETU_SKAMBETI = 1;}
	LDI  R30,LOW(1)
	STS  _SKAMBUTIS_TURETU_SKAMBETI,R30
; 0000 04BE 
; 0000 04BF       if((SKAMBUTIS_3dh==desimtys_valandos)&&
_0x212:
; 0000 04C0       (SKAMBUTIS_3h==valandos)&&
; 0000 04C1       (SKAMBUTIS_3dm==desimtys_minutes)&&
; 0000 04C2       (SKAMBUTIS_3m==minutes)){
	LDS  R30,_desimtys_valandos
	LDS  R26,_SKAMBUTIS_3dh
	CP   R30,R26
	BRNE _0x216
	LDS  R30,_valandos
	LDS  R26,_SKAMBUTIS_3h
	CP   R30,R26
	BRNE _0x216
	LDS  R30,_desimtys_minutes
	LDS  R26,_SKAMBUTIS_3dm
	CP   R30,R26
	BRNE _0x216
	LDS  R30,_minutes
	LDS  R26,_SKAMBUTIS_3m
	CP   R30,R26
	BREQ _0x217
_0x216:
	RJMP _0x215
_0x217:
; 0000 04C3       SKAMBUTIS_TURETU_SKAMBETI = 1;}
	LDI  R30,LOW(1)
	STS  _SKAMBUTIS_TURETU_SKAMBETI,R30
; 0000 04C4 
; 0000 04C5       if((SKAMBUTIS_4dh==desimtys_valandos)&&
_0x215:
; 0000 04C6       (SKAMBUTIS_4h==valandos)&&
; 0000 04C7       (SKAMBUTIS_4dm==desimtys_minutes)&&
; 0000 04C8       (SKAMBUTIS_4m==minutes)){
	LDS  R30,_desimtys_valandos
	LDS  R26,_SKAMBUTIS_4dh
	CP   R30,R26
	BRNE _0x219
	LDS  R30,_valandos
	LDS  R26,_SKAMBUTIS_4h
	CP   R30,R26
	BRNE _0x219
	LDS  R30,_desimtys_minutes
	LDS  R26,_SKAMBUTIS_4dm
	CP   R30,R26
	BRNE _0x219
	LDS  R30,_minutes
	LDS  R26,_SKAMBUTIS_4m
	CP   R30,R26
	BREQ _0x21A
_0x219:
	RJMP _0x218
_0x21A:
; 0000 04C9       SKAMBUTIS_TURETU_SKAMBETI = 1;}
	LDI  R30,LOW(1)
	STS  _SKAMBUTIS_TURETU_SKAMBETI,R30
; 0000 04CA 
; 0000 04CB       if((SKAMBUTIS_5dh==desimtys_valandos)&&
_0x218:
; 0000 04CC       (SKAMBUTIS_5h==valandos)&&
; 0000 04CD       (SKAMBUTIS_5dm==desimtys_minutes)&&
; 0000 04CE       (SKAMBUTIS_5m==minutes)){
	LDS  R30,_desimtys_valandos
	LDS  R26,_SKAMBUTIS_5dh
	CP   R30,R26
	BRNE _0x21C
	LDS  R30,_valandos
	LDS  R26,_SKAMBUTIS_5h
	CP   R30,R26
	BRNE _0x21C
	LDS  R30,_desimtys_minutes
	LDS  R26,_SKAMBUTIS_5dm
	CP   R30,R26
	BRNE _0x21C
	LDS  R30,_minutes
	LDS  R26,_SKAMBUTIS_5m
	CP   R30,R26
	BREQ _0x21D
_0x21C:
	RJMP _0x21B
_0x21D:
; 0000 04CF       SKAMBUTIS_TURETU_SKAMBETI = 1;}
	LDI  R30,LOW(1)
	STS  _SKAMBUTIS_TURETU_SKAMBETI,R30
; 0000 04D0 
; 0000 04D1       if((SKAMBUTIS_6dh==desimtys_valandos)&&
_0x21B:
; 0000 04D2       (SKAMBUTIS_6h==valandos)&&
; 0000 04D3       (SKAMBUTIS_6dm==desimtys_minutes)&&
; 0000 04D4       (SKAMBUTIS_6m==minutes)){
	LDS  R30,_desimtys_valandos
	LDS  R26,_SKAMBUTIS_6dh
	CP   R30,R26
	BRNE _0x21F
	LDS  R30,_valandos
	LDS  R26,_SKAMBUTIS_6h
	CP   R30,R26
	BRNE _0x21F
	LDS  R30,_desimtys_minutes
	LDS  R26,_SKAMBUTIS_6dm
	CP   R30,R26
	BRNE _0x21F
	LDS  R30,_minutes
	LDS  R26,_SKAMBUTIS_6m
	CP   R30,R26
	BREQ _0x220
_0x21F:
	RJMP _0x21E
_0x220:
; 0000 04D5       SKAMBUTIS_TURETU_SKAMBETI = 1;}
	LDI  R30,LOW(1)
	STS  _SKAMBUTIS_TURETU_SKAMBETI,R30
; 0000 04D6 
; 0000 04D7       if((SKAMBUTIS_7dh==desimtys_valandos)&&
_0x21E:
; 0000 04D8       (SKAMBUTIS_7h==valandos)&&
; 0000 04D9       (SKAMBUTIS_7dm==desimtys_minutes)&&
; 0000 04DA       (SKAMBUTIS_7m==minutes)){
	LDS  R30,_desimtys_valandos
	LDS  R26,_SKAMBUTIS_7dh
	CP   R30,R26
	BRNE _0x222
	LDS  R30,_valandos
	LDS  R26,_SKAMBUTIS_7h
	CP   R30,R26
	BRNE _0x222
	LDS  R30,_desimtys_minutes
	LDS  R26,_SKAMBUTIS_7dm
	CP   R30,R26
	BRNE _0x222
	LDS  R30,_minutes
	LDS  R26,_SKAMBUTIS_7m
	CP   R30,R26
	BREQ _0x223
_0x222:
	RJMP _0x221
_0x223:
; 0000 04DB       SKAMBUTIS_TURETU_SKAMBETI = 1;}
	LDI  R30,LOW(1)
	STS  _SKAMBUTIS_TURETU_SKAMBETI,R30
; 0000 04DC 
; 0000 04DD       if((SKAMBUTIS_8dh==desimtys_valandos)&&
_0x221:
; 0000 04DE       (SKAMBUTIS_8h==valandos)&&
; 0000 04DF       (SKAMBUTIS_8dm==desimtys_minutes)&&
; 0000 04E0       (SKAMBUTIS_8m==minutes)){
	LDS  R30,_desimtys_valandos
	LDS  R26,_SKAMBUTIS_8dh
	CP   R30,R26
	BRNE _0x225
	LDS  R30,_valandos
	LDS  R26,_SKAMBUTIS_8h
	CP   R30,R26
	BRNE _0x225
	LDS  R30,_desimtys_minutes
	LDS  R26,_SKAMBUTIS_8dm
	CP   R30,R26
	BRNE _0x225
	LDS  R30,_minutes
	LDS  R26,_SKAMBUTIS_8m
	CP   R30,R26
	BREQ _0x226
_0x225:
	RJMP _0x224
_0x226:
; 0000 04E1       SKAMBUTIS_TURETU_SKAMBETI = 1;}
	LDI  R30,LOW(1)
	STS  _SKAMBUTIS_TURETU_SKAMBETI,R30
; 0000 04E2 
; 0000 04E3       if((SKAMBUTIS_9dh==desimtys_valandos)&&
_0x224:
; 0000 04E4       (SKAMBUTIS_9h==valandos)&&
; 0000 04E5       (SKAMBUTIS_9dm==desimtys_minutes)&&
; 0000 04E6       (SKAMBUTIS_9m==minutes)){
	LDS  R30,_desimtys_valandos
	LDS  R26,_SKAMBUTIS_9dh
	CP   R30,R26
	BRNE _0x228
	LDS  R30,_valandos
	LDS  R26,_SKAMBUTIS_9h
	CP   R30,R26
	BRNE _0x228
	LDS  R30,_desimtys_minutes
	LDS  R26,_SKAMBUTIS_9dm
	CP   R30,R26
	BRNE _0x228
	LDS  R30,_minutes
	LDS  R26,_SKAMBUTIS_9m
	CP   R30,R26
	BREQ _0x229
_0x228:
	RJMP _0x227
_0x229:
; 0000 04E7       SKAMBUTIS_TURETU_SKAMBETI = 1;}
	LDI  R30,LOW(1)
	STS  _SKAMBUTIS_TURETU_SKAMBETI,R30
; 0000 04E8 
; 0000 04E9       if((SKAMBUTIS_10dh==desimtys_valandos)&&
_0x227:
; 0000 04EA       (SKAMBUTIS_10h==valandos)&&
; 0000 04EB       (SKAMBUTIS_10dm==desimtys_minutes)&&
; 0000 04EC       (SKAMBUTIS_10m==minutes)){
	LDS  R30,_desimtys_valandos
	LDS  R26,_SKAMBUTIS_10dh
	CP   R30,R26
	BRNE _0x22B
	LDS  R30,_valandos
	LDS  R26,_SKAMBUTIS_10h
	CP   R30,R26
	BRNE _0x22B
	LDS  R30,_desimtys_minutes
	LDS  R26,_SKAMBUTIS_10dm
	CP   R30,R26
	BRNE _0x22B
	LDS  R30,_minutes
	LDS  R26,_SKAMBUTIS_10m
	CP   R30,R26
	BREQ _0x22C
_0x22B:
	RJMP _0x22A
_0x22C:
; 0000 04ED       SKAMBUTIS_TURETU_SKAMBETI = 1;}
	LDI  R30,LOW(1)
	STS  _SKAMBUTIS_TURETU_SKAMBETI,R30
; 0000 04EE 
; 0000 04EF       if((SKAMBUTIS_11dh==desimtys_valandos)&&
_0x22A:
; 0000 04F0       (SKAMBUTIS_11h==valandos)&&
; 0000 04F1       (SKAMBUTIS_11dm==desimtys_minutes)&&
; 0000 04F2       (SKAMBUTIS_11m==minutes)){
	LDS  R30,_desimtys_valandos
	LDS  R26,_SKAMBUTIS_11dh
	CP   R30,R26
	BRNE _0x22E
	LDS  R30,_valandos
	LDS  R26,_SKAMBUTIS_11h
	CP   R30,R26
	BRNE _0x22E
	LDS  R30,_desimtys_minutes
	LDS  R26,_SKAMBUTIS_11dm
	CP   R30,R26
	BRNE _0x22E
	LDS  R30,_minutes
	LDS  R26,_SKAMBUTIS_11m
	CP   R30,R26
	BREQ _0x22F
_0x22E:
	RJMP _0x22D
_0x22F:
; 0000 04F3       SKAMBUTIS_TURETU_SKAMBETI = 1;}
	LDI  R30,LOW(1)
	STS  _SKAMBUTIS_TURETU_SKAMBETI,R30
; 0000 04F4 
; 0000 04F5       if((SKAMBUTIS_12dh==desimtys_valandos)&&
_0x22D:
; 0000 04F6       (SKAMBUTIS_12h==valandos)&&
; 0000 04F7       (SKAMBUTIS_12dm==desimtys_minutes)&&
; 0000 04F8       (SKAMBUTIS_12m==minutes)){
	LDS  R30,_desimtys_valandos
	LDS  R26,_SKAMBUTIS_12dh
	CP   R30,R26
	BRNE _0x231
	LDS  R30,_valandos
	LDS  R26,_SKAMBUTIS_12h
	CP   R30,R26
	BRNE _0x231
	LDS  R30,_desimtys_minutes
	LDS  R26,_SKAMBUTIS_12dm
	CP   R30,R26
	BRNE _0x231
	LDS  R30,_minutes
	LDS  R26,_SKAMBUTIS_12m
	CP   R30,R26
	BREQ _0x232
_0x231:
	RJMP _0x230
_0x232:
; 0000 04F9       SKAMBUTIS_TURETU_SKAMBETI = 1;}
	LDI  R30,LOW(1)
	STS  _SKAMBUTIS_TURETU_SKAMBETI,R30
; 0000 04FA 
; 0000 04FB       if((SKAMBUTIS_13dh==desimtys_valandos)&&
_0x230:
; 0000 04FC       (SKAMBUTIS_13h==valandos)&&
; 0000 04FD       (SKAMBUTIS_13dm==desimtys_minutes)&&
; 0000 04FE       (SKAMBUTIS_13m==minutes)){
	LDS  R30,_desimtys_valandos
	LDS  R26,_SKAMBUTIS_13dh
	CP   R30,R26
	BRNE _0x234
	LDS  R30,_valandos
	LDS  R26,_SKAMBUTIS_13h
	CP   R30,R26
	BRNE _0x234
	LDS  R30,_desimtys_minutes
	LDS  R26,_SKAMBUTIS_13dm
	CP   R30,R26
	BRNE _0x234
	LDS  R30,_minutes
	LDS  R26,_SKAMBUTIS_13m
	CP   R30,R26
	BREQ _0x235
_0x234:
	RJMP _0x233
_0x235:
; 0000 04FF       SKAMBUTIS_TURETU_SKAMBETI = 1;}
	LDI  R30,LOW(1)
	STS  _SKAMBUTIS_TURETU_SKAMBETI,R30
; 0000 0500 
; 0000 0501       if((SKAMBUTIS_14dh==desimtys_valandos)&&
_0x233:
; 0000 0502       (SKAMBUTIS_14h==valandos)&&
; 0000 0503       (SKAMBUTIS_14dm==desimtys_minutes)&&
; 0000 0504       (SKAMBUTIS_14m==minutes)){
	LDS  R30,_desimtys_valandos
	LDS  R26,_SKAMBUTIS_14dh
	CP   R30,R26
	BRNE _0x237
	LDS  R30,_valandos
	LDS  R26,_SKAMBUTIS_14h
	CP   R30,R26
	BRNE _0x237
	LDS  R30,_desimtys_minutes
	LDS  R26,_SKAMBUTIS_14dm
	CP   R30,R26
	BRNE _0x237
	LDS  R30,_minutes
	LDS  R26,_SKAMBUTIS_14m
	CP   R30,R26
	BREQ _0x238
_0x237:
	RJMP _0x236
_0x238:
; 0000 0505       SKAMBUTIS_TURETU_SKAMBETI = 1;}
	LDI  R30,LOW(1)
	STS  _SKAMBUTIS_TURETU_SKAMBETI,R30
; 0000 0506 
; 0000 0507       if((SKAMBUTIS_15dh==desimtys_valandos)&&
_0x236:
; 0000 0508       (SKAMBUTIS_15h==valandos)&&
; 0000 0509       (SKAMBUTIS_15dm==desimtys_minutes)&&
; 0000 050A       (SKAMBUTIS_15m==minutes)){
	LDS  R30,_desimtys_valandos
	LDS  R26,_SKAMBUTIS_15dh
	CP   R30,R26
	BRNE _0x23A
	LDS  R30,_valandos
	LDS  R26,_SKAMBUTIS_15h
	CP   R30,R26
	BRNE _0x23A
	LDS  R30,_desimtys_minutes
	LDS  R26,_SKAMBUTIS_15dm
	CP   R30,R26
	BRNE _0x23A
	LDS  R30,_minutes
	LDS  R26,_SKAMBUTIS_15m
	CP   R30,R26
	BREQ _0x23B
_0x23A:
	RJMP _0x239
_0x23B:
; 0000 050B       SKAMBUTIS_TURETU_SKAMBETI = 1;}
	LDI  R30,LOW(1)
	STS  _SKAMBUTIS_TURETU_SKAMBETI,R30
; 0000 050C 
; 0000 050D       if((SKAMBUTIS_16dh==desimtys_valandos)&&
_0x239:
; 0000 050E       (SKAMBUTIS_16h==valandos)&&
; 0000 050F       (SKAMBUTIS_16dm==desimtys_minutes)&&
; 0000 0510       (SKAMBUTIS_16m==minutes)){
	LDS  R30,_desimtys_valandos
	LDS  R26,_SKAMBUTIS_16dh
	CP   R30,R26
	BRNE _0x23D
	LDS  R30,_valandos
	LDS  R26,_SKAMBUTIS_16h
	CP   R30,R26
	BRNE _0x23D
	LDS  R30,_desimtys_minutes
	LDS  R26,_SKAMBUTIS_16dm
	CP   R30,R26
	BRNE _0x23D
	LDS  R30,_minutes
	LDS  R26,_SKAMBUTIS_16m
	CP   R30,R26
	BREQ _0x23E
_0x23D:
	RJMP _0x23C
_0x23E:
; 0000 0511       SKAMBUTIS_TURETU_SKAMBETI = 1;}
	LDI  R30,LOW(1)
	STS  _SKAMBUTIS_TURETU_SKAMBETI,R30
; 0000 0512 
; 0000 0513       if((SKAMBUTIS_17dh==desimtys_valandos)&&
_0x23C:
; 0000 0514       (SKAMBUTIS_17h==valandos)&&
; 0000 0515       (SKAMBUTIS_17dm==desimtys_minutes)&&
; 0000 0516       (SKAMBUTIS_17m==minutes)){
	LDS  R30,_desimtys_valandos
	LDS  R26,_SKAMBUTIS_17dh
	CP   R30,R26
	BRNE _0x240
	LDS  R30,_valandos
	LDS  R26,_SKAMBUTIS_17h
	CP   R30,R26
	BRNE _0x240
	LDS  R30,_desimtys_minutes
	LDS  R26,_SKAMBUTIS_17dm
	CP   R30,R26
	BRNE _0x240
	LDS  R30,_minutes
	LDS  R26,_SKAMBUTIS_17m
	CP   R30,R26
	BREQ _0x241
_0x240:
	RJMP _0x23F
_0x241:
; 0000 0517       SKAMBUTIS_TURETU_SKAMBETI = 1;}
	LDI  R30,LOW(1)
	STS  _SKAMBUTIS_TURETU_SKAMBETI,R30
; 0000 0518 
; 0000 0519       if((SKAMBUTIS_18dh==desimtys_valandos)&&
_0x23F:
; 0000 051A       (SKAMBUTIS_18h==valandos)&&
; 0000 051B       (SKAMBUTIS_18dm==desimtys_minutes)&&
; 0000 051C       (SKAMBUTIS_18m==minutes)){
	LDS  R30,_desimtys_valandos
	LDS  R26,_SKAMBUTIS_18dh
	CP   R30,R26
	BRNE _0x243
	LDS  R30,_valandos
	LDS  R26,_SKAMBUTIS_18h
	CP   R30,R26
	BRNE _0x243
	LDS  R30,_desimtys_minutes
	LDS  R26,_SKAMBUTIS_18dm
	CP   R30,R26
	BRNE _0x243
	LDS  R30,_minutes
	LDS  R26,_SKAMBUTIS_18m
	CP   R30,R26
	BREQ _0x244
_0x243:
	RJMP _0x242
_0x244:
; 0000 051D       SKAMBUTIS_TURETU_SKAMBETI = 1;}
	LDI  R30,LOW(1)
	STS  _SKAMBUTIS_TURETU_SKAMBETI,R30
; 0000 051E 
; 0000 051F       if((SKAMBUTIS_19dh==desimtys_valandos)&&
_0x242:
; 0000 0520       (SKAMBUTIS_19h==valandos)&&
; 0000 0521       (SKAMBUTIS_19dm==desimtys_minutes)&&
; 0000 0522       (SKAMBUTIS_19m==minutes)){
	LDS  R30,_desimtys_valandos
	LDS  R26,_SKAMBUTIS_19dh
	CP   R30,R26
	BRNE _0x246
	LDS  R30,_valandos
	LDS  R26,_SKAMBUTIS_19h
	CP   R30,R26
	BRNE _0x246
	LDS  R30,_desimtys_minutes
	LDS  R26,_SKAMBUTIS_19dm
	CP   R30,R26
	BRNE _0x246
	LDS  R30,_minutes
	LDS  R26,_SKAMBUTIS_19m
	CP   R30,R26
	BREQ _0x247
_0x246:
	RJMP _0x245
_0x247:
; 0000 0523       SKAMBUTIS_TURETU_SKAMBETI = 1;}
	LDI  R30,LOW(1)
	STS  _SKAMBUTIS_TURETU_SKAMBETI,R30
; 0000 0524 
; 0000 0525       if((SKAMBUTIS_20dh==desimtys_valandos)&&
_0x245:
; 0000 0526       (SKAMBUTIS_20h==valandos)&&
; 0000 0527       (SKAMBUTIS_20dm==desimtys_minutes)&&
; 0000 0528       (SKAMBUTIS_20m==minutes)){
	LDS  R30,_desimtys_valandos
	LDS  R26,_SKAMBUTIS_20dh
	CP   R30,R26
	BRNE _0x249
	LDS  R30,_valandos
	LDS  R26,_SKAMBUTIS_20h
	CP   R30,R26
	BRNE _0x249
	LDS  R30,_desimtys_minutes
	LDS  R26,_SKAMBUTIS_20dm
	CP   R30,R26
	BRNE _0x249
	LDS  R30,_minutes
	LDS  R26,_SKAMBUTIS_20m
	CP   R30,R26
	BREQ _0x24A
_0x249:
	RJMP _0x248
_0x24A:
; 0000 0529       SKAMBUTIS_TURETU_SKAMBETI = 1;}
	LDI  R30,LOW(1)
	STS  _SKAMBUTIS_TURETU_SKAMBETI,R30
; 0000 052A 
; 0000 052B       if(SKAMBUTIS_TURETU_SKAMBETI==0){
_0x248:
	LDS  R30,_SKAMBUTIS_TURETU_SKAMBETI
	CPI  R30,0
	BRNE _0x24B
; 0000 052C       Sesios_sekundes = 0;}
	LDI  R30,LOW(0)
	STS  _Sesios_sekundes,R30
; 0000 052D 
; 0000 052E       if((SKAMBUTIS_TURETU_SKAMBETI==1)&&(Sesios_sekundes!=6)){
_0x24B:
	LDS  R26,_SKAMBUTIS_TURETU_SKAMBETI
	CPI  R26,LOW(0x1)
	BRNE _0x24D
	LDS  R26,_Sesios_sekundes
	CPI  R26,LOW(0x6)
	BRNE _0x24E
_0x24D:
	RJMP _0x24C
_0x24E:
; 0000 052F       viena_sekunde3 = viena_sekunde3 + 1;}
	LDS  R30,_viena_sekunde3
	LDS  R31,_viena_sekunde3+1
	LDS  R22,_viena_sekunde3+2
	LDS  R23,_viena_sekunde3+3
	__ADDD1N 1
	STS  _viena_sekunde3,R30
	STS  _viena_sekunde3+1,R31
	STS  _viena_sekunde3+2,R22
	STS  _viena_sekunde3+3,R23
; 0000 0530 
; 0000 0531       if(viena_sekunde3==1000){
_0x24C:
	LDS  R26,_viena_sekunde3
	LDS  R27,_viena_sekunde3+1
	LDS  R24,_viena_sekunde3+2
	LDS  R25,_viena_sekunde3+3
	__CPD2N 0x3E8
	BRNE _0x24F
; 0000 0532       Sesios_sekundes = Sesios_sekundes + 1;
	LDS  R30,_Sesios_sekundes
	SUBI R30,-LOW(1)
	STS  _Sesios_sekundes,R30
; 0000 0533       viena_sekunde3 = 0;}
	LDI  R30,LOW(0)
	STS  _viena_sekunde3,R30
	STS  _viena_sekunde3+1,R30
	STS  _viena_sekunde3+2,R30
	STS  _viena_sekunde3+3,R30
; 0000 0534 
; 0000 0535       if((Sesios_sekundes!=0)&&(Sesios_sekundes!=6)&&
_0x24F:
; 0000 0536       (REDAGAVIMAS==0)){
	LDS  R26,_Sesios_sekundes
	CPI  R26,LOW(0x0)
	BREQ _0x251
	CPI  R26,LOW(0x6)
	BREQ _0x251
	LDS  R26,_REDAGAVIMAS
	CPI  R26,LOW(0x0)
	BREQ _0x252
_0x251:
	RJMP _0x250
_0x252:
; 0000 0537       SKAMBUTIS_SKAMBA = 1;}
	LDI  R30,LOW(1)
	STS  _SKAMBUTIS_SKAMBA,R30
; 0000 0538 
; 0000 0539 
; 0000 053A       //VISUAL:
; 0000 053B       if(DB_LAIKO_RODYMAS==1){
_0x250:
	LDS  R26,_DB_LAIKO_RODYMAS
	CPI  R26,LOW(0x1)
	BREQ PC+3
	JMP _0x253
; 0000 053C       //tikras laikas:
; 0000 053D       if(EILUTES_SKAICIUS==0){
	LDS  R30,_EILUTES_SKAICIUS
	CPI  R30,0
	BREQ PC+3
	JMP _0x254
; 0000 053E 
; 0000 053F       viena_sekunde5 = viena_sekunde5 + 1;
	MOVW R30,R12
	ADIW R30,1
	MOVW R12,R30
; 0000 0540       if(viena_sekunde5==1000){
	LDI  R30,LOW(1000)
	LDI  R31,HIGH(1000)
	CP   R30,R12
	CPC  R31,R13
	BRNE _0x255
; 0000 0541       DESIMT_SEKUNDZIU = DESIMT_SEKUNDZIU + 1;
	LDS  R30,_DESIMT_SEKUNDZIU
	SUBI R30,-LOW(1)
	STS  _DESIMT_SEKUNDZIU,R30
; 0000 0542       viena_sekunde5 = 0;}
	CLR  R12
	CLR  R13
; 0000 0543       if(DESIMT_SEKUNDZIU==10){
_0x255:
	LDS  R26,_DESIMT_SEKUNDZIU
	CPI  R26,LOW(0xA)
	BRNE _0x256
; 0000 0544       DESIMT_SEKUNDZIU = 0;}
	LDI  R30,LOW(0)
	STS  _DESIMT_SEKUNDZIU,R30
; 0000 0545 
; 0000 0546       if(DESIMT_SEKUNDZIU==1){
_0x256:
	LDS  R26,_DESIMT_SEKUNDZIU
	CPI  R26,LOW(0x1)
	BRNE _0x257
; 0000 0547       if(OSC==12){
	LDS  R26,_OSC
	CPI  R26,LOW(0xC)
	BRNE _0x258
; 0000 0548       a = 14;}}
	LDI  R30,LOW(14)
	STS  _a,R30
_0x258:
; 0000 0549 
; 0000 054A       if(DESIMT_SEKUNDZIU==2){
_0x257:
	LDS  R26,_DESIMT_SEKUNDZIU
	CPI  R26,LOW(0x2)
	BRNE _0x259
; 0000 054B       if(OSC==8){
	LDS  R26,_OSC
	CPI  R26,LOW(0x8)
	BRNE _0x25A
; 0000 054C       a = 14;}
	LDI  R30,LOW(14)
	STS  _a,R30
; 0000 054D       if(OSC==12){
_0x25A:
	LDS  R26,_OSC
	CPI  R26,LOW(0xC)
	BRNE _0x25B
; 0000 054E       a = 10;}}
	LDI  R30,LOW(10)
	STS  _a,R30
_0x25B:
; 0000 054F 
; 0000 0550       if(DESIMT_SEKUNDZIU==3){
_0x259:
	LDS  R26,_DESIMT_SEKUNDZIU
	CPI  R26,LOW(0x3)
	BRNE _0x25C
; 0000 0551       if(OSC==4){
	LDS  R26,_OSC
	CPI  R26,LOW(0x4)
	BRNE _0x25D
; 0000 0552       a = 14;}
	LDI  R30,LOW(14)
	STS  _a,R30
; 0000 0553       if(OSC==8){
_0x25D:
	LDS  R26,_OSC
	CPI  R26,LOW(0x8)
	BRNE _0x25E
; 0000 0554       a = 10;}
	LDI  R30,LOW(10)
	STS  _a,R30
; 0000 0555       if(OSC==12){
_0x25E:
	LDS  R26,_OSC
	CPI  R26,LOW(0xC)
	BRNE _0x25F
; 0000 0556       a = 11;}}
	LDI  R30,LOW(11)
	STS  _a,R30
_0x25F:
; 0000 0557 
; 0000 0558       if(DESIMT_SEKUNDZIU==4){
_0x25C:
	LDS  R26,_DESIMT_SEKUNDZIU
	CPI  R26,LOW(0x4)
	BRNE _0x260
; 0000 0559       if(OSC==0){
	LDS  R30,_OSC
	CPI  R30,0
	BRNE _0x261
; 0000 055A       a = 14;}
	LDI  R30,LOW(14)
	STS  _a,R30
; 0000 055B       if(OSC==4){
_0x261:
	LDS  R26,_OSC
	CPI  R26,LOW(0x4)
	BRNE _0x262
; 0000 055C       a = 10;}
	LDI  R30,LOW(10)
	STS  _a,R30
; 0000 055D       if(OSC==8){
_0x262:
	LDS  R26,_OSC
	CPI  R26,LOW(0x8)
	BRNE _0x263
; 0000 055E       a = 11;}
	LDI  R30,LOW(11)
	STS  _a,R30
; 0000 055F       if(OSC==12){
_0x263:
	LDS  R26,_OSC
	CPI  R26,LOW(0xC)
	BRNE _0x264
; 0000 0560       a = 10;}}
	LDI  R30,LOW(10)
	STS  _a,R30
_0x264:
; 0000 0561 
; 0000 0562       if(DESIMT_SEKUNDZIU==5){
_0x260:
	LDS  R26,_DESIMT_SEKUNDZIU
	CPI  R26,LOW(0x5)
	BRNE _0x265
; 0000 0563       if(OSC==0){
	LDS  R30,_OSC
	CPI  R30,0
	BRNE _0x266
; 0000 0564       a = 10;}
	LDI  R30,LOW(10)
	STS  _a,R30
; 0000 0565       if(OSC==4){
_0x266:
	LDS  R26,_OSC
	CPI  R26,LOW(0x4)
	BRNE _0x267
; 0000 0566       a = 11;}
	LDI  R30,LOW(11)
	STS  _a,R30
; 0000 0567       if(OSC==8){
_0x267:
	LDS  R26,_OSC
	CPI  R26,LOW(0x8)
	BRNE _0x268
; 0000 0568       a = 10;}
	LDI  R30,LOW(10)
	STS  _a,R30
; 0000 0569       if(OSC==12){
_0x268:
	LDS  R26,_OSC
	CPI  R26,LOW(0xC)
	BRNE _0x269
; 0000 056A       a = 30;}}
	LDI  R30,LOW(30)
	STS  _a,R30
_0x269:
; 0000 056B 
; 0000 056C       if(DESIMT_SEKUNDZIU==6){
_0x265:
	LDS  R26,_DESIMT_SEKUNDZIU
	CPI  R26,LOW(0x6)
	BRNE _0x26A
; 0000 056D       if(OSC==0){
	LDS  R30,_OSC
	CPI  R30,0
	BRNE _0x26B
; 0000 056E       a = 11;}
	LDI  R30,LOW(11)
	STS  _a,R30
; 0000 056F       if(OSC==4){
_0x26B:
	LDS  R26,_OSC
	CPI  R26,LOW(0x4)
	BRNE _0x26C
; 0000 0570       a = 10;}
	LDI  R30,LOW(10)
	STS  _a,R30
; 0000 0571       if(OSC==8){
_0x26C:
	LDS  R26,_OSC
	CPI  R26,LOW(0x8)
	BRNE _0x26D
; 0000 0572       a = 30;}}
	LDI  R30,LOW(30)
	STS  _a,R30
_0x26D:
; 0000 0573 
; 0000 0574       if(DESIMT_SEKUNDZIU==7){
_0x26A:
	LDS  R26,_DESIMT_SEKUNDZIU
	CPI  R26,LOW(0x7)
	BRNE _0x26E
; 0000 0575       if(OSC==0){
	LDS  R30,_OSC
	CPI  R30,0
	BRNE _0x26F
; 0000 0576       a = 10;}
	LDI  R30,LOW(10)
	STS  _a,R30
; 0000 0577       if(OSC==4){
_0x26F:
	LDS  R26,_OSC
	CPI  R26,LOW(0x4)
	BRNE _0x270
; 0000 0578       a = 30;}}
	LDI  R30,LOW(30)
	STS  _a,R30
_0x270:
; 0000 0579 
; 0000 057A       if(DESIMT_SEKUNDZIU==8){
_0x26E:
	LDS  R26,_DESIMT_SEKUNDZIU
	CPI  R26,LOW(0x8)
	BRNE _0x271
; 0000 057B       if(OSC==0){
	LDS  R30,_OSC
	CPI  R30,0
	BRNE _0x272
; 0000 057C       a = 30;}}
	LDI  R30,LOW(30)
	STS  _a,R30
_0x272:
; 0000 057D 
; 0000 057E       if(OSC==16){
_0x271:
	LDS  R26,_OSC
	CPI  R26,LOW(0x10)
	BRNE _0x273
; 0000 057F       a = desimtys_valandos;}
	LDS  R30,_desimtys_valandos
	STS  _a,R30
; 0000 0580       if(OSC==20){
_0x273:
	LDS  R26,_OSC
	CPI  R26,LOW(0x14)
	BRNE _0x274
; 0000 0581       a = valandos;
	LDS  R30,_valandos
	RCALL SUBOPT_0xC
; 0000 0582       segm_h = 1;}
; 0000 0583       if(OSC==24){
_0x274:
	LDS  R26,_OSC
	CPI  R26,LOW(0x18)
	BRNE _0x275
; 0000 0584       a = desimtys_minutes;}
	LDS  R30,_desimtys_minutes
	STS  _a,R30
; 0000 0585       if(OSC==28){
_0x275:
	LDS  R26,_OSC
	CPI  R26,LOW(0x1C)
	BRNE _0x276
; 0000 0586       a = minutes;}
	LDS  R30,_minutes
	STS  _a,R30
; 0000 0587 
; 0000 0588       if((PINC.0==1)&&(OSC==12)){
_0x276:
	SBIS 0x13,0
	RJMP _0x278
	LDS  R26,_OSC
	CPI  R26,LOW(0xC)
	BREQ _0x279
_0x278:
	RJMP _0x277
_0x279:
; 0000 0589       segm_h = 1;}}}
	LDI  R30,LOW(1)
	STS  _segm_h,R30
_0x277:
_0x254:
; 0000 058A       //skambucio laikas:
; 0000 058B       if(EILUTES_SKAICIUS!=0){
_0x253:
	LDS  R30,_EILUTES_SKAICIUS
	CPI  R30,0
	BREQ _0x27A
; 0000 058C       viena_sekunde5 = 0;
	CLR  R12
	CLR  R13
; 0000 058D       if(OSC==0){
	LDS  R30,_OSC
	CPI  R30,0
	BRNE _0x27B
; 0000 058E       a = 25;}
	LDI  R30,LOW(25)
	STS  _a,R30
; 0000 058F       if(OSC==4){
_0x27B:
	LDS  R26,_OSC
	CPI  R26,LOW(0x4)
	BRNE _0x27C
; 0000 0590       a = 26;
	LDI  R30,LOW(26)
	RCALL SUBOPT_0xC
; 0000 0591       segm_h = 1;}
; 0000 0592       if(OSC==8){
_0x27C:
	LDS  R26,_OSC
	CPI  R26,LOW(0x8)
	BRNE _0x27D
; 0000 0593       a = d;}
	LDS  R30,_d
	STS  _a,R30
; 0000 0594       if(OSC==12){
_0x27D:
	LDS  R26,_OSC
	CPI  R26,LOW(0xC)
	BRNE _0x27E
; 0000 0595       a = e;
	LDS  R30,_e
	RCALL SUBOPT_0xC
; 0000 0596       segm_h = 1;}
; 0000 0597       if(OSC==16){
_0x27E:
	LDS  R26,_OSC
	CPI  R26,LOW(0x10)
	BRNE _0x27F
; 0000 0598       a = x;}
	LDS  R30,_x
	STS  _a,R30
; 0000 0599       if(OSC==20){
_0x27F:
	LDS  R26,_OSC
	CPI  R26,LOW(0x14)
	BRNE _0x280
; 0000 059A       a = y;
	LDS  R30,_y
	RCALL SUBOPT_0xC
; 0000 059B       segm_h = 1;}
; 0000 059C       if(OSC==24){
_0x280:
	LDS  R26,_OSC
	CPI  R26,LOW(0x18)
	BRNE _0x281
; 0000 059D       a = z;}
	LDS  R30,_z
	STS  _a,R30
; 0000 059E       if(OSC==28){
_0x281:
	LDS  R26,_OSC
	CPI  R26,LOW(0x1C)
	BRNE _0x282
; 0000 059F       a = k;}}
	LDS  R30,_k
	STS  _a,R30
_0x282:
; 0000 05A0 
; 0000 05A1 
; 0000 05A2       //BLYKCIOJIMAS:
; 0000 05A3       viena_sekunde1 = viena_sekunde1 + 1;
_0x27A:
	MOVW R30,R4
	ADIW R30,1
	MOVW R4,R30
; 0000 05A4       if((viena_sekunde1==1000)&&(BLYKCIOTI==0)){
	LDI  R30,LOW(1000)
	LDI  R31,HIGH(1000)
	CP   R30,R4
	CPC  R31,R5
	BRNE _0x284
	LDS  R26,_BLYKCIOTI
	CPI  R26,LOW(0x0)
	BREQ _0x285
_0x284:
	RJMP _0x283
_0x285:
; 0000 05A5       BLYKCIOTI = 1;
	LDI  R30,LOW(1)
	STS  _BLYKCIOTI,R30
; 0000 05A6       viena_sekunde1 = 0;}
	CLR  R4
	CLR  R5
; 0000 05A7       if((viena_sekunde1==1000)&&(BLYKCIOTI==1)){
_0x283:
	LDI  R30,LOW(1000)
	LDI  R31,HIGH(1000)
	CP   R30,R4
	CPC  R31,R5
	BRNE _0x287
	LDS  R26,_BLYKCIOTI
	CPI  R26,LOW(0x1)
	BREQ _0x288
_0x287:
	RJMP _0x286
_0x288:
; 0000 05A8       BLYKCIOTI = 0;
	LDI  R30,LOW(0)
	STS  _BLYKCIOTI,R30
; 0000 05A9       viena_sekunde1 = 0;}
	CLR  R4
	CLR  R5
; 0000 05AA 
; 0000 05AB 
; 0000 05AC 
; 0000 05AD       if((REDAGAVIMAS==1)&&(REDAG_SK_NR==0)&&(BLYKCIOTI==1)){
_0x286:
	LDS  R26,_REDAGAVIMAS
	CPI  R26,LOW(0x1)
	BRNE _0x28A
	LDS  R26,_REDAG_SK_NR
	CPI  R26,LOW(0x0)
	BRNE _0x28A
	LDS  R26,_BLYKCIOTI
	CPI  R26,LOW(0x1)
	BREQ _0x28B
_0x28A:
	RJMP _0x289
_0x28B:
; 0000 05AE       if(OSC==16){
	LDS  R26,_OSC
	CPI  R26,LOW(0x10)
	BRNE _0x28C
; 0000 05AF       a = 33;}}
	LDI  R30,LOW(33)
	STS  _a,R30
_0x28C:
; 0000 05B0       if((REDAGAVIMAS==1)&&(REDAG_SK_NR==1)&&(BLYKCIOTI==1)){
_0x289:
	LDS  R26,_REDAGAVIMAS
	CPI  R26,LOW(0x1)
	BRNE _0x28E
	LDS  R26,_REDAG_SK_NR
	CPI  R26,LOW(0x1)
	BRNE _0x28E
	LDS  R26,_BLYKCIOTI
	CPI  R26,LOW(0x1)
	BREQ _0x28F
_0x28E:
	RJMP _0x28D
_0x28F:
; 0000 05B1       if(OSC==20){
	LDS  R26,_OSC
	CPI  R26,LOW(0x14)
	BRNE _0x290
; 0000 05B2       a = 33;}}
	LDI  R30,LOW(33)
	STS  _a,R30
_0x290:
; 0000 05B3       if((REDAGAVIMAS==1)&&(REDAG_SK_NR==2)&&(BLYKCIOTI==1)){
_0x28D:
	LDS  R26,_REDAGAVIMAS
	CPI  R26,LOW(0x1)
	BRNE _0x292
	LDS  R26,_REDAG_SK_NR
	CPI  R26,LOW(0x2)
	BRNE _0x292
	LDS  R26,_BLYKCIOTI
	CPI  R26,LOW(0x1)
	BREQ _0x293
_0x292:
	RJMP _0x291
_0x293:
; 0000 05B4       if(OSC==24){
	LDS  R26,_OSC
	CPI  R26,LOW(0x18)
	BRNE _0x294
; 0000 05B5       a = 33;}}
	LDI  R30,LOW(33)
	STS  _a,R30
_0x294:
; 0000 05B6       if((REDAGAVIMAS==1)&&(REDAG_SK_NR==3)&&(BLYKCIOTI==1)){
_0x291:
	LDS  R26,_REDAGAVIMAS
	CPI  R26,LOW(0x1)
	BRNE _0x296
	LDS  R26,_REDAG_SK_NR
	CPI  R26,LOW(0x3)
	BRNE _0x296
	LDS  R26,_BLYKCIOTI
	CPI  R26,LOW(0x1)
	BREQ _0x297
_0x296:
	RJMP _0x295
_0x297:
; 0000 05B7       if(OSC==28){
	LDS  R26,_OSC
	CPI  R26,LOW(0x1C)
	BRNE _0x298
; 0000 05B8       a = 33;}}}
	LDI  R30,LOW(33)
	STS  _a,R30
_0x298:
_0x295:
; 0000 05B9 
; 0000 05BA       //KAI UZRAKINTA SVIESTI TASKELI
; 0000 05BB       if(UZRAKINTA==1){
_0x3D:
	LDS  R26,_UZRAKINTA
	CPI  R26,LOW(0x1)
	BRNE _0x299
; 0000 05BC       if(OSC==28){
	LDS  R26,_OSC
	CPI  R26,LOW(0x1C)
	BRNE _0x29A
; 0000 05BD       segm_h = 1;}}
	LDI  R30,LOW(1)
	STS  _segm_h,R30
_0x29A:
; 0000 05BE 
; 0000 05BF       //SKAICIAI IR RAIDES:
; 0000 05C0       // a==10 (A)
; 0000 05C1       // a==11 (b)
; 0000 05C2       // a==12 (c)
; 0000 05C3       // a==13 (C)
; 0000 05C4       // a==14 (d)
; 0000 05C5       // a==15 (E)
; 0000 05C6       // a==16 (F)
; 0000 05C7       // a==17 (H)
; 0000 05C8       // a==18 (h)
; 0000 05C9       // a==19 (I)
; 0000 05CA       // a==20 (i)
; 0000 05CB       // a==21 (J)
; 0000 05CC       // a==22 (L)
; 0000 05CD       // a==23 (o)
; 0000 05CE       // a==24 (P)
; 0000 05CF       // a==25 (S)
; 0000 05D0       // a==26 (t)
; 0000 05D1       // a==27 (u)
; 0000 05D2       // a==28 (U)
; 0000 05D3       // a==29 (Z)
; 0000 05D4       // a==30 (r)
; 0000 05D5       // a==31 (_)
; 0000 05D6       // a==32 (-)
; 0000 05D7       // a==33 ( )
; 0000 05D8       // a==34 (n)
; 0000 05D9       if(a == 0){
_0x299:
	LDS  R30,_a
	CPI  R30,0
	BRNE _0x29B
; 0000 05DA       segm_a = 1;
	RCALL SUBOPT_0xD
; 0000 05DB       segm_b = 1;
; 0000 05DC       segm_c = 1;
	RCALL SUBOPT_0xE
; 0000 05DD       segm_d = 1;
; 0000 05DE       segm_e = 1;
	RCALL SUBOPT_0xF
; 0000 05DF       segm_f = 1;
; 0000 05E0       segm_g = 0;}
	LDI  R30,LOW(0)
	STS  _segm_g,R30
; 0000 05E1       if(a == 1){
_0x29B:
	LDS  R26,_a
	CPI  R26,LOW(0x1)
	BRNE _0x29C
; 0000 05E2       segm_a = 0;
	RCALL SUBOPT_0x10
; 0000 05E3       segm_b = 1;
; 0000 05E4       segm_c = 1;
; 0000 05E5       segm_d = 0;
; 0000 05E6       segm_e = 0;
; 0000 05E7       segm_f = 0;
	RCALL SUBOPT_0x11
; 0000 05E8       segm_g = 0;}
; 0000 05E9       if(a == 2){
_0x29C:
	LDS  R26,_a
	CPI  R26,LOW(0x2)
	BRNE _0x29D
; 0000 05EA       segm_a = 1;
	RCALL SUBOPT_0xD
; 0000 05EB       segm_b = 1;
; 0000 05EC       segm_c = 0;
	RCALL SUBOPT_0x12
; 0000 05ED       segm_d = 1;
; 0000 05EE       segm_e = 1;
; 0000 05EF       segm_f = 0;
; 0000 05F0       segm_g = 1;}
; 0000 05F1       if(a == 3){
_0x29D:
	LDS  R26,_a
	CPI  R26,LOW(0x3)
	BRNE _0x29E
; 0000 05F2       segm_a = 1;
	RCALL SUBOPT_0xD
; 0000 05F3       segm_b = 1;
; 0000 05F4       segm_c = 1;
	RCALL SUBOPT_0xE
; 0000 05F5       segm_d = 1;
; 0000 05F6       segm_e = 0;
	RCALL SUBOPT_0x13
; 0000 05F7       segm_f = 0;
; 0000 05F8       segm_g = 1;}
; 0000 05F9       if(a == 4){
_0x29E:
	LDS  R26,_a
	CPI  R26,LOW(0x4)
	BRNE _0x29F
; 0000 05FA       segm_a = 0;
	RCALL SUBOPT_0x10
; 0000 05FB       segm_b = 1;
; 0000 05FC       segm_c = 1;
; 0000 05FD       segm_d = 0;
; 0000 05FE       segm_e = 0;
; 0000 05FF       segm_f = 1;
	RCALL SUBOPT_0x14
; 0000 0600       segm_g = 1;}
; 0000 0601       if(a == 5){
_0x29F:
	LDS  R26,_a
	CPI  R26,LOW(0x5)
	BRNE _0x2A0
; 0000 0602       segm_a = 1;
	RCALL SUBOPT_0x15
; 0000 0603       segm_b = 0;
; 0000 0604       segm_c = 1;
; 0000 0605       segm_d = 1;
; 0000 0606       segm_e = 0;
	RCALL SUBOPT_0x16
; 0000 0607       segm_f = 1;
; 0000 0608       segm_g = 1;}
; 0000 0609       if(a == 6){
_0x2A0:
	LDS  R26,_a
	CPI  R26,LOW(0x6)
	BRNE _0x2A1
; 0000 060A       segm_a = 1;
	RCALL SUBOPT_0x15
; 0000 060B       segm_b = 0;
; 0000 060C       segm_c = 1;
; 0000 060D       segm_d = 1;
; 0000 060E       segm_e = 1;
	RCALL SUBOPT_0xF
; 0000 060F       segm_f = 1;
; 0000 0610       segm_g = 1;}
	LDI  R30,LOW(1)
	STS  _segm_g,R30
; 0000 0611       if(a == 7){
_0x2A1:
	LDS  R26,_a
	CPI  R26,LOW(0x7)
	BRNE _0x2A2
; 0000 0612       segm_a = 1;
	RCALL SUBOPT_0xD
; 0000 0613       segm_b = 1;
; 0000 0614       segm_c = 1;
	RCALL SUBOPT_0x17
; 0000 0615       segm_d = 0;
; 0000 0616       segm_e = 0;
	RCALL SUBOPT_0x18
; 0000 0617       segm_f = 0;
; 0000 0618       segm_g = 0;}
; 0000 0619       if(a == 8){
_0x2A2:
	LDS  R26,_a
	CPI  R26,LOW(0x8)
	BRNE _0x2A3
; 0000 061A       segm_a = 1;
	RCALL SUBOPT_0xD
; 0000 061B       segm_b = 1;
; 0000 061C       segm_c = 1;
	RCALL SUBOPT_0xE
; 0000 061D       segm_d = 1;
; 0000 061E       segm_e = 1;
	RCALL SUBOPT_0xF
; 0000 061F       segm_f = 1;
; 0000 0620       segm_g = 1;}
	LDI  R30,LOW(1)
	STS  _segm_g,R30
; 0000 0621       if(a == 9){
_0x2A3:
	LDS  R26,_a
	CPI  R26,LOW(0x9)
	BRNE _0x2A4
; 0000 0622       segm_a = 1;
	RCALL SUBOPT_0xD
; 0000 0623       segm_b = 1;
; 0000 0624       segm_c = 1;
	RCALL SUBOPT_0xE
; 0000 0625       segm_d = 1;
; 0000 0626       segm_e = 0;
	RCALL SUBOPT_0x16
; 0000 0627       segm_f = 1;
; 0000 0628       segm_g = 1;}
; 0000 0629       if(a ==10){
_0x2A4:
	LDS  R26,_a
	CPI  R26,LOW(0xA)
	BRNE _0x2A5
; 0000 062A       segm_a = 1;
	RCALL SUBOPT_0xD
; 0000 062B       segm_b = 1;
; 0000 062C       segm_c = 1;
	RCALL SUBOPT_0x17
; 0000 062D       segm_d = 0;
; 0000 062E       segm_e = 1;
	RCALL SUBOPT_0xF
; 0000 062F       segm_f = 1;
; 0000 0630       segm_g = 1;}
	LDI  R30,LOW(1)
	STS  _segm_g,R30
; 0000 0631       if(a ==11){
_0x2A5:
	LDS  R26,_a
	CPI  R26,LOW(0xB)
	BRNE _0x2A6
; 0000 0632       segm_a = 0;
	RCALL SUBOPT_0x19
; 0000 0633       segm_b = 0;
; 0000 0634       segm_c = 1;
	RCALL SUBOPT_0xE
; 0000 0635       segm_d = 1;
; 0000 0636       segm_e = 1;
	RCALL SUBOPT_0xF
; 0000 0637       segm_f = 1;
; 0000 0638       segm_g = 1;}
	LDI  R30,LOW(1)
	STS  _segm_g,R30
; 0000 0639       if(a ==12){
_0x2A6:
	LDS  R26,_a
	CPI  R26,LOW(0xC)
	BRNE _0x2A7
; 0000 063A       segm_a = 0;
	RCALL SUBOPT_0x19
; 0000 063B       segm_b = 0;
; 0000 063C       segm_c = 0;
	RCALL SUBOPT_0x12
; 0000 063D       segm_d = 1;
; 0000 063E       segm_e = 1;
; 0000 063F       segm_f = 0;
; 0000 0640       segm_g = 1;}
; 0000 0641       if(a ==13){
_0x2A7:
	LDS  R26,_a
	CPI  R26,LOW(0xD)
	BRNE _0x2A8
; 0000 0642       segm_a = 1;
	RCALL SUBOPT_0x1A
; 0000 0643       segm_b = 0;
; 0000 0644       segm_c = 0;
; 0000 0645       segm_d = 1;
; 0000 0646       segm_e = 1;
; 0000 0647       segm_f = 1;
; 0000 0648       segm_g = 0;}
	LDI  R30,LOW(0)
	STS  _segm_g,R30
; 0000 0649       if(a ==14){
_0x2A8:
	LDS  R26,_a
	CPI  R26,LOW(0xE)
	BRNE _0x2A9
; 0000 064A       segm_a = 0;
	RCALL SUBOPT_0x1B
; 0000 064B       segm_b = 1;
; 0000 064C       segm_c = 1;
	RCALL SUBOPT_0xE
; 0000 064D       segm_d = 1;
; 0000 064E       segm_e = 1;
	RCALL SUBOPT_0x1C
; 0000 064F       segm_f = 0;
; 0000 0650       segm_g = 1;}
; 0000 0651       if(a ==15){
_0x2A9:
	LDS  R26,_a
	CPI  R26,LOW(0xF)
	BRNE _0x2AA
; 0000 0652       segm_a = 1;
	RCALL SUBOPT_0x1A
; 0000 0653       segm_b = 0;
; 0000 0654       segm_c = 0;
; 0000 0655       segm_d = 1;
; 0000 0656       segm_e = 1;
; 0000 0657       segm_f = 1;
; 0000 0658       segm_g = 1;}
	LDI  R30,LOW(1)
	STS  _segm_g,R30
; 0000 0659       if(a ==16){
_0x2AA:
	LDS  R26,_a
	CPI  R26,LOW(0x10)
	BRNE _0x2AB
; 0000 065A       segm_a = 1;
	LDI  R30,LOW(1)
	STS  _segm_a,R30
; 0000 065B       segm_b = 0;
	LDI  R30,LOW(0)
	STS  _segm_b,R30
; 0000 065C       segm_c = 0;
	RCALL SUBOPT_0x1D
; 0000 065D       segm_d = 0;
; 0000 065E       segm_e = 1;
; 0000 065F       segm_f = 1;
; 0000 0660       segm_g = 1;}
	LDI  R30,LOW(1)
	STS  _segm_g,R30
; 0000 0661       if(a ==17){
_0x2AB:
	LDS  R26,_a
	CPI  R26,LOW(0x11)
	BRNE _0x2AC
; 0000 0662       segm_a = 0;
	RCALL SUBOPT_0x1B
; 0000 0663       segm_b = 1;
; 0000 0664       segm_c = 1;
	RCALL SUBOPT_0x17
; 0000 0665       segm_d = 0;
; 0000 0666       segm_e = 1;
	RCALL SUBOPT_0xF
; 0000 0667       segm_f = 1;
; 0000 0668       segm_g = 1;}
	LDI  R30,LOW(1)
	STS  _segm_g,R30
; 0000 0669       if(a ==18){
_0x2AC:
	LDS  R26,_a
	CPI  R26,LOW(0x12)
	BRNE _0x2AD
; 0000 066A       segm_a = 0;
	RCALL SUBOPT_0x19
; 0000 066B       segm_b = 0;
; 0000 066C       segm_c = 1;
	RCALL SUBOPT_0x17
; 0000 066D       segm_d = 0;
; 0000 066E       segm_e = 1;
	RCALL SUBOPT_0xF
; 0000 066F       segm_f = 1;
; 0000 0670       segm_g = 1;}
	LDI  R30,LOW(1)
	STS  _segm_g,R30
; 0000 0671       if(a ==19){
_0x2AD:
	LDS  R26,_a
	CPI  R26,LOW(0x13)
	BRNE _0x2AE
; 0000 0672       segm_a = 0;
	RCALL SUBOPT_0x10
; 0000 0673       segm_b = 1;
; 0000 0674       segm_c = 1;
; 0000 0675       segm_d = 0;
; 0000 0676       segm_e = 0;
; 0000 0677       segm_f = 0;
	RCALL SUBOPT_0x11
; 0000 0678       segm_g = 0;}
; 0000 0679       if(a ==20){
_0x2AE:
	LDS  R26,_a
	CPI  R26,LOW(0x14)
	BRNE _0x2AF
; 0000 067A       segm_a = 0;
	RCALL SUBOPT_0x19
; 0000 067B       segm_b = 0;
; 0000 067C       segm_c = 1;
	RCALL SUBOPT_0x17
; 0000 067D       segm_d = 0;
; 0000 067E       segm_e = 0;
	RCALL SUBOPT_0x18
; 0000 067F       segm_f = 0;
; 0000 0680       segm_g = 0;}
; 0000 0681       if(a ==21){
_0x2AF:
	LDS  R26,_a
	CPI  R26,LOW(0x15)
	BRNE _0x2B0
; 0000 0682       segm_a = 0;
	RCALL SUBOPT_0x1B
; 0000 0683       segm_b = 1;
; 0000 0684       segm_c = 1;
	RCALL SUBOPT_0xE
; 0000 0685       segm_d = 1;
; 0000 0686       segm_e = 0;
	RCALL SUBOPT_0x18
; 0000 0687       segm_f = 0;
; 0000 0688       segm_g = 0;}
; 0000 0689       if(a ==22){
_0x2B0:
	LDS  R26,_a
	CPI  R26,LOW(0x16)
	BRNE _0x2B1
; 0000 068A       segm_a = 0;
	RCALL SUBOPT_0x19
; 0000 068B       segm_b = 0;
; 0000 068C       segm_c = 0;
	RCALL SUBOPT_0x1E
; 0000 068D       segm_d = 1;
; 0000 068E       segm_e = 1;
; 0000 068F       segm_f = 1;
; 0000 0690       segm_g = 0;}
	LDI  R30,LOW(0)
	STS  _segm_g,R30
; 0000 0691       if(a ==23){
_0x2B1:
	LDS  R26,_a
	CPI  R26,LOW(0x17)
	BRNE _0x2B2
; 0000 0692       segm_a = 0;
	RCALL SUBOPT_0x19
; 0000 0693       segm_b = 0;
; 0000 0694       segm_c = 1;
	RCALL SUBOPT_0xE
; 0000 0695       segm_d = 1;
; 0000 0696       segm_e = 1;
	RCALL SUBOPT_0x1C
; 0000 0697       segm_f = 0;
; 0000 0698       segm_g = 1;}
; 0000 0699       if(a ==24){
_0x2B2:
	LDS  R26,_a
	CPI  R26,LOW(0x18)
	BRNE _0x2B3
; 0000 069A       segm_a = 1;
	RCALL SUBOPT_0xD
; 0000 069B       segm_b = 1;
; 0000 069C       segm_c = 0;
	RCALL SUBOPT_0x1D
; 0000 069D       segm_d = 0;
; 0000 069E       segm_e = 1;
; 0000 069F       segm_f = 1;
; 0000 06A0       segm_g = 1;}
	LDI  R30,LOW(1)
	STS  _segm_g,R30
; 0000 06A1       if(a ==25){
_0x2B3:
	LDS  R26,_a
	CPI  R26,LOW(0x19)
	BRNE _0x2B4
; 0000 06A2       segm_a = 1;
	RCALL SUBOPT_0x15
; 0000 06A3       segm_b = 0;
; 0000 06A4       segm_c = 1;
; 0000 06A5       segm_d = 1;
; 0000 06A6       segm_e = 0;
	RCALL SUBOPT_0x16
; 0000 06A7       segm_f = 1;
; 0000 06A8       segm_g = 1;}
; 0000 06A9       if(a ==26){
_0x2B4:
	LDS  R26,_a
	CPI  R26,LOW(0x1A)
	BRNE _0x2B5
; 0000 06AA       segm_a = 0;
	RCALL SUBOPT_0x19
; 0000 06AB       segm_b = 0;
; 0000 06AC       segm_c = 0;
	RCALL SUBOPT_0x1E
; 0000 06AD       segm_d = 1;
; 0000 06AE       segm_e = 1;
; 0000 06AF       segm_f = 1;
; 0000 06B0       segm_g = 1;}
	LDI  R30,LOW(1)
	STS  _segm_g,R30
; 0000 06B1       if(a ==27){
_0x2B5:
	LDS  R26,_a
	CPI  R26,LOW(0x1B)
	BRNE _0x2B6
; 0000 06B2       segm_a = 0;
	RCALL SUBOPT_0x19
; 0000 06B3       segm_b = 0;
; 0000 06B4       segm_c = 1;
	RCALL SUBOPT_0xE
; 0000 06B5       segm_d = 1;
; 0000 06B6       segm_e = 1;
	RCALL SUBOPT_0xF
; 0000 06B7       segm_f = 1;
; 0000 06B8       segm_g = 0;}
	LDI  R30,LOW(0)
	STS  _segm_g,R30
; 0000 06B9       if(a ==28){
_0x2B6:
	LDS  R26,_a
	CPI  R26,LOW(0x1C)
	BRNE _0x2B7
; 0000 06BA       segm_a = 0;
	RCALL SUBOPT_0x1B
; 0000 06BB       segm_b = 1;
; 0000 06BC       segm_c = 1;
	RCALL SUBOPT_0xE
; 0000 06BD       segm_d = 1;
; 0000 06BE       segm_e = 1;
	RCALL SUBOPT_0xF
; 0000 06BF       segm_f = 1;
; 0000 06C0       segm_g = 0;}
	LDI  R30,LOW(0)
	STS  _segm_g,R30
; 0000 06C1       if(a ==29){
_0x2B7:
	LDS  R26,_a
	CPI  R26,LOW(0x1D)
	BRNE _0x2B8
; 0000 06C2       segm_a = 1;
	RCALL SUBOPT_0xD
; 0000 06C3       segm_b = 1;
; 0000 06C4       segm_c = 0;
	RCALL SUBOPT_0x12
; 0000 06C5       segm_d = 1;
; 0000 06C6       segm_e = 1;
; 0000 06C7       segm_f = 0;
; 0000 06C8       segm_g = 1;}
; 0000 06C9       if(a ==30){
_0x2B8:
	LDS  R26,_a
	CPI  R26,LOW(0x1E)
	BRNE _0x2B9
; 0000 06CA       segm_a = 0;
	RCALL SUBOPT_0x19
; 0000 06CB       segm_b = 0;
; 0000 06CC       segm_c = 0;
	RCALL SUBOPT_0x1F
; 0000 06CD       segm_d = 0;
; 0000 06CE       segm_e = 1;
	RCALL SUBOPT_0x1C
; 0000 06CF       segm_f = 0;
; 0000 06D0       segm_g = 1;}
; 0000 06D1       if(a ==31){
_0x2B9:
	LDS  R26,_a
	CPI  R26,LOW(0x1F)
	BRNE _0x2BA
; 0000 06D2       segm_a = 0;
	RCALL SUBOPT_0x19
; 0000 06D3       segm_b = 0;
; 0000 06D4       segm_c = 0;
	LDI  R30,LOW(0)
	STS  _segm_c,R30
; 0000 06D5       segm_d = 1;
	LDI  R30,LOW(1)
	STS  _segm_d,R30
; 0000 06D6       segm_e = 0;
	RCALL SUBOPT_0x18
; 0000 06D7       segm_f = 0;
; 0000 06D8       segm_g = 0;}
; 0000 06D9       if(a ==32){
_0x2BA:
	LDS  R26,_a
	CPI  R26,LOW(0x20)
	BRNE _0x2BB
; 0000 06DA       segm_a = 0;
	RCALL SUBOPT_0x19
; 0000 06DB       segm_b = 0;
; 0000 06DC       segm_c = 0;
	RCALL SUBOPT_0x1F
; 0000 06DD       segm_d = 0;
; 0000 06DE       segm_e = 0;
	RCALL SUBOPT_0x13
; 0000 06DF       segm_f = 0;
; 0000 06E0       segm_g = 1;}
; 0000 06E1       if(a ==33){
_0x2BB:
	LDS  R26,_a
	CPI  R26,LOW(0x21)
	BRNE _0x2BC
; 0000 06E2       segm_a = 0;
	RCALL SUBOPT_0x19
; 0000 06E3       segm_b = 0;
; 0000 06E4       segm_c = 0;
	RCALL SUBOPT_0x1F
; 0000 06E5       segm_d = 0;
; 0000 06E6       segm_e = 0;
	RCALL SUBOPT_0x18
; 0000 06E7       segm_f = 0;
; 0000 06E8       segm_g = 0;}
; 0000 06E9       if(a ==34){
_0x2BC:
	LDS  R26,_a
	CPI  R26,LOW(0x22)
	BRNE _0x2BD
; 0000 06EA       segm_a = 0;
	RCALL SUBOPT_0x19
; 0000 06EB       segm_b = 0;
; 0000 06EC       segm_c = 1;
	RCALL SUBOPT_0x17
; 0000 06ED       segm_d = 0;
; 0000 06EE       segm_e = 1;
	RCALL SUBOPT_0x1C
; 0000 06EF       segm_f = 0;
; 0000 06F0       segm_g = 1;}
; 0000 06F1 
; 0000 06F2 
; 0000 06F3       //            ISEJIMAI:
; 0000 06F4       // RELES:
; 0000 06F5       {if((SKAMBUTIS_SKAMBA==1)&&(KELINTADIENIS<=5)){
_0x2BD:
	LDS  R26,_SKAMBUTIS_SKAMBA
	CPI  R26,LOW(0x1)
	BRNE _0x2BF
	LDS  R26,_KELINTADIENIS
	CPI  R26,LOW(0x6)
	BRLO _0x2C0
_0x2BF:
	RJMP _0x2BE
_0x2C0:
; 0000 06F6       PORTC.1 = 1;}
	SBI  0x15,1
; 0000 06F7       else
	RJMP _0x2C3
_0x2BE:
; 0000 06F8       PORTC.1 = 0;}
	CBI  0x15,1
_0x2C3:
; 0000 06F9 
; 0000 06FA       {if(ISKROVIMAS==1){
	LDS  R26,_ISKROVIMAS
	CPI  R26,LOW(0x1)
	BRNE _0x2C6
; 0000 06FB       PORTA.3 = 1;}
	SBI  0x1B,3
; 0000 06FC       else
	RJMP _0x2C9
_0x2C6:
; 0000 06FD       PORTA.3 = 0;}
	CBI  0x1B,3
_0x2C9:
; 0000 06FE 
; 0000 06FF       {if(KROVIMAS==1){
	LDS  R26,_KROVIMAS
	CPI  R26,LOW(0x1)
	BRNE _0x2CC
; 0000 0700       PORTA.4 = 1;}
	SBI  0x1B,4
; 0000 0701       else
	RJMP _0x2CF
_0x2CC:
; 0000 0702       PORTA.4 = 0;}
	CBI  0x1B,4
_0x2CF:
; 0000 0703 
; 0000 0704       //SEGMENTU
; 0000 0705       {if(segm_a==1){
	LDS  R26,_segm_a
	CPI  R26,LOW(0x1)
	BRNE _0x2D2
; 0000 0706       PORTD.5 = 0;}
	CBI  0x12,5
; 0000 0707       else
	RJMP _0x2D5
_0x2D2:
; 0000 0708       PORTD.5 = 1;}
	SBI  0x12,5
_0x2D5:
; 0000 0709       {if(segm_b==1){
	LDS  R26,_segm_b
	CPI  R26,LOW(0x1)
	BRNE _0x2D8
; 0000 070A       PORTD.2 = 0;}
	CBI  0x12,2
; 0000 070B       else
	RJMP _0x2DB
_0x2D8:
; 0000 070C       PORTD.2 = 1;}
	SBI  0x12,2
_0x2DB:
; 0000 070D       {if(segm_c==1){
	LDS  R26,_segm_c
	CPI  R26,LOW(0x1)
	BRNE _0x2DE
; 0000 070E       PORTD.1 = 0;}
	CBI  0x12,1
; 0000 070F       else
	RJMP _0x2E1
_0x2DE:
; 0000 0710       PORTD.1 = 1;}
	SBI  0x12,1
_0x2E1:
; 0000 0711       {if(segm_d==1){
	LDS  R26,_segm_d
	CPI  R26,LOW(0x1)
	BRNE _0x2E4
; 0000 0712       PORTD.3 = 0;}
	CBI  0x12,3
; 0000 0713       else
	RJMP _0x2E7
_0x2E4:
; 0000 0714       PORTD.3 = 1;}
	SBI  0x12,3
_0x2E7:
; 0000 0715       {if(segm_e==1){
	LDS  R26,_segm_e
	CPI  R26,LOW(0x1)
	BRNE _0x2EA
; 0000 0716       PORTD.0 = 0;}
	CBI  0x12,0
; 0000 0717       else
	RJMP _0x2ED
_0x2EA:
; 0000 0718       PORTD.0 = 1;}
	SBI  0x12,0
_0x2ED:
; 0000 0719       {if(segm_f==1){
	LDS  R26,_segm_f
	CPI  R26,LOW(0x1)
	BRNE _0x2F0
; 0000 071A       PORTD.7 = 0;}
	CBI  0x12,7
; 0000 071B       else
	RJMP _0x2F3
_0x2F0:
; 0000 071C       PORTD.7 = 1;}
	SBI  0x12,7
_0x2F3:
; 0000 071D       {if(segm_g==1){
	LDS  R26,_segm_g
	CPI  R26,LOW(0x1)
	BRNE _0x2F6
; 0000 071E       PORTD.6 = 0;}
	CBI  0x12,6
; 0000 071F       else
	RJMP _0x2F9
_0x2F6:
; 0000 0720       PORTD.6 = 1;}
	SBI  0x12,6
_0x2F9:
; 0000 0721       {if(segm_h==1){
	LDS  R26,_segm_h
	CPI  R26,LOW(0x1)
	BRNE _0x2FC
; 0000 0722       PORTD.4 = 0;}
	CBI  0x12,4
; 0000 0723       else
	RJMP _0x2FF
_0x2FC:
; 0000 0724       PORTD.4 = 1;}
	SBI  0x12,4
_0x2FF:
; 0000 0725 
; 0000 0726       //SKAICIU:
; 0000 0727       {if(OSC==0){
	LDS  R30,_OSC
	CPI  R30,0
	BRNE _0x302
; 0000 0728       PORTB.3 = 1;}
	SBI  0x18,3
; 0000 0729       else              // SKAICIUS NR.0
	RJMP _0x305
_0x302:
; 0000 072A       PORTB.3 = 0;}
	CBI  0x18,3
_0x305:
; 0000 072B 
; 0000 072C       {if(OSC==4){
	LDS  R26,_OSC
	CPI  R26,LOW(0x4)
	BRNE _0x308
; 0000 072D       PORTB.5 = 1;}
	SBI  0x18,5
; 0000 072E       else              // SKAICIUS NR.1
	RJMP _0x30B
_0x308:
; 0000 072F       PORTB.5 = 0;}
	CBI  0x18,5
_0x30B:
; 0000 0730 
; 0000 0731       {if(OSC==8){
	LDS  R26,_OSC
	CPI  R26,LOW(0x8)
	BRNE _0x30E
; 0000 0732       PORTB.2 = 1;}
	SBI  0x18,2
; 0000 0733       else              // SKAICIUS NR.2
	RJMP _0x311
_0x30E:
; 0000 0734       PORTB.2 = 0;}
	CBI  0x18,2
_0x311:
; 0000 0735 
; 0000 0736       {if(OSC==12){
	LDS  R26,_OSC
	CPI  R26,LOW(0xC)
	BRNE _0x314
; 0000 0737       PORTB.0 = 1;}
	SBI  0x18,0
; 0000 0738       else              // SKAICIUS NR.3
	RJMP _0x317
_0x314:
; 0000 0739       PORTB.0 = 0;}
	CBI  0x18,0
_0x317:
; 0000 073A 
; 0000 073B       {if(OSC==16){
	LDS  R26,_OSC
	CPI  R26,LOW(0x10)
	BRNE _0x31A
; 0000 073C       PORTB.1 = 1;}
	SBI  0x18,1
; 0000 073D       else              // SKAICIUS NR.4
	RJMP _0x31D
_0x31A:
; 0000 073E       PORTB.1 = 0;}
	CBI  0x18,1
_0x31D:
; 0000 073F 
; 0000 0740       {if(OSC==20){
	LDS  R26,_OSC
	CPI  R26,LOW(0x14)
	BRNE _0x320
; 0000 0741       PORTB.6 = 1;}
	SBI  0x18,6
; 0000 0742       else              // SKAICIUS NR.5
	RJMP _0x323
_0x320:
; 0000 0743       PORTB.6 = 0;}
	CBI  0x18,6
_0x323:
; 0000 0744 
; 0000 0745       {if(OSC==24){
	LDS  R26,_OSC
	CPI  R26,LOW(0x18)
	BRNE _0x326
; 0000 0746       PORTB.7 = 1;}
	SBI  0x18,7
; 0000 0747       else              // SKAICIUS NR.6
	RJMP _0x329
_0x326:
; 0000 0748       PORTB.7 = 0;}
	CBI  0x18,7
_0x329:
; 0000 0749 
; 0000 074A       {if(OSC==28){
	LDS  R26,_OSC
	CPI  R26,LOW(0x1C)
	BRNE _0x32C
; 0000 074B       PORTB.4 = 1;}
	SBI  0x18,4
; 0000 074C       else              // SKAICIUS NR.7
	RJMP _0x32F
_0x32C:
; 0000 074D       PORTB.4 = 0;}
	CBI  0x18,4
_0x32F:
; 0000 074E 
; 0000 074F       //PIRMINIS FILTRAVIMAS:
; 0000 0750       SKAMBUTIS_TURETU_SKAMBETI = 0;
	LDI  R30,LOW(0)
	STS  _SKAMBUTIS_TURETU_SKAMBETI,R30
; 0000 0751       a = 33;
	LDI  R30,LOW(33)
	STS  _a,R30
; 0000 0752       segm_a = 0;
	RCALL SUBOPT_0x19
; 0000 0753       segm_b = 0;
; 0000 0754       segm_c = 0;
	RCALL SUBOPT_0x1F
; 0000 0755       segm_d = 0;
; 0000 0756       segm_e = 0;
	RCALL SUBOPT_0x18
; 0000 0757       segm_f = 0;
; 0000 0758       segm_g = 0;
; 0000 0759       segm_h = 0;
	LDI  R30,LOW(0)
	STS  _segm_h,R30
; 0000 075A       DB_LAIKO_RODYMAS = 1;
	LDI  R30,LOW(1)
	STS  _DB_LAIKO_RODYMAS,R30
; 0000 075B       SKAMBUTIS_SKAMBA = 0;
	LDI  R30,LOW(0)
	STS  _SKAMBUTIS_SKAMBA,R30
; 0000 075C       ISPEJAMASIS_SKAMBUTIS = 0;
	STS  _ISPEJAMASIS_SKAMBUTIS,R30
; 0000 075D       }
; 0000 075E while (1);}
	JMP  _0x4
_0x332:
	RJMP _0x332

	.DSEG
_puse_sekundes:
	.BYTE 0x2
_viena_minute5:
	.BYTE 0x4
_viena_sekunde3:
	.BYTE 0x4
_PILNAS:
	.BYTE 0x1
_TUSCIAS:
	.BYTE 0x1
_KROVIMAS:
	.BYTE 0x1
_ISKROVIMAS:
	.BYTE 0x1
_BATERIJOS_BUSENA:
	.BYTE 0x1
_OSC:
	.BYTE 0x1
_MYGTUKAS_1:
	.BYTE 0x1
_MYGTUKAS_2:
	.BYTE 0x1
_MYGTUKAS_3:
	.BYTE 0x1
_MYGTUKAS_4:
	.BYTE 0x1
_MYGTUKAS_5:
	.BYTE 0x1
_MYGTUKAS_6:
	.BYTE 0x1
_MYGTUKAS_7:
	.BYTE 0x1
_MYGTUKAS_PASPAUSTAS:
	.BYTE 0x1
_segm_a:
	.BYTE 0x1
_segm_b:
	.BYTE 0x1
_segm_c:
	.BYTE 0x1
_segm_d:
	.BYTE 0x1
_segm_e:
	.BYTE 0x1
_segm_f:
	.BYTE 0x1
_segm_g:
	.BYTE 0x1
_segm_h:
	.BYTE 0x1
_LAIKRODIS:
	.BYTE 0x1
_sekundes:
	.BYTE 0x1
_minutes:
	.BYTE 0x1
_desimtys_minutes:
	.BYTE 0x1
_valandos:
	.BYTE 0x1
_desimtys_valandos:
	.BYTE 0x1
_a:
	.BYTE 0x1
_x:
	.BYTE 0x1
_y:
	.BYTE 0x1
_z:
	.BYTE 0x1
_k:
	.BYTE 0x1
_a2:
	.BYTE 0x1
_b2:
	.BYTE 0x1
_c2:
	.BYTE 0x1
_d2:
	.BYTE 0x1
_b:
	.BYTE 0x1
_d:
	.BYTE 0x1
_e:
	.BYTE 0x1
_f:
	.BYTE 0x1
_g:
	.BYTE 0x1
_i:
	.BYTE 0x1
_REDAGAVIMAS:
	.BYTE 0x1
_REDAG_SK_NR:
	.BYTE 0x1
_EILUTES_SKAICIUS:
	.BYTE 0x1
_EIL_SK:
	.BYTE 0x1
_BLYKCIOTI:
	.BYTE 0x1
_PENKIOLIKA_SEKUNDZIU:
	.BYTE 0x1
_DESIMT_SEKUNDZIU:
	.BYTE 0x1
_SKAMBUTIS_TURETU_SKAMBETI:
	.BYTE 0x1
_Sesios_sekundes:
	.BYTE 0x1
_SKAMBUTIS_SKAMBA:
	.BYTE 0x1
_ISPEJAMASIS_SKAMBUTIS:
	.BYTE 0x1
_DB_LAIKO_RODYMAS:
	.BYTE 0x1
_UZRAKINTA:
	.BYTE 0x1
_UZRAKTO_KODAS_1:
	.BYTE 0x1
_UZRAKTO_KODAS_2:
	.BYTE 0x1
_UZRAKTO_KODAS_3:
	.BYTE 0x1
_UZRAKTO_KODAS_4:
	.BYTE 0x1
_REDAG_UZRAKT_SKAIC:
	.BYTE 0x1
_a1:
	.BYTE 0x1
_b1:
	.BYTE 0x1
_c1:
	.BYTE 0x1
_d1:
	.BYTE 0x1
_KELINTADIENIO_PERZIURA:
	.BYTE 0x1
_KELINTADIENIS:
	.BYTE 0x1
_KELINTADIENIO_REDAGAVIMAS:
	.BYTE 0x1
_SKAMBUTIS_1dh:
	.BYTE 0x1
_SKAMBUTIS_1h:
	.BYTE 0x1
_SKAMBUTIS_1dm:
	.BYTE 0x1
_SKAMBUTIS_1m:
	.BYTE 0x1
_SKAMBUTIS_2dh:
	.BYTE 0x1
_SKAMBUTIS_2h:
	.BYTE 0x1
_SKAMBUTIS_2dm:
	.BYTE 0x1
_SKAMBUTIS_2m:
	.BYTE 0x1
_SKAMBUTIS_3dh:
	.BYTE 0x1
_SKAMBUTIS_3h:
	.BYTE 0x1
_SKAMBUTIS_3dm:
	.BYTE 0x1
_SKAMBUTIS_3m:
	.BYTE 0x1
_SKAMBUTIS_4dh:
	.BYTE 0x1
_SKAMBUTIS_4h:
	.BYTE 0x1
_SKAMBUTIS_4dm:
	.BYTE 0x1
_SKAMBUTIS_4m:
	.BYTE 0x1
_SKAMBUTIS_5dh:
	.BYTE 0x1
_SKAMBUTIS_5h:
	.BYTE 0x1
_SKAMBUTIS_5dm:
	.BYTE 0x1
_SKAMBUTIS_5m:
	.BYTE 0x1
_SKAMBUTIS_6dh:
	.BYTE 0x1
_SKAMBUTIS_6h:
	.BYTE 0x1
_SKAMBUTIS_6dm:
	.BYTE 0x1
_SKAMBUTIS_6m:
	.BYTE 0x1
_SKAMBUTIS_7dh:
	.BYTE 0x1
_SKAMBUTIS_7h:
	.BYTE 0x1
_SKAMBUTIS_7dm:
	.BYTE 0x1
_SKAMBUTIS_7m:
	.BYTE 0x1
_SKAMBUTIS_8dh:
	.BYTE 0x1
_SKAMBUTIS_8h:
	.BYTE 0x1
_SKAMBUTIS_8dm:
	.BYTE 0x1
_SKAMBUTIS_8m:
	.BYTE 0x1
_SKAMBUTIS_9dh:
	.BYTE 0x1
_SKAMBUTIS_9h:
	.BYTE 0x1
_SKAMBUTIS_9dm:
	.BYTE 0x1
_SKAMBUTIS_9m:
	.BYTE 0x1
_SKAMBUTIS_10dh:
	.BYTE 0x1
_SKAMBUTIS_10h:
	.BYTE 0x1
_SKAMBUTIS_10dm:
	.BYTE 0x1
_SKAMBUTIS_10m:
	.BYTE 0x1
_SKAMBUTIS_11dh:
	.BYTE 0x1
_SKAMBUTIS_11h:
	.BYTE 0x1
_SKAMBUTIS_11dm:
	.BYTE 0x1
_SKAMBUTIS_11m:
	.BYTE 0x1
_SKAMBUTIS_12dh:
	.BYTE 0x1
_SKAMBUTIS_12h:
	.BYTE 0x1
_SKAMBUTIS_12dm:
	.BYTE 0x1
_SKAMBUTIS_12m:
	.BYTE 0x1
_SKAMBUTIS_13dh:
	.BYTE 0x1
_SKAMBUTIS_13h:
	.BYTE 0x1
_SKAMBUTIS_13dm:
	.BYTE 0x1
_SKAMBUTIS_13m:
	.BYTE 0x1
_SKAMBUTIS_14dh:
	.BYTE 0x1
_SKAMBUTIS_14h:
	.BYTE 0x1
_SKAMBUTIS_14dm:
	.BYTE 0x1
_SKAMBUTIS_14m:
	.BYTE 0x1
_SKAMBUTIS_15dh:
	.BYTE 0x1
_SKAMBUTIS_15h:
	.BYTE 0x1
_SKAMBUTIS_15dm:
	.BYTE 0x1
_SKAMBUTIS_15m:
	.BYTE 0x1
_SKAMBUTIS_16dh:
	.BYTE 0x1
_SKAMBUTIS_16h:
	.BYTE 0x1
_SKAMBUTIS_16dm:
	.BYTE 0x1
_SKAMBUTIS_16m:
	.BYTE 0x1
_SKAMBUTIS_17dh:
	.BYTE 0x1
_SKAMBUTIS_17h:
	.BYTE 0x1
_SKAMBUTIS_17dm:
	.BYTE 0x1
_SKAMBUTIS_17m:
	.BYTE 0x1
_SKAMBUTIS_18dh:
	.BYTE 0x1
_SKAMBUTIS_18h:
	.BYTE 0x1
_SKAMBUTIS_18dm:
	.BYTE 0x1
_SKAMBUTIS_18m:
	.BYTE 0x1
_SKAMBUTIS_19dh:
	.BYTE 0x1
_SKAMBUTIS_19h:
	.BYTE 0x1
_SKAMBUTIS_19dm:
	.BYTE 0x1
_SKAMBUTIS_19m:
	.BYTE 0x1
_SKAMBUTIS_20dh:
	.BYTE 0x1
_SKAMBUTIS_20h:
	.BYTE 0x1
_SKAMBUTIS_20dm:
	.BYTE 0x1
_SKAMBUTIS_20m:
	.BYTE 0x1

	.CSEG
;OPTIMIZER ADDED SUBROUTINE, CALLED 4 TIMES, CODE SIZE REDUCTION:3 WORDS
SUBOPT_0x0:
	LDI  R26,0
	SBIC 0x19,2
	LDI  R26,1
	CPI  R26,LOW(0x0)
	RET

;OPTIMIZER ADDED SUBROUTINE, CALLED 4 TIMES, CODE SIZE REDUCTION:3 WORDS
SUBOPT_0x1:
	LDI  R26,0
	SBIC 0x19,1
	LDI  R26,1
	CPI  R26,LOW(0x0)
	RET

;OPTIMIZER ADDED SUBROUTINE, CALLED 4 TIMES, CODE SIZE REDUCTION:3 WORDS
SUBOPT_0x2:
	LDI  R26,0
	SBIC 0x19,0
	LDI  R26,1
	CPI  R26,LOW(0x0)
	RET

;OPTIMIZER ADDED SUBROUTINE, CALLED 2 TIMES, CODE SIZE REDUCTION:3 WORDS
SUBOPT_0x3:
	STS  _viena_minute5,R30
	STS  _viena_minute5+1,R31
	STS  _viena_minute5+2,R22
	STS  _viena_minute5+3,R23
	RET

;OPTIMIZER ADDED SUBROUTINE, CALLED 2 TIMES, CODE SIZE REDUCTION:4 WORDS
SUBOPT_0x4:
	LDI  R30,LOW(0)
	STS  _viena_minute5,R30
	STS  _viena_minute5+1,R30
	STS  _viena_minute5+2,R30
	STS  _viena_minute5+3,R30
	RET

;OPTIMIZER ADDED SUBROUTINE, CALLED 2 TIMES, CODE SIZE REDUCTION:5 WORDS
SUBOPT_0x5:
	LDS  R30,_viena_minute5
	LDS  R31,_viena_minute5+1
	LDS  R22,_viena_minute5+2
	LDS  R23,_viena_minute5+3
	CALL __CPD10
	RET

;OPTIMIZER ADDED SUBROUTINE, CALLED 2 TIMES, CODE SIZE REDUCTION:7 WORDS
SUBOPT_0x6:
	LDI  R30,LOW(0)
	STS  _a1,R30
	STS  _b1,R30
	STS  _c1,R30
	STS  _d1,R30
	RET

;OPTIMIZER ADDED SUBROUTINE, CALLED 15 TIMES, CODE SIZE REDUCTION:25 WORDS
SUBOPT_0x7:
	LDI  R31,0
	SBRC R30,7
	SER  R31
	SBIW R30,1
	RET

;OPTIMIZER ADDED SUBROUTINE, CALLED 3 TIMES, CODE SIZE REDUCTION:1 WORDS
SUBOPT_0x8:
	LDI  R30,LOW(0)
	STS  _REDAGAVIMAS,R30
	RET

;OPTIMIZER ADDED SUBROUTINE, CALLED 2 TIMES, CODE SIZE REDUCTION:15 WORDS
SUBOPT_0x9:
	STS  _MYGTUKAS_1,R30
	LDI  R30,LOW(0)
	STS  _MYGTUKAS_2,R30
	STS  _MYGTUKAS_3,R30
	STS  _MYGTUKAS_4,R30
	STS  _MYGTUKAS_5,R30
	STS  _MYGTUKAS_6,R30
	STS  _MYGTUKAS_7,R30
	RET

;OPTIMIZER ADDED SUBROUTINE, CALLED 2 TIMES, CODE SIZE REDUCTION:1 WORDS
SUBOPT_0xA:
	LDI  R30,LOW(0)
	STS  _KELINTADIENIO_PERZIURA,R30
	STS  _KELINTADIENIO_REDAGAVIMAS,R30
	RET

;OPTIMIZER ADDED SUBROUTINE, CALLED 4 TIMES, CODE SIZE REDUCTION:6 WORDS
SUBOPT_0xB:
	STS  _EILUTES_SKAICIUS,R30
	LDI  R30,LOW(1)
	STS  _g,R30
	RET

;OPTIMIZER ADDED SUBROUTINE, CALLED 4 TIMES, CODE SIZE REDUCTION:6 WORDS
SUBOPT_0xC:
	STS  _a,R30
	LDI  R30,LOW(1)
	STS  _segm_h,R30
	RET

;OPTIMIZER ADDED SUBROUTINE, CALLED 9 TIMES, CODE SIZE REDUCTION:29 WORDS
SUBOPT_0xD:
	LDI  R30,LOW(1)
	STS  _segm_a,R30
	STS  _segm_b,R30
	RET

;OPTIMIZER ADDED SUBROUTINE, CALLED 13 TIMES, CODE SIZE REDUCTION:45 WORDS
SUBOPT_0xE:
	LDI  R30,LOW(1)
	STS  _segm_c,R30
	STS  _segm_d,R30
	RET

;OPTIMIZER ADDED SUBROUTINE, CALLED 15 TIMES, CODE SIZE REDUCTION:53 WORDS
SUBOPT_0xF:
	LDI  R30,LOW(1)
	STS  _segm_e,R30
	STS  _segm_f,R30
	RET

;OPTIMIZER ADDED SUBROUTINE, CALLED 3 TIMES, CODE SIZE REDUCTION:23 WORDS
SUBOPT_0x10:
	LDI  R30,LOW(0)
	STS  _segm_a,R30
	LDI  R30,LOW(1)
	STS  _segm_b,R30
	STS  _segm_c,R30
	LDI  R30,LOW(0)
	STS  _segm_d,R30
	STS  _segm_e,R30
	RET

;OPTIMIZER ADDED SUBROUTINE, CALLED 8 TIMES, CODE SIZE REDUCTION:25 WORDS
SUBOPT_0x11:
	LDI  R30,LOW(0)
	STS  _segm_f,R30
	STS  _segm_g,R30
	RET

;OPTIMIZER ADDED SUBROUTINE, CALLED 3 TIMES, CODE SIZE REDUCTION:23 WORDS
SUBOPT_0x12:
	LDI  R30,LOW(0)
	STS  _segm_c,R30
	LDI  R30,LOW(1)
	STS  _segm_d,R30
	STS  _segm_e,R30
	LDI  R30,LOW(0)
	STS  _segm_f,R30
	LDI  R30,LOW(1)
	STS  _segm_g,R30
	RET

;OPTIMIZER ADDED SUBROUTINE, CALLED 2 TIMES, CODE SIZE REDUCTION:4 WORDS
SUBOPT_0x13:
	LDI  R30,LOW(0)
	STS  _segm_e,R30
	STS  _segm_f,R30
	LDI  R30,LOW(1)
	STS  _segm_g,R30
	RET

;OPTIMIZER ADDED SUBROUTINE, CALLED 4 TIMES, CODE SIZE REDUCTION:9 WORDS
SUBOPT_0x14:
	LDI  R30,LOW(1)
	STS  _segm_f,R30
	STS  _segm_g,R30
	RET

;OPTIMIZER ADDED SUBROUTINE, CALLED 3 TIMES, CODE SIZE REDUCTION:9 WORDS
SUBOPT_0x15:
	LDI  R30,LOW(1)
	STS  _segm_a,R30
	LDI  R30,LOW(0)
	STS  _segm_b,R30
	RJMP SUBOPT_0xE

;OPTIMIZER ADDED SUBROUTINE, CALLED 3 TIMES, CODE SIZE REDUCTION:3 WORDS
SUBOPT_0x16:
	LDI  R30,LOW(0)
	STS  _segm_e,R30
	RJMP SUBOPT_0x14

;OPTIMIZER ADDED SUBROUTINE, CALLED 6 TIMES, CODE SIZE REDUCTION:17 WORDS
SUBOPT_0x17:
	LDI  R30,LOW(1)
	STS  _segm_c,R30
	LDI  R30,LOW(0)
	STS  _segm_d,R30
	RET

;OPTIMIZER ADDED SUBROUTINE, CALLED 6 TIMES, CODE SIZE REDUCTION:12 WORDS
SUBOPT_0x18:
	LDI  R30,LOW(0)
	STS  _segm_e,R30
	RJMP SUBOPT_0x11

;OPTIMIZER ADDED SUBROUTINE, CALLED 14 TIMES, CODE SIZE REDUCTION:49 WORDS
SUBOPT_0x19:
	LDI  R30,LOW(0)
	STS  _segm_a,R30
	STS  _segm_b,R30
	RET

;OPTIMIZER ADDED SUBROUTINE, CALLED 2 TIMES, CODE SIZE REDUCTION:9 WORDS
SUBOPT_0x1A:
	LDI  R30,LOW(1)
	STS  _segm_a,R30
	LDI  R30,LOW(0)
	STS  _segm_b,R30
	STS  _segm_c,R30
	LDI  R30,LOW(1)
	STS  _segm_d,R30
	RJMP SUBOPT_0xF

;OPTIMIZER ADDED SUBROUTINE, CALLED 4 TIMES, CODE SIZE REDUCTION:9 WORDS
SUBOPT_0x1B:
	LDI  R30,LOW(0)
	STS  _segm_a,R30
	LDI  R30,LOW(1)
	STS  _segm_b,R30
	RET

;OPTIMIZER ADDED SUBROUTINE, CALLED 4 TIMES, CODE SIZE REDUCTION:18 WORDS
SUBOPT_0x1C:
	LDI  R30,LOW(1)
	STS  _segm_e,R30
	LDI  R30,LOW(0)
	STS  _segm_f,R30
	LDI  R30,LOW(1)
	STS  _segm_g,R30
	RET

;OPTIMIZER ADDED SUBROUTINE, CALLED 2 TIMES, CODE SIZE REDUCTION:3 WORDS
SUBOPT_0x1D:
	LDI  R30,LOW(0)
	STS  _segm_c,R30
	STS  _segm_d,R30
	RJMP SUBOPT_0xF

;OPTIMIZER ADDED SUBROUTINE, CALLED 2 TIMES, CODE SIZE REDUCTION:3 WORDS
SUBOPT_0x1E:
	LDI  R30,LOW(0)
	STS  _segm_c,R30
	LDI  R30,LOW(1)
	STS  _segm_d,R30
	RJMP SUBOPT_0xF

;OPTIMIZER ADDED SUBROUTINE, CALLED 4 TIMES, CODE SIZE REDUCTION:9 WORDS
SUBOPT_0x1F:
	LDI  R30,LOW(0)
	STS  _segm_c,R30
	STS  _segm_d,R30
	RET


	.CSEG
__ANEGW1:
	NEG  R31
	NEG  R30
	SBCI R31,0
	RET

__DIVW21U:
	CLR  R0
	CLR  R1
	LDI  R25,16
__DIVW21U1:
	LSL  R26
	ROL  R27
	ROL  R0
	ROL  R1
	SUB  R0,R30
	SBC  R1,R31
	BRCC __DIVW21U2
	ADD  R0,R30
	ADC  R1,R31
	RJMP __DIVW21U3
__DIVW21U2:
	SBR  R26,1
__DIVW21U3:
	DEC  R25
	BRNE __DIVW21U1
	MOVW R30,R26
	MOVW R26,R0
	RET

__DIVW21:
	RCALL __CHKSIGNW
	RCALL __DIVW21U
	BRTC __DIVW211
	RCALL __ANEGW1
__DIVW211:
	RET

__CHKSIGNW:
	CLT
	SBRS R31,7
	RJMP __CHKSW1
	RCALL __ANEGW1
	SET
__CHKSW1:
	SBRS R27,7
	RJMP __CHKSW2
	COM  R26
	COM  R27
	ADIW R26,1
	BLD  R0,0
	INC  R0
	BST  R0,0
__CHKSW2:
	RET

__CPD10:
	SBIW R30,0
	SBCI R22,0
	SBCI R23,0
	RET

__CPD02:
	CLR  R0
	CP   R0,R26
	CPC  R0,R27
	CPC  R0,R24
	CPC  R0,R25
	RET

;END OF CODE MARKER
__END_OF_CODE:
