
AVRASM ver. 2.1.30  D:\PROGRAMAVIMAS\C PROGRAMOS\SKAMBUTIS -=C=-\List\SKAMBUTIS.asm Sun Jun 27 19:29:19 2010

D:\PROGRAMAVIMAS\C PROGRAMOS\SKAMBUTIS -=C=-\List\SKAMBUTIS.asm(1051): warning: Register r4 already defined by the .DEF directive
D:\PROGRAMAVIMAS\C PROGRAMOS\SKAMBUTIS -=C=-\List\SKAMBUTIS.asm(1052): warning: Register r6 already defined by the .DEF directive
D:\PROGRAMAVIMAS\C PROGRAMOS\SKAMBUTIS -=C=-\List\SKAMBUTIS.asm(1053): warning: Register r8 already defined by the .DEF directive
D:\PROGRAMAVIMAS\C PROGRAMOS\SKAMBUTIS -=C=-\List\SKAMBUTIS.asm(1054): warning: Register r10 already defined by the .DEF directive
D:\PROGRAMAVIMAS\C PROGRAMOS\SKAMBUTIS -=C=-\List\SKAMBUTIS.asm(1055): warning: Register r12 already defined by the .DEF directive
                 
                 
                 ;CodeVisionAVR C Compiler V2.04.4a Advanced
                 ;(C) Copyright 1998-2009 Pavel Haiduc, HP InfoTech s.r.l.
                 ;http://www.hpinfotech.com
                 
                 ;Chip type                : ATmega32
                 ;Program type             : Application
                 ;Clock frequency          : 8.000000 MHz
                 ;Memory model             : Small
                 ;Optimize for             : Size
                 ;(s)printf features       : int, width
                 ;(s)scanf features        : int, width
                 ;External RAM size        : 0
                 ;Data Stack size          : 512 byte(s)
                 ;Heap size                : 0 byte(s)
                 ;Promote 'char' to 'int'  : Yes
                 ;'char' is unsigned       : Yes
                 ;8 bit enums              : Yes
                 ;global 'const' stored in FLASH: No
                 ;Enhanced core instructions    : On
                 ;Smart register allocation     : On
                 ;Automatic register allocation : On
                 
                 	#pragma AVRPART ADMIN PART_NAME ATmega32
                 	#pragma AVRPART MEMORY PROG_FLASH 32768
                 	#pragma AVRPART MEMORY EEPROM 1024
                 	#pragma AVRPART MEMORY INT_SRAM SIZE 2048
                 	#pragma AVRPART MEMORY INT_SRAM START_ADDR 0x60
                 
                 	.LISTMAC
                 	.EQU UDRE=0x5
                 	.EQU RXC=0x7
                 	.EQU USR=0xB
                 	.EQU UDR=0xC
                 	.EQU SPSR=0xE
                 	.EQU SPDR=0xF
                 	.EQU EERE=0x0
                 	.EQU EEWE=0x1
                 	.EQU EEMWE=0x2
                 	.EQU EECR=0x1C
                 	.EQU EEDR=0x1D
                 	.EQU EEARL=0x1E
                 	.EQU EEARH=0x1F
                 	.EQU WDTCR=0x21
                 	.EQU MCUCR=0x35
                 	.EQU GICR=0x3B
                 	.EQU SPL=0x3D
                 	.EQU SPH=0x3E
                 	.EQU SREG=0x3F
                 
                 	.DEF R0X0=R0
                 	.DEF R0X1=R1
                 	.DEF R0X2=R2
                 	.DEF R0X3=R3
                 	.DEF R0X4=R4
                 	.DEF R0X5=R5
                 	.DEF R0X6=R6
                 	.DEF R0X7=R7
                 	.DEF R0X8=R8
                 	.DEF R0X9=R9
                 	.DEF R0XA=R10
                 	.DEF R0XB=R11
                 	.DEF R0XC=R12
                 	.DEF R0XD=R13
                 	.DEF R0XE=R14
                 	.DEF R0XF=R15
                 	.DEF R0X10=R16
                 	.DEF R0X11=R17
                 	.DEF R0X12=R18
                 	.DEF R0X13=R19
                 	.DEF R0X14=R20
                 	.DEF R0X15=R21
                 	.DEF R0X16=R22
                 	.DEF R0X17=R23
                 	.DEF R0X18=R24
                 	.DEF R0X19=R25
                 	.DEF R0X1A=R26
                 	.DEF R0X1B=R27
                 	.DEF R0X1C=R28
                 	.DEF R0X1D=R29
                 	.DEF R0X1E=R30
                 	.DEF R0X1F=R31
                 
                 	.MACRO __CPD1N
                 	CPI  R30,LOW(@0)
                 	LDI  R26,HIGH(@0)
                 	CPC  R31,R26
                 	LDI  R26,BYTE3(@0)
                 	CPC  R22,R26
                 	LDI  R26,BYTE4(@0)
                 	CPC  R23,R26
                 	.ENDM
                 
                 	.MACRO __CPD2N
                 	CPI  R26,LOW(@0)
                 	LDI  R30,HIGH(@0)
                 	CPC  R27,R30
                 	LDI  R30,BYTE3(@0)
                 	CPC  R24,R30
                 	LDI  R30,BYTE4(@0)
                 	CPC  R25,R30
                 	.ENDM
                 
                 	.MACRO __CPWRR
                 	CP   R@0,R@2
                 	CPC  R@1,R@3
                 	.ENDM
                 
                 	.MACRO __CPWRN
                 	CPI  R@0,LOW(@2)
                 	LDI  R30,HIGH(@2)
                 	CPC  R@1,R30
                 	.ENDM
                 
                 	.MACRO __ADDB1MN
                 	SUBI R30,LOW(-@0-(@1))
                 	.ENDM
                 
                 	.MACRO __ADDB2MN
                 	SUBI R26,LOW(-@0-(@1))
                 	.ENDM
                 
                 	.MACRO __ADDW1MN
                 	SUBI R30,LOW(-@0-(@1))
                 	SBCI R31,HIGH(-@0-(@1))
                 	.ENDM
                 
                 	.MACRO __ADDW2MN
                 	SUBI R26,LOW(-@0-(@1))
                 	SBCI R27,HIGH(-@0-(@1))
                 	.ENDM
                 
                 	.MACRO __ADDW1FN
                 	SUBI R30,LOW(-2*@0-(@1))
                 	SBCI R31,HIGH(-2*@0-(@1))
                 	.ENDM
                 
                 	.MACRO __ADDD1FN
                 	SUBI R30,LOW(-2*@0-(@1))
                 	SBCI R31,HIGH(-2*@0-(@1))
                 	SBCI R22,BYTE3(-2*@0-(@1))
                 	.ENDM
                 
                 	.MACRO __ADDD1N
                 	SUBI R30,LOW(-@0)
                 	SBCI R31,HIGH(-@0)
                 	SBCI R22,BYTE3(-@0)
                 	SBCI R23,BYTE4(-@0)
                 	.ENDM
                 
                 	.MACRO __ADDD2N
                 	SUBI R26,LOW(-@0)
                 	SBCI R27,HIGH(-@0)
                 	SBCI R24,BYTE3(-@0)
                 	SBCI R25,BYTE4(-@0)
                 	.ENDM
                 
                 	.MACRO __SUBD1N
                 	SUBI R30,LOW(@0)
                 	SBCI R31,HIGH(@0)
                 	SBCI R22,BYTE3(@0)
                 	SBCI R23,BYTE4(@0)
                 	.ENDM
                 
                 	.MACRO __SUBD2N
                 	SUBI R26,LOW(@0)
                 	SBCI R27,HIGH(@0)
                 	SBCI R24,BYTE3(@0)
                 	SBCI R25,BYTE4(@0)
                 	.ENDM
                 
                 	.MACRO __ANDBMNN
                 	LDS  R30,@0+(@1)
                 	ANDI R30,LOW(@2)
                 	STS  @0+(@1),R30
                 	.ENDM
                 
                 	.MACRO __ANDWMNN
                 	LDS  R30,@0+(@1)
                 	ANDI R30,LOW(@2)
                 	STS  @0+(@1),R30
                 	LDS  R30,@0+(@1)+1
                 	ANDI R30,HIGH(@2)
                 	STS  @0+(@1)+1,R30
                 	.ENDM
                 
                 	.MACRO __ANDD1N
                 	ANDI R30,LOW(@0)
                 	ANDI R31,HIGH(@0)
                 	ANDI R22,BYTE3(@0)
                 	ANDI R23,BYTE4(@0)
                 	.ENDM
                 
                 	.MACRO __ANDD2N
                 	ANDI R26,LOW(@0)
                 	ANDI R27,HIGH(@0)
                 	ANDI R24,BYTE3(@0)
                 	ANDI R25,BYTE4(@0)
                 	.ENDM
                 
                 	.MACRO __ORBMNN
                 	LDS  R30,@0+(@1)
                 	ORI  R30,LOW(@2)
                 	STS  @0+(@1),R30
                 	.ENDM
                 
                 	.MACRO __ORWMNN
                 	LDS  R30,@0+(@1)
                 	ORI  R30,LOW(@2)
                 	STS  @0+(@1),R30
                 	LDS  R30,@0+(@1)+1
                 	ORI  R30,HIGH(@2)
                 	STS  @0+(@1)+1,R30
                 	.ENDM
                 
                 	.MACRO __ORD1N
                 	ORI  R30,LOW(@0)
                 	ORI  R31,HIGH(@0)
                 	ORI  R22,BYTE3(@0)
                 	ORI  R23,BYTE4(@0)
                 	.ENDM
                 
                 	.MACRO __ORD2N
                 	ORI  R26,LOW(@0)
                 	ORI  R27,HIGH(@0)
                 	ORI  R24,BYTE3(@0)
                 	ORI  R25,BYTE4(@0)
                 	.ENDM
                 
                 	.MACRO __DELAY_USB
                 	LDI  R24,LOW(@0)
                 __DELAY_USB_LOOP:
                 	DEC  R24
                 	BRNE __DELAY_USB_LOOP
                 	.ENDM
                 
                 	.MACRO __DELAY_USW
                 	LDI  R24,LOW(@0)
                 	LDI  R25,HIGH(@0)
                 __DELAY_USW_LOOP:
                 	SBIW R24,1
                 	BRNE __DELAY_USW_LOOP
                 	.ENDM
                 
                 	.MACRO __GETD1S
                 	LDD  R30,Y+@0
                 	LDD  R31,Y+@0+1
                 	LDD  R22,Y+@0+2
                 	LDD  R23,Y+@0+3
                 	.ENDM
                 
                 	.MACRO __GETD2S
                 	LDD  R26,Y+@0
                 	LDD  R27,Y+@0+1
                 	LDD  R24,Y+@0+2
                 	LDD  R25,Y+@0+3
                 	.ENDM
                 
                 	.MACRO __PUTD1S
                 	STD  Y+@0,R30
                 	STD  Y+@0+1,R31
                 	STD  Y+@0+2,R22
                 	STD  Y+@0+3,R23
                 	.ENDM
                 
                 	.MACRO __PUTD2S
                 	STD  Y+@0,R26
                 	STD  Y+@0+1,R27
                 	STD  Y+@0+2,R24
                 	STD  Y+@0+3,R25
                 	.ENDM
                 
                 	.MACRO __PUTDZ2
                 	STD  Z+@0,R26
                 	STD  Z+@0+1,R27
                 	STD  Z+@0+2,R24
                 	STD  Z+@0+3,R25
                 	.ENDM
                 
                 	.MACRO __CLRD1S
                 	STD  Y+@0,R30
                 	STD  Y+@0+1,R30
                 	STD  Y+@0+2,R30
                 	STD  Y+@0+3,R30
                 	.ENDM
                 
                 	.MACRO __POINTB1MN
                 	LDI  R30,LOW(@0+(@1))
                 	.ENDM
                 
                 	.MACRO __POINTW1MN
                 	LDI  R30,LOW(@0+(@1))
                 	LDI  R31,HIGH(@0+(@1))
                 	.ENDM
                 
                 	.MACRO __POINTD1M
                 	LDI  R30,LOW(@0)
                 	LDI  R31,HIGH(@0)
                 	LDI  R22,BYTE3(@0)
                 	LDI  R23,BYTE4(@0)
                 	.ENDM
                 
                 	.MACRO __POINTW1FN
                 	LDI  R30,LOW(2*@0+(@1))
                 	LDI  R31,HIGH(2*@0+(@1))
                 	.ENDM
                 
                 	.MACRO __POINTD1FN
                 	LDI  R30,LOW(2*@0+(@1))
                 	LDI  R31,HIGH(2*@0+(@1))
                 	LDI  R22,BYTE3(2*@0+(@1))
                 	LDI  R23,BYTE4(2*@0+(@1))
                 	.ENDM
                 
                 	.MACRO __POINTB2MN
                 	LDI  R26,LOW(@0+(@1))
                 	.ENDM
                 
                 	.MACRO __POINTW2MN
                 	LDI  R26,LOW(@0+(@1))
                 	LDI  R27,HIGH(@0+(@1))
                 	.ENDM
                 
                 	.MACRO __POINTBRM
                 	LDI  R@0,LOW(@1)
                 	.ENDM
                 
                 	.MACRO __POINTWRM
                 	LDI  R@0,LOW(@2)
                 	LDI  R@1,HIGH(@2)
                 	.ENDM
                 
                 	.MACRO __POINTBRMN
                 	LDI  R@0,LOW(@1+(@2))
                 	.ENDM
                 
                 	.MACRO __POINTWRMN
                 	LDI  R@0,LOW(@2+(@3))
                 	LDI  R@1,HIGH(@2+(@3))
                 	.ENDM
                 
                 	.MACRO __POINTWRFN
                 	LDI  R@0,LOW(@2*2+(@3))
                 	LDI  R@1,HIGH(@2*2+(@3))
                 	.ENDM
                 
                 	.MACRO __GETD1N
                 	LDI  R30,LOW(@0)
                 	LDI  R31,HIGH(@0)
                 	LDI  R22,BYTE3(@0)
                 	LDI  R23,BYTE4(@0)
                 	.ENDM
                 
                 	.MACRO __GETD2N
                 	LDI  R26,LOW(@0)
                 	LDI  R27,HIGH(@0)
                 	LDI  R24,BYTE3(@0)
                 	LDI  R25,BYTE4(@0)
                 	.ENDM
                 
                 	.MACRO __GETB1MN
                 	LDS  R30,@0+(@1)
                 	.ENDM
                 
                 	.MACRO __GETB1HMN
                 	LDS  R31,@0+(@1)
                 	.ENDM
                 
                 	.MACRO __GETW1MN
                 	LDS  R30,@0+(@1)
                 	LDS  R31,@0+(@1)+1
                 	.ENDM
                 
                 	.MACRO __GETD1MN
                 	LDS  R30,@0+(@1)
                 	LDS  R31,@0+(@1)+1
                 	LDS  R22,@0+(@1)+2
                 	LDS  R23,@0+(@1)+3
                 	.ENDM
                 
                 	.MACRO __GETBRMN
                 	LDS  R@0,@1+(@2)
                 	.ENDM
                 
                 	.MACRO __GETWRMN
                 	LDS  R@0,@2+(@3)
                 	LDS  R@1,@2+(@3)+1
                 	.ENDM
                 
                 	.MACRO __GETWRZ
                 	LDD  R@0,Z+@2
                 	LDD  R@1,Z+@2+1
                 	.ENDM
                 
                 	.MACRO __GETD2Z
                 	LDD  R26,Z+@0
                 	LDD  R27,Z+@0+1
                 	LDD  R24,Z+@0+2
                 	LDD  R25,Z+@0+3
                 	.ENDM
                 
                 	.MACRO __GETB2MN
                 	LDS  R26,@0+(@1)
                 	.ENDM
                 
                 	.MACRO __GETW2MN
                 	LDS  R26,@0+(@1)
                 	LDS  R27,@0+(@1)+1
                 	.ENDM
                 
                 	.MACRO __GETD2MN
                 	LDS  R26,@0+(@1)
                 	LDS  R27,@0+(@1)+1
                 	LDS  R24,@0+(@1)+2
                 	LDS  R25,@0+(@1)+3
                 	.ENDM
                 
                 	.MACRO __PUTB1MN
                 	STS  @0+(@1),R30
                 	.ENDM
                 
                 	.MACRO __PUTW1MN
                 	STS  @0+(@1),R30
                 	STS  @0+(@1)+1,R31
                 	.ENDM
                 
                 	.MACRO __PUTD1MN
                 	STS  @0+(@1),R30
                 	STS  @0+(@1)+1,R31
                 	STS  @0+(@1)+2,R22
                 	STS  @0+(@1)+3,R23
                 	.ENDM
                 
                 	.MACRO __PUTB1EN
                 	LDI  R26,LOW(@0+(@1))
                 	LDI  R27,HIGH(@0+(@1))
                 	CALL __EEPROMWRB
                 	.ENDM
                 
                 	.MACRO __PUTW1EN
                 	LDI  R26,LOW(@0+(@1))
                 	LDI  R27,HIGH(@0+(@1))
                 	CALL __EEPROMWRW
                 	.ENDM
                 
                 	.MACRO __PUTD1EN
                 	LDI  R26,LOW(@0+(@1))
                 	LDI  R27,HIGH(@0+(@1))
                 	CALL __EEPROMWRD
                 	.ENDM
                 
                 	.MACRO __PUTBR0MN
                 	STS  @0+(@1),R0
                 	.ENDM
                 
                 	.MACRO __PUTBMRN
                 	STS  @0+(@1),R@2
                 	.ENDM
                 
                 	.MACRO __PUTWMRN
                 	STS  @0+(@1),R@2
                 	STS  @0+(@1)+1,R@3
                 	.ENDM
                 
                 	.MACRO __PUTBZR
                 	STD  Z+@1,R@0
                 	.ENDM
                 
                 	.MACRO __PUTWZR
                 	STD  Z+@2,R@0
                 	STD  Z+@2+1,R@1
                 	.ENDM
                 
                 	.MACRO __GETW1R
                 	MOV  R30,R@0
                 	MOV  R31,R@1
                 	.ENDM
                 
                 	.MACRO __GETW2R
                 	MOV  R26,R@0
                 	MOV  R27,R@1
                 	.ENDM
                 
                 	.MACRO __GETWRN
                 	LDI  R@0,LOW(@2)
                 	LDI  R@1,HIGH(@2)
                 	.ENDM
                 
                 	.MACRO __PUTW1R
                 	MOV  R@0,R30
                 	MOV  R@1,R31
                 	.ENDM
                 
                 	.MACRO __PUTW2R
                 	MOV  R@0,R26
                 	MOV  R@1,R27
                 	.ENDM
                 
                 	.MACRO __ADDWRN
                 	SUBI R@0,LOW(-@2)
                 	SBCI R@1,HIGH(-@2)
                 	.ENDM
                 
                 	.MACRO __ADDWRR
                 	ADD  R@0,R@2
                 	ADC  R@1,R@3
                 	.ENDM
                 
                 	.MACRO __SUBWRN
                 	SUBI R@0,LOW(@2)
                 	SBCI R@1,HIGH(@2)
                 	.ENDM
                 
                 	.MACRO __SUBWRR
                 	SUB  R@0,R@2
                 	SBC  R@1,R@3
                 	.ENDM
                 
                 	.MACRO __ANDWRN
                 	ANDI R@0,LOW(@2)
                 	ANDI R@1,HIGH(@2)
                 	.ENDM
                 
                 	.MACRO __ANDWRR
                 	AND  R@0,R@2
                 	AND  R@1,R@3
                 	.ENDM
                 
                 	.MACRO __ORWRN
                 	ORI  R@0,LOW(@2)
                 	ORI  R@1,HIGH(@2)
                 	.ENDM
                 
                 	.MACRO __ORWRR
                 	OR   R@0,R@2
                 	OR   R@1,R@3
                 	.ENDM
                 
                 	.MACRO __EORWRR
                 	EOR  R@0,R@2
                 	EOR  R@1,R@3
                 	.ENDM
                 
                 	.MACRO __GETWRS
                 	LDD  R@0,Y+@2
                 	LDD  R@1,Y+@2+1
                 	.ENDM
                 
                 	.MACRO __PUTBSR
                 	STD  Y+@1,R@0
                 	.ENDM
                 
                 	.MACRO __PUTWSR
                 	STD  Y+@2,R@0
                 	STD  Y+@2+1,R@1
                 	.ENDM
                 
                 	.MACRO __MOVEWRR
                 	MOV  R@0,R@2
                 	MOV  R@1,R@3
                 	.ENDM
                 
                 	.MACRO __INWR
                 	IN   R@0,@2
                 	IN   R@1,@2+1
                 	.ENDM
                 
                 	.MACRO __OUTWR
                 	OUT  @2+1,R@1
                 	OUT  @2,R@0
                 	.ENDM
                 
                 	.MACRO __CALL1MN
                 	LDS  R30,@0+(@1)
                 	LDS  R31,@0+(@1)+1
                 	ICALL
                 	.ENDM
                 
                 	.MACRO __CALL1FN
                 	LDI  R30,LOW(2*@0+(@1))
                 	LDI  R31,HIGH(2*@0+(@1))
                 	CALL __GETW1PF
                 	ICALL
                 	.ENDM
                 
                 	.MACRO __CALL2EN
                 	LDI  R26,LOW(@0+(@1))
                 	LDI  R27,HIGH(@0+(@1))
                 	CALL __EEPROMRDW
                 	ICALL
                 	.ENDM
                 
                 	.MACRO __GETW1STACK
                 	IN   R26,SPL
                 	IN   R27,SPH
                 	ADIW R26,@0+1
                 	LD   R30,X+
                 	LD   R31,X
                 	.ENDM
                 
                 	.MACRO __GETD1STACK
                 	IN   R26,SPL
                 	IN   R27,SPH
                 	ADIW R26,@0+1
                 	LD   R30,X+
                 	LD   R31,X+
                 	LD   R22,X
                 	.ENDM
                 
                 	.MACRO __NBST
                 	BST  R@0,@1
                 	IN   R30,SREG
                 	LDI  R31,0x40
                 	EOR  R30,R31
                 	OUT  SREG,R30
                 	.ENDM
                 
                 
                 	.MACRO __PUTB1SN
                 	LDD  R26,Y+@0
                 	LDD  R27,Y+@0+1
                 	SUBI R26,LOW(-@1)
                 	SBCI R27,HIGH(-@1)
                 	ST   X,R30
                 	.ENDM
                 
                 	.MACRO __PUTW1SN
                 	LDD  R26,Y+@0
                 	LDD  R27,Y+@0+1
                 	SUBI R26,LOW(-@1)
                 	SBCI R27,HIGH(-@1)
                 	ST   X+,R30
                 	ST   X,R31
                 	.ENDM
                 
                 	.MACRO __PUTD1SN
                 	LDD  R26,Y+@0
                 	LDD  R27,Y+@0+1
                 	SUBI R26,LOW(-@1)
                 	SBCI R27,HIGH(-@1)
                 	CALL __PUTDP1
                 	.ENDM
                 
                 	.MACRO __PUTB1SNS
                 	LDD  R26,Y+@0
                 	LDD  R27,Y+@0+1
                 	ADIW R26,@1
                 	ST   X,R30
                 	.ENDM
                 
                 	.MACRO __PUTW1SNS
                 	LDD  R26,Y+@0
                 	LDD  R27,Y+@0+1
                 	ADIW R26,@1
                 	ST   X+,R30
                 	ST   X,R31
                 	.ENDM
                 
                 	.MACRO __PUTD1SNS
                 	LDD  R26,Y+@0
                 	LDD  R27,Y+@0+1
                 	ADIW R26,@1
                 	CALL __PUTDP1
                 	.ENDM
                 
                 	.MACRO __PUTB1PMN
                 	LDS  R26,@0
                 	LDS  R27,@0+1
                 	SUBI R26,LOW(-@1)
                 	SBCI R27,HIGH(-@1)
                 	ST   X,R30
                 	.ENDM
                 
                 	.MACRO __PUTW1PMN
                 	LDS  R26,@0
                 	LDS  R27,@0+1
                 	SUBI R26,LOW(-@1)
                 	SBCI R27,HIGH(-@1)
                 	ST   X+,R30
                 	ST   X,R31
                 	.ENDM
                 
                 	.MACRO __PUTD1PMN
                 	LDS  R26,@0
                 	LDS  R27,@0+1
                 	SUBI R26,LOW(-@1)
                 	SBCI R27,HIGH(-@1)
                 	CALL __PUTDP1
                 	.ENDM
                 
                 	.MACRO __PUTB1PMNS
                 	LDS  R26,@0
                 	LDS  R27,@0+1
                 	ADIW R26,@1
                 	ST   X,R30
                 	.ENDM
                 
                 	.MACRO __PUTW1PMNS
                 	LDS  R26,@0
                 	LDS  R27,@0+1
                 	ADIW R26,@1
                 	ST   X+,R30
                 	ST   X,R31
                 	.ENDM
                 
                 	.MACRO __PUTD1PMNS
                 	LDS  R26,@0
                 	LDS  R27,@0+1
                 	ADIW R26,@1
                 	CALL __PUTDP1
                 	.ENDM
                 
                 	.MACRO __PUTB1RN
                 	MOVW R26,R@0
                 	SUBI R26,LOW(-@1)
                 	SBCI R27,HIGH(-@1)
                 	ST   X,R30
                 	.ENDM
                 
                 	.MACRO __PUTW1RN
                 	MOVW R26,R@0
                 	SUBI R26,LOW(-@1)
                 	SBCI R27,HIGH(-@1)
                 	ST   X+,R30
                 	ST   X,R31
                 	.ENDM
                 
                 	.MACRO __PUTD1RN
                 	MOVW R26,R@0
                 	SUBI R26,LOW(-@1)
                 	SBCI R27,HIGH(-@1)
                 	CALL __PUTDP1
                 	.ENDM
                 
                 	.MACRO __PUTB1RNS
                 	MOVW R26,R@0
                 	ADIW R26,@1
                 	ST   X,R30
                 	.ENDM
                 
                 	.MACRO __PUTW1RNS
                 	MOVW R26,R@0
                 	ADIW R26,@1
                 	ST   X+,R30
                 	ST   X,R31
                 	.ENDM
                 
                 	.MACRO __PUTD1RNS
                 	MOVW R26,R@0
                 	ADIW R26,@1
                 	CALL __PUTDP1
                 	.ENDM
                 
                 	.MACRO __PUTB1RON
                 	MOV  R26,R@0
                 	MOV  R27,R@1
                 	SUBI R26,LOW(-@2)
                 	SBCI R27,HIGH(-@2)
                 	ST   X,R30
                 	.ENDM
                 
                 	.MACRO __PUTW1RON
                 	MOV  R26,R@0
                 	MOV  R27,R@1
                 	SUBI R26,LOW(-@2)
                 	SBCI R27,HIGH(-@2)
                 	ST   X+,R30
                 	ST   X,R31
                 	.ENDM
                 
                 	.MACRO __PUTD1RON
                 	MOV  R26,R@0
                 	MOV  R27,R@1
                 	SUBI R26,LOW(-@2)
                 	SBCI R27,HIGH(-@2)
                 	CALL __PUTDP1
                 	.ENDM
                 
                 	.MACRO __PUTB1RONS
                 	MOV  R26,R@0
                 	MOV  R27,R@1
                 	ADIW R26,@2
                 	ST   X,R30
                 	.ENDM
                 
                 	.MACRO __PUTW1RONS
                 	MOV  R26,R@0
                 	MOV  R27,R@1
                 	ADIW R26,@2
                 	ST   X+,R30
                 	ST   X,R31
                 	.ENDM
                 
                 	.MACRO __PUTD1RONS
                 	MOV  R26,R@0
                 	MOV  R27,R@1
                 	ADIW R26,@2
                 	CALL __PUTDP1
                 	.ENDM
                 
                 
                 	.MACRO __GETB1SX
                 	MOVW R30,R28
                 	SUBI R30,LOW(-@0)
                 	SBCI R31,HIGH(-@0)
                 	LD   R30,Z
                 	.ENDM
                 
                 	.MACRO __GETB1HSX
                 	MOVW R30,R28
                 	SUBI R30,LOW(-@0)
                 	SBCI R31,HIGH(-@0)
                 	LD   R31,Z
                 	.ENDM
                 
                 	.MACRO __GETW1SX
                 	MOVW R30,R28
                 	SUBI R30,LOW(-@0)
                 	SBCI R31,HIGH(-@0)
                 	LD   R0,Z+
                 	LD   R31,Z
                 	MOV  R30,R0
                 	.ENDM
                 
                 	.MACRO __GETD1SX
                 	MOVW R30,R28
                 	SUBI R30,LOW(-@0)
                 	SBCI R31,HIGH(-@0)
                 	LD   R0,Z+
                 	LD   R1,Z+
                 	LD   R22,Z+
                 	LD   R23,Z
                 	MOVW R30,R0
                 	.ENDM
                 
                 	.MACRO __GETB2SX
                 	MOVW R26,R28
                 	SUBI R26,LOW(-@0)
                 	SBCI R27,HIGH(-@0)
                 	LD   R26,X
                 	.ENDM
                 
                 	.MACRO __GETW2SX
                 	MOVW R26,R28
                 	SUBI R26,LOW(-@0)
                 	SBCI R27,HIGH(-@0)
                 	LD   R0,X+
                 	LD   R27,X
                 	MOV  R26,R0
                 	.ENDM
                 
                 	.MACRO __GETD2SX
                 	MOVW R26,R28
                 	SUBI R26,LOW(-@0)
                 	SBCI R27,HIGH(-@0)
                 	LD   R0,X+
                 	LD   R1,X+
                 	LD   R24,X+
                 	LD   R25,X
                 	MOVW R26,R0
                 	.ENDM
                 
                 	.MACRO __GETBRSX
                 	MOVW R30,R28
                 	SUBI R30,LOW(-@1)
                 	SBCI R31,HIGH(-@1)
                 	LD   R@0,Z
                 	.ENDM
                 
                 	.MACRO __GETWRSX
                 	MOVW R30,R28
                 	SUBI R30,LOW(-@2)
                 	SBCI R31,HIGH(-@2)
                 	LD   R@0,Z+
                 	LD   R@1,Z
                 	.ENDM
                 
                 	.MACRO __GETBRSX2
                 	MOVW R26,R28
                 	SUBI R26,LOW(-@1)
                 	SBCI R27,HIGH(-@1)
                 	LD   R@0,X
                 	.ENDM
                 
                 	.MACRO __GETWRSX2
                 	MOVW R26,R28
                 	SUBI R26,LOW(-@2)
                 	SBCI R27,HIGH(-@2)
                 	LD   R@0,X+
                 	LD   R@1,X
                 	.ENDM
                 
                 	.MACRO __LSLW8SX
                 	MOVW R30,R28
                 	SUBI R30,LOW(-@0)
                 	SBCI R31,HIGH(-@0)
                 	LD   R31,Z
                 	CLR  R30
                 	.ENDM
                 
                 	.MACRO __PUTB1SX
                 	MOVW R26,R28
                 	SUBI R26,LOW(-@0)
                 	SBCI R27,HIGH(-@0)
                 	ST   X,R30
                 	.ENDM
                 
                 	.MACRO __PUTW1SX
                 	MOVW R26,R28
                 	SUBI R26,LOW(-@0)
                 	SBCI R27,HIGH(-@0)
                 	ST   X+,R30
                 	ST   X,R31
                 	.ENDM
                 
                 	.MACRO __PUTD1SX
                 	MOVW R26,R28
                 	SUBI R26,LOW(-@0)
                 	SBCI R27,HIGH(-@0)
                 	ST   X+,R30
                 	ST   X+,R31
                 	ST   X+,R22
                 	ST   X,R23
                 	.ENDM
                 
                 	.MACRO __CLRW1SX
                 	MOVW R26,R28
                 	SUBI R26,LOW(-@0)
                 	SBCI R27,HIGH(-@0)
                 	ST   X+,R30
                 	ST   X,R30
                 	.ENDM
                 
                 	.MACRO __CLRD1SX
                 	MOVW R26,R28
                 	SUBI R26,LOW(-@0)
                 	SBCI R27,HIGH(-@0)
                 	ST   X+,R30
                 	ST   X+,R30
                 	ST   X+,R30
                 	ST   X,R30
                 	.ENDM
                 
                 	.MACRO __PUTB2SX
                 	MOVW R30,R28
                 	SUBI R30,LOW(-@0)
                 	SBCI R31,HIGH(-@0)
                 	ST   Z,R26
                 	.ENDM
                 
                 	.MACRO __PUTW2SX
                 	MOVW R30,R28
                 	SUBI R30,LOW(-@0)
                 	SBCI R31,HIGH(-@0)
                 	ST   Z+,R26
                 	ST   Z,R27
                 	.ENDM
                 
                 	.MACRO __PUTD2SX
                 	MOVW R30,R28
                 	SUBI R30,LOW(-@0)
                 	SBCI R31,HIGH(-@0)
                 	ST   Z+,R26
                 	ST   Z+,R27
                 	ST   Z+,R24
                 	ST   Z,R25
                 	.ENDM
                 
                 	.MACRO __PUTBSRX
                 	MOVW R30,R28
                 	SUBI R30,LOW(-@1)
                 	SBCI R31,HIGH(-@1)
                 	ST   Z,R@0
                 	.ENDM
                 
                 	.MACRO __PUTWSRX
                 	MOVW R30,R28
                 	SUBI R30,LOW(-@2)
                 	SBCI R31,HIGH(-@2)
                 	ST   Z+,R@0
                 	ST   Z,R@1
                 	.ENDM
                 
                 	.MACRO __PUTB1SNX
                 	MOVW R26,R28
                 	SUBI R26,LOW(-@0)
                 	SBCI R27,HIGH(-@0)
                 	LD   R0,X+
                 	LD   R27,X
                 	MOV  R26,R0
                 	SUBI R26,LOW(-@1)
                 	SBCI R27,HIGH(-@1)
                 	ST   X,R30
                 	.ENDM
                 
                 	.MACRO __PUTW1SNX
                 	MOVW R26,R28
                 	SUBI R26,LOW(-@0)
                 	SBCI R27,HIGH(-@0)
                 	LD   R0,X+
                 	LD   R27,X
                 	MOV  R26,R0
                 	SUBI R26,LOW(-@1)
                 	SBCI R27,HIGH(-@1)
                 	ST   X+,R30
                 	ST   X,R31
                 	.ENDM
                 
                 	.MACRO __PUTD1SNX
                 	MOVW R26,R28
                 	SUBI R26,LOW(-@0)
                 	SBCI R27,HIGH(-@0)
                 	LD   R0,X+
                 	LD   R27,X
                 	MOV  R26,R0
                 	SUBI R26,LOW(-@1)
                 	SBCI R27,HIGH(-@1)
                 	ST   X+,R30
                 	ST   X+,R31
                 	ST   X+,R22
                 	ST   X,R23
                 	.ENDM
                 
                 	.MACRO __MULBRR
                 	MULS R@0,R@1
                 	MOVW R30,R0
                 	.ENDM
                 
                 	.MACRO __MULBRRU
                 	MUL  R@0,R@1
                 	MOVW R30,R0
                 	.ENDM
                 
                 	.MACRO __MULBRR0
                 	MULS R@0,R@1
                 	.ENDM
                 
                 	.MACRO __MULBRRU0
                 	MUL  R@0,R@1
                 	.ENDM
                 
                 	.MACRO __MULBNWRU
                 	LDI  R26,@2
                 	MUL  R26,R@0
                 	MOVW R30,R0
                 	MUL  R26,R@1
                 	ADD  R31,R0
                 	.ENDM
                 
                 ;NAME DEFINITIONS FOR GLOBAL VARIABLES ALLOCATED TO REGISTERS
                 	.DEF _viena_sekunde1=R4
                 	.DEF _viena_sekunde2=R6
                 	.DEF _viena_sekunde4=R8
                 	.DEF _penkios_minutes=R10
                 	.DEF _viena_sekunde5=R12
                 
                 	.CSEG
                 	.ORG 0x00
                 
                 ;INTERRUPT VECTORS
000000 940c 002a 	JMP  __RESET
000002 940c 0000 	JMP  0x00
000004 940c 0000 	JMP  0x00
000006 940c 0000 	JMP  0x00
000008 940c 0000 	JMP  0x00
00000a 940c 0000 	JMP  0x00
00000c 940c 0000 	JMP  0x00
00000e 940c 0000 	JMP  0x00
000010 940c 0000 	JMP  0x00
000012 940c 0000 	JMP  0x00
000014 940c 0000 	JMP  0x00
000016 940c 0000 	JMP  0x00
000018 940c 0000 	JMP  0x00
00001a 940c 0000 	JMP  0x00
00001c 940c 0000 	JMP  0x00
00001e 940c 0000 	JMP  0x00
000020 940c 0000 	JMP  0x00
000022 940c 0000 	JMP  0x00
000024 940c 0000 	JMP  0x00
000026 940c 0000 	JMP  0x00
000028 940c 0000 	JMP  0x00
                 
                 __RESET:
00002a 94f8      	CLI
00002b 27ee      	CLR  R30
00002c bbec      	OUT  EECR,R30
                 
                 ;INTERRUPT VECTORS ARE PLACED
                 ;AT THE START OF FLASH
00002d e0f1      	LDI  R31,1
00002e bffb      	OUT  GICR,R31
00002f bfeb      	OUT  GICR,R30
000030 bfe5      	OUT  MCUCR,R30
                 
                 ;DISABLE WATCHDOG
000031 e1f8      	LDI  R31,0x18
000032 bdf1      	OUT  WDTCR,R31
000033 bde1      	OUT  WDTCR,R30
                 
                 ;CLEAR R2-R14
000034 e08d      	LDI  R24,(14-2)+1
000035 e0a2      	LDI  R26,2
000036 27bb      	CLR  R27
                 __CLEAR_REG:
000037 93ed      	ST   X+,R30
000038 958a      	DEC  R24
000039 f7e9      	BRNE __CLEAR_REG
                 
                 ;CLEAR SRAM
00003a e080      	LDI  R24,LOW(0x800)
00003b e098      	LDI  R25,HIGH(0x800)
00003c e6a0      	LDI  R26,0x60
                 __CLEAR_SRAM:
00003d 93ed      	ST   X+,R30
00003e 9701      	SBIW R24,1
00003f f7e9      	BRNE __CLEAR_SRAM
                 
                 ;STACK POINTER INITIALIZATION
000040 e5ef      	LDI  R30,LOW(0x85F)
000041 bfed      	OUT  SPL,R30
000042 e0e8      	LDI  R30,HIGH(0x85F)
000043 bfee      	OUT  SPH,R30
                 
                 ;DATA STACK POINTER INITIALIZATION
000044 e6c0      	LDI  R28,LOW(0x260)
000045 e0d2      	LDI  R29,HIGH(0x260)
                 
000046 940c 0048 	JMP  _main
                 
                 	.ESEG
                 	.ORG 0
                 
                 	.DSEG
                 	.ORG 0x260
                 
                 	.CSEG
                 ;/*****************************************************
                 ;Project : Skambutis
                 ;Version : v1.1
                 ;Date    : 2010 - 05 - 27
                 ;Author  : Tomas Vanagas
                 ;E-mail  : tomasvanagas@ymail.com
                 ;Tel.    : 8 695 87284
                 ;
                 ;
                 ;
                 ;Mikroschemos pavadinimas      : ATmega32
                 ;Mikroschemos taktinis daznis  : 8.000000 MHz
                 ;Isorine RAM atmintis          : 0 Baitu
                 ;Vidine RAM atmintis           : 512 Baitu
                 ;Vidine FLASH atmintis         : 33792 Baitai
                 ;*****************************************************/
                 ;
                 ;signed int viena_sekunde1, viena_sekunde2,
                 ;viena_sekunde4, penkios_minutes, viena_sekunde5, puse_sekundes;
                 ;
                 ;long int viena_minute5, viena_sekunde3,;
                 ;
                 ;
                 ;char PILNAS,TUSCIAS,KROVIMAS,ISKROVIMAS,
                 ;BATERIJOS_BUSENA; //AKUMOLIATORIAUS:
                 ;
                 ;char OSC;      //LED DAZNIS:
                 ;
                 ;char
                 ;MYGTUKAS_1, MYGTUKAS_2, MYGTUKAS_3, MYGTUKAS_4,
                 ;MYGTUKAS_5, MYGTUKAS_6, MYGTUKAS_7,
                 ;MYGTUKAS_PASPAUSTAS;     //MYGTUKAI
                 ;
                 ;char segm_a, segm_b, segm_c, segm_d, segm_e,
                 ;segm_f, segm_g, segm_h; // SEGMENTAI
                 ;
                 ;signed char LAIKRODIS, sekundes, minutes, desimtys_minutes,
                 ;valandos, desimtys_valandos; // TIKRO LAIKO KINTAMIEJI
                 ;
                 ;char a; // DUOMENU NESEJO KINTAMASIS
                 ;
                 ;signed char x,y,z,k; // SKAMBUCIO NUSTATYMUI
                 ;signed char a2,b2,c2,d2;//ISPEJAMAJAM SKAMBUCIUI(pries pamoka)
                 ;
                 ;signed char b,d,e,f,g,i; // UZLAIKYMO KINTAMIEJI
                 ;
                 ;signed char REDAGAVIMAS, REDAG_SK_NR,
                 ;EILUTES_SKAICIUS, EIL_SK; // PIRMINIAI KINTAMIEJI
                 ;
                 ;char BLYKCIOTI; // KAI REDAGAVIMAS:
                 ;
                 ;char PENKIOLIKA_SEKUNDZIU;// KAI PASIJUNGIA PARASO "HELLO"
                 ;
                 ;char DESIMT_SEKUNDZIU;//KAI TIKRAS LAIKAS RODOMAS:
                 ;
                 ;char SKAMBUTIS_TURETU_SKAMBETI,
                 ;Sesios_sekundes, SKAMBUTIS_SKAMBA,
                 ;ISPEJAMASIS_SKAMBUTIS; // SKAMBUCIO RELES PRITRAUKIMUI
                 ;
                 ;signed char DB_LAIKO_RODYMAS, UZRAKINTA,UZRAKTO_KODAS_1,
                 ;UZRAKTO_KODAS_2,UZRAKTO_KODAS_3,UZRAKTO_KODAS_4, REDAG_UZRAKT_SKAIC,
                 ;a1,b1,c1,d1; //     UZRAKTAS
                 ;
                 ;char KELINTADIENIO_PERZIURA, KELINTADIENIS;
                 ;signed char KELINTADIENIO_REDAGAVIMAS; // KELINTADIENIS
                 ;
                 ;
                 ;signed char // Standartiniai skambucio laikai:
                 ;SKAMBUTIS_1dh, SKAMBUTIS_1h, SKAMBUTIS_1dm, SKAMBUTIS_1m,
                 ;SKAMBUTIS_2dh, SKAMBUTIS_2h, SKAMBUTIS_2dm, SKAMBUTIS_2m,
                 ;SKAMBUTIS_3dh, SKAMBUTIS_3h, SKAMBUTIS_3dm, SKAMBUTIS_3m,
                 ;SKAMBUTIS_4dh, SKAMBUTIS_4h, SKAMBUTIS_4dm, SKAMBUTIS_4m,
                 ;SKAMBUTIS_5dh, SKAMBUTIS_5h, SKAMBUTIS_5dm, SKAMBUTIS_5m,
                 ;SKAMBUTIS_6dh, SKAMBUTIS_6h, SKAMBUTIS_6dm, SKAMBUTIS_6m,
                 ;SKAMBUTIS_7dh, SKAMBUTIS_7h, SKAMBUTIS_7dm, SKAMBUTIS_7m,
                 ;SKAMBUTIS_8dh, SKAMBUTIS_8h, SKAMBUTIS_8dm, SKAMBUTIS_8m,
                 ;SKAMBUTIS_9dh, SKAMBUTIS_9h, SKAMBUTIS_9dm, SKAMBUTIS_9m,
                 ;SKAMBUTIS_10dh,SKAMBUTIS_10h,SKAMBUTIS_10dm,SKAMBUTIS_10m,
                 ;SKAMBUTIS_11dh,SKAMBUTIS_11h,SKAMBUTIS_11dm,SKAMBUTIS_11m,
                 ;SKAMBUTIS_12dh,SKAMBUTIS_12h,SKAMBUTIS_12dm,SKAMBUTIS_12m,
                 ;SKAMBUTIS_13dh,SKAMBUTIS_13h,SKAMBUTIS_13dm,SKAMBUTIS_13m,
                 ;SKAMBUTIS_14dh,SKAMBUTIS_14h,SKAMBUTIS_14dm,SKAMBUTIS_14m,
                 ;SKAMBUTIS_15dh,SKAMBUTIS_15h,SKAMBUTIS_15dm,SKAMBUTIS_15m,
                 ;SKAMBUTIS_16dh,SKAMBUTIS_16h,SKAMBUTIS_16dm,SKAMBUTIS_16m,
                 ;SKAMBUTIS_17dh,SKAMBUTIS_17h,SKAMBUTIS_17dm,SKAMBUTIS_17m,
                 ;SKAMBUTIS_18dh,SKAMBUTIS_18h,SKAMBUTIS_18dm,SKAMBUTIS_18m,
                 ;SKAMBUTIS_19dh,SKAMBUTIS_19h,SKAMBUTIS_19dm,SKAMBUTIS_19m,
                 ;SKAMBUTIS_20dh,SKAMBUTIS_20h,SKAMBUTIS_20dm,SKAMBUTIS_20m;
                 ;
                 ;
                 ;
                 ;
                 ;#include <mega32.h>
                 	#ifndef __SLEEP_DEFINED__
                 	#define __SLEEP_DEFINED__
                 	.EQU __se_bit=0x80
                 	.EQU __sm_mask=0x70
                 	.EQU __sm_powerdown=0x20
                 	.EQU __sm_powersave=0x30
                 	.EQU __sm_standby=0x60
                 	.EQU __sm_ext_standby=0x70
                 	.EQU __sm_adc_noise_red=0x10
                 	.SET power_ctrl_reg=mcucr
                 	#endif
                 ;#include <delay.h>
                 ;void main(void)
                 ; 0000 0060 {
                 
                 	.CSEG
                 _main:
                 ; 0000 0061 PORTA = 0;
000048 e0e0      	LDI  R30,LOW(0)
000049 bbeb      	OUT  0x1B,R30
                 ; 0000 0062 DDRA = 0b10011000;
00004a e9e8      	LDI  R30,LOW(152)
00004b bbea      	OUT  0x1A,R30
                 ; 0000 0063 
                 ; 0000 0064 PORTB = 0;
00004c e0e0      	LDI  R30,LOW(0)
00004d bbe8      	OUT  0x18,R30
                 ; 0000 0065 
                 ; 0000 0066 DDRB = 0b11111111;
00004e efef      	LDI  R30,LOW(255)
00004f bbe7      	OUT  0x17,R30
                 ; 0000 0067 
                 ; 0000 0068 PORTC = 0x00;
000050 e0e0      	LDI  R30,LOW(0)
000051 bbe5      	OUT  0x15,R30
                 ; 0000 0069 DDRC = 0b11111110;
000052 efee      	LDI  R30,LOW(254)
000053 bbe4      	OUT  0x14,R30
                 ; 0000 006A 
                 ; 0000 006B PORTD=0x00;
000054 e0e0      	LDI  R30,LOW(0)
000055 bbe2      	OUT  0x12,R30
                 ; 0000 006C DDRD = 0b11111111;
000056 efef      	LDI  R30,LOW(255)
000057 bbe1      	OUT  0x11,R30
                 ; 0000 006D 
                 ; 0000 006E TCCR0=0x00;
000058 e0e0      	LDI  R30,LOW(0)
000059 bfe3      	OUT  0x33,R30
                 ; 0000 006F TCNT0=0x00;
00005a bfe2      	OUT  0x32,R30
                 ; 0000 0070 OCR0=0x00;
00005b bfec      	OUT  0x3C,R30
                 ; 0000 0071 
                 ; 0000 0072 TCCR1A=0x00;
00005c bdef      	OUT  0x2F,R30
                 ; 0000 0073 TCCR1B=0x00;
00005d bdee      	OUT  0x2E,R30
                 ; 0000 0074 TCNT1H=0x00;
00005e bded      	OUT  0x2D,R30
                 ; 0000 0075 TCNT1L=0x00;
00005f bdec      	OUT  0x2C,R30
                 ; 0000 0076 ICR1H=0x00;
000060 bde7      	OUT  0x27,R30
                 ; 0000 0077 ICR1L=0x00;
000061 bde6      	OUT  0x26,R30
                 ; 0000 0078 OCR1AH=0x00;
000062 bdeb      	OUT  0x2B,R30
                 ; 0000 0079 OCR1AL=0x00;
000063 bdea      	OUT  0x2A,R30
                 ; 0000 007A OCR1BH=0x00;
000064 bde9      	OUT  0x29,R30
                 ; 0000 007B OCR1BL=0x00;
000065 bde8      	OUT  0x28,R30
                 ; 0000 007C 
                 ; 0000 007D ASSR=0x00;
000066 bde2      	OUT  0x22,R30
                 ; 0000 007E TCCR2=0x00;
000067 bde5      	OUT  0x25,R30
                 ; 0000 007F TCNT2=0x00;
000068 bde4      	OUT  0x24,R30
                 ; 0000 0080 OCR2=0x00;
000069 bde3      	OUT  0x23,R30
                 ; 0000 0081 
                 ; 0000 0082 MCUCR=0x00;
00006a bfe5      	OUT  0x35,R30
                 ; 0000 0083 MCUCSR=0x00;
00006b bfe4      	OUT  0x34,R30
                 ; 0000 0084 
                 ; 0000 0085 TIMSK=0x00;
00006c bfe9      	OUT  0x39,R30
                 ; 0000 0086 
                 ; 0000 0087 ACSR=0x00;
00006d b9e8      	OUT  0x8,R30
                 ; 0000 0088 SFIOR=0x00;
00006e bfe0      	OUT  0x30,R30
                 ; 0000 0089 
                 ; 0000 008A 
                 ; 0000 008B 
                 ; 0000 008C // STANDARTINIS LAIKAS:
                 ; 0000 008D SKAMBUTIS_1dh = 0;
00006f 93e0 02ae 	STS  _SKAMBUTIS_1dh,R30
                 ; 0000 008E SKAMBUTIS_1h  = 8;
000071 e0e8      	LDI  R30,LOW(8)
000072 93e0 02af 	STS  _SKAMBUTIS_1h,R30
                 ; 0000 008F SKAMBUTIS_1dm = 0;        // 8:00
000074 e0e0      	LDI  R30,LOW(0)
000075 93e0 02b0 	STS  _SKAMBUTIS_1dm,R30
                 ; 0000 0090 SKAMBUTIS_1m  = 0;
000077 93e0 02b1 	STS  _SKAMBUTIS_1m,R30
                 ; 0000 0091 
                 ; 0000 0092 SKAMBUTIS_2dh = 0;
000079 93e0 02b2 	STS  _SKAMBUTIS_2dh,R30
                 ; 0000 0093 SKAMBUTIS_2h  = 8;
00007b e0e8      	LDI  R30,LOW(8)
00007c 93e0 02b3 	STS  _SKAMBUTIS_2h,R30
                 ; 0000 0094 SKAMBUTIS_2dm = 4;        // 8:45
00007e e0e4      	LDI  R30,LOW(4)
00007f 93e0 02b4 	STS  _SKAMBUTIS_2dm,R30
                 ; 0000 0095 SKAMBUTIS_2m  = 5;
000081 e0e5      	LDI  R30,LOW(5)
000082 93e0 02b5 	STS  _SKAMBUTIS_2m,R30
                 ; 0000 0096 
                 ; 0000 0097 SKAMBUTIS_3dh = 0;
000084 e0e0      	LDI  R30,LOW(0)
000085 93e0 02b6 	STS  _SKAMBUTIS_3dh,R30
                 ; 0000 0098 SKAMBUTIS_3h  = 8;
000087 e0e8      	LDI  R30,LOW(8)
000088 93e0 02b7 	STS  _SKAMBUTIS_3h,R30
                 ; 0000 0099 SKAMBUTIS_3dm = 5;        // 8:55
00008a e0e5      	LDI  R30,LOW(5)
00008b 93e0 02b8 	STS  _SKAMBUTIS_3dm,R30
                 ; 0000 009A SKAMBUTIS_3m  = 5;
00008d 93e0 02b9 	STS  _SKAMBUTIS_3m,R30
                 ; 0000 009B 
                 ; 0000 009C SKAMBUTIS_4dh = 0;
00008f e0e0      	LDI  R30,LOW(0)
000090 93e0 02ba 	STS  _SKAMBUTIS_4dh,R30
                 ; 0000 009D SKAMBUTIS_4h  = 9;
000092 e0e9      	LDI  R30,LOW(9)
000093 93e0 02bb 	STS  _SKAMBUTIS_4h,R30
                 ; 0000 009E SKAMBUTIS_4dm = 4;        // 9:40
000095 e0e4      	LDI  R30,LOW(4)
000096 93e0 02bc 	STS  _SKAMBUTIS_4dm,R30
                 ; 0000 009F SKAMBUTIS_4m  = 0;
000098 e0e0      	LDI  R30,LOW(0)
000099 93e0 02bd 	STS  _SKAMBUTIS_4m,R30
                 ; 0000 00A0 
                 ; 0000 00A1 SKAMBUTIS_5dh = 1;
00009b e0e1      	LDI  R30,LOW(1)
00009c 93e0 02be 	STS  _SKAMBUTIS_5dh,R30
                 ; 0000 00A2 SKAMBUTIS_5h  = 0;
00009e e0e0      	LDI  R30,LOW(0)
00009f 93e0 02bf 	STS  _SKAMBUTIS_5h,R30
                 ; 0000 00A3 SKAMBUTIS_5dm = 0;        // 10:00
0000a1 93e0 02c0 	STS  _SKAMBUTIS_5dm,R30
                 ; 0000 00A4 SKAMBUTIS_5m  = 0;
0000a3 93e0 02c1 	STS  _SKAMBUTIS_5m,R30
                 ; 0000 00A5 
                 ; 0000 00A6 SKAMBUTIS_6dh = 1;
0000a5 e0e1      	LDI  R30,LOW(1)
0000a6 93e0 02c2 	STS  _SKAMBUTIS_6dh,R30
                 ; 0000 00A7 SKAMBUTIS_6h  = 0;
0000a8 e0e0      	LDI  R30,LOW(0)
0000a9 93e0 02c3 	STS  _SKAMBUTIS_6h,R30
                 ; 0000 00A8 SKAMBUTIS_6dm = 4;        // 10:45
0000ab e0e4      	LDI  R30,LOW(4)
0000ac 93e0 02c4 	STS  _SKAMBUTIS_6dm,R30
                 ; 0000 00A9 SKAMBUTIS_6m  = 5;
0000ae e0e5      	LDI  R30,LOW(5)
0000af 93e0 02c5 	STS  _SKAMBUTIS_6m,R30
                 ; 0000 00AA 
                 ; 0000 00AB SKAMBUTIS_7dh = 1;
0000b1 e0e1      	LDI  R30,LOW(1)
0000b2 93e0 02c6 	STS  _SKAMBUTIS_7dh,R30
                 ; 0000 00AC SKAMBUTIS_7h  = 1;
0000b4 93e0 02c7 	STS  _SKAMBUTIS_7h,R30
                 ; 0000 00AD SKAMBUTIS_7dm = 0;        // 11:05
0000b6 e0e0      	LDI  R30,LOW(0)
0000b7 93e0 02c8 	STS  _SKAMBUTIS_7dm,R30
                 ; 0000 00AE SKAMBUTIS_7m  = 5;
0000b9 e0e5      	LDI  R30,LOW(5)
0000ba 93e0 02c9 	STS  _SKAMBUTIS_7m,R30
                 ; 0000 00AF 
                 ; 0000 00B0 SKAMBUTIS_8dh = 1;
0000bc e0e1      	LDI  R30,LOW(1)
0000bd 93e0 02ca 	STS  _SKAMBUTIS_8dh,R30
                 ; 0000 00B1 SKAMBUTIS_8h  = 1;
0000bf 93e0 02cb 	STS  _SKAMBUTIS_8h,R30
                 ; 0000 00B2 SKAMBUTIS_8dm = 5;        // 11:50
0000c1 e0e5      	LDI  R30,LOW(5)
0000c2 93e0 02cc 	STS  _SKAMBUTIS_8dm,R30
                 ; 0000 00B3 SKAMBUTIS_8m  = 0;
0000c4 e0e0      	LDI  R30,LOW(0)
0000c5 93e0 02cd 	STS  _SKAMBUTIS_8m,R30
                 ; 0000 00B4 
                 ; 0000 00B5 SKAMBUTIS_9dh = 1;
0000c7 e0e1      	LDI  R30,LOW(1)
0000c8 93e0 02ce 	STS  _SKAMBUTIS_9dh,R30
                 ; 0000 00B6 SKAMBUTIS_9h  = 2;
0000ca e0e2      	LDI  R30,LOW(2)
0000cb 93e0 02cf 	STS  _SKAMBUTIS_9h,R30
                 ; 0000 00B7 SKAMBUTIS_9dm = 0;        // 12:00
0000cd e0e0      	LDI  R30,LOW(0)
0000ce 93e0 02d0 	STS  _SKAMBUTIS_9dm,R30
                 ; 0000 00B8 SKAMBUTIS_9m  = 0;
0000d0 93e0 02d1 	STS  _SKAMBUTIS_9m,R30
                 ; 0000 00B9 
                 ; 0000 00BA SKAMBUTIS_10dh = 1;
0000d2 e0e1      	LDI  R30,LOW(1)
0000d3 93e0 02d2 	STS  _SKAMBUTIS_10dh,R30
                 ; 0000 00BB SKAMBUTIS_10h  = 2;
0000d5 e0e2      	LDI  R30,LOW(2)
0000d6 93e0 02d3 	STS  _SKAMBUTIS_10h,R30
                 ; 0000 00BC SKAMBUTIS_10dm = 4;       // 12:45
0000d8 e0e4      	LDI  R30,LOW(4)
0000d9 93e0 02d4 	STS  _SKAMBUTIS_10dm,R30
                 ; 0000 00BD SKAMBUTIS_10m  = 5;
0000db e0e5      	LDI  R30,LOW(5)
0000dc 93e0 02d5 	STS  _SKAMBUTIS_10m,R30
                 ; 0000 00BE 
                 ; 0000 00BF SKAMBUTIS_11dh = 1;
0000de e0e1      	LDI  R30,LOW(1)
0000df 93e0 02d6 	STS  _SKAMBUTIS_11dh,R30
                 ; 0000 00C0 SKAMBUTIS_11h  = 2;
0000e1 e0e2      	LDI  R30,LOW(2)
0000e2 93e0 02d7 	STS  _SKAMBUTIS_11h,R30
                 ; 0000 00C1 SKAMBUTIS_11dm = 5;       // 12:55
0000e4 e0e5      	LDI  R30,LOW(5)
0000e5 93e0 02d8 	STS  _SKAMBUTIS_11dm,R30
                 ; 0000 00C2 SKAMBUTIS_11m  = 5;
0000e7 93e0 02d9 	STS  _SKAMBUTIS_11m,R30
                 ; 0000 00C3 
                 ; 0000 00C4 SKAMBUTIS_12dh = 1;
0000e9 e0e1      	LDI  R30,LOW(1)
0000ea 93e0 02da 	STS  _SKAMBUTIS_12dh,R30
                 ; 0000 00C5 SKAMBUTIS_12h  = 3;
0000ec e0e3      	LDI  R30,LOW(3)
0000ed 93e0 02db 	STS  _SKAMBUTIS_12h,R30
                 ; 0000 00C6 SKAMBUTIS_12dm = 4;       // 13:40
0000ef e0e4      	LDI  R30,LOW(4)
0000f0 93e0 02dc 	STS  _SKAMBUTIS_12dm,R30
                 ; 0000 00C7 SKAMBUTIS_12m  = 0;
0000f2 e0e0      	LDI  R30,LOW(0)
0000f3 93e0 02dd 	STS  _SKAMBUTIS_12m,R30
                 ; 0000 00C8 
                 ; 0000 00C9 SKAMBUTIS_13dh = 1;
0000f5 e0e1      	LDI  R30,LOW(1)
0000f6 93e0 02de 	STS  _SKAMBUTIS_13dh,R30
                 ; 0000 00CA SKAMBUTIS_13h  = 3;
0000f8 e0e3      	LDI  R30,LOW(3)
0000f9 93e0 02df 	STS  _SKAMBUTIS_13h,R30
                 ; 0000 00CB SKAMBUTIS_13dm = 5;       // 13:50
0000fb e0e5      	LDI  R30,LOW(5)
0000fc 93e0 02e0 	STS  _SKAMBUTIS_13dm,R30
                 ; 0000 00CC SKAMBUTIS_13m  = 0;
0000fe e0e0      	LDI  R30,LOW(0)
0000ff 93e0 02e1 	STS  _SKAMBUTIS_13m,R30
                 ; 0000 00CD 
                 ; 0000 00CE SKAMBUTIS_14dh = 1;
000101 e0e1      	LDI  R30,LOW(1)
000102 93e0 02e2 	STS  _SKAMBUTIS_14dh,R30
                 ; 0000 00CF SKAMBUTIS_14h  = 4;
000104 e0e4      	LDI  R30,LOW(4)
000105 93e0 02e3 	STS  _SKAMBUTIS_14h,R30
                 ; 0000 00D0 SKAMBUTIS_14dm = 3;       // 14:35
000107 e0e3      	LDI  R30,LOW(3)
000108 93e0 02e4 	STS  _SKAMBUTIS_14dm,R30
                 ; 0000 00D1 SKAMBUTIS_14m  = 5;
00010a e0e5      	LDI  R30,LOW(5)
00010b 93e0 02e5 	STS  _SKAMBUTIS_14m,R30
                 ; 0000 00D2 
                 ; 0000 00D3 SKAMBUTIS_15dh = 1;
00010d e0e1      	LDI  R30,LOW(1)
00010e 93e0 02e6 	STS  _SKAMBUTIS_15dh,R30
                 ; 0000 00D4 SKAMBUTIS_15h  = 4;
000110 e0e4      	LDI  R30,LOW(4)
000111 93e0 02e7 	STS  _SKAMBUTIS_15h,R30
                 ; 0000 00D5 SKAMBUTIS_15dm = 4;       // 14:40
000113 93e0 02e8 	STS  _SKAMBUTIS_15dm,R30
                 ; 0000 00D6 SKAMBUTIS_15m  = 0;
000115 e0e0      	LDI  R30,LOW(0)
000116 93e0 02e9 	STS  _SKAMBUTIS_15m,R30
                 ; 0000 00D7 
                 ; 0000 00D8 SKAMBUTIS_16dh = 1;
000118 e0e1      	LDI  R30,LOW(1)
000119 93e0 02ea 	STS  _SKAMBUTIS_16dh,R30
                 ; 0000 00D9 SKAMBUTIS_16h  = 5;
00011b e0e5      	LDI  R30,LOW(5)
00011c 93e0 02eb 	STS  _SKAMBUTIS_16h,R30
                 ; 0000 00DA SKAMBUTIS_16dm = 2;       // 15:25
00011e e0e2      	LDI  R30,LOW(2)
00011f 93e0 02ec 	STS  _SKAMBUTIS_16dm,R30
                 ; 0000 00DB SKAMBUTIS_16m  = 5;
000121 e0e5      	LDI  R30,LOW(5)
000122 93e0 02ed 	STS  _SKAMBUTIS_16m,R30
                 ; 0000 00DC 
                 ; 0000 00DD SKAMBUTIS_17dh = 1;
000124 e0e1      	LDI  R30,LOW(1)
000125 93e0 02ee 	STS  _SKAMBUTIS_17dh,R30
                 ; 0000 00DE SKAMBUTIS_17h  = 5;
000127 e0e5      	LDI  R30,LOW(5)
000128 93e0 02ef 	STS  _SKAMBUTIS_17h,R30
                 ; 0000 00DF SKAMBUTIS_17dm = 3;       // 15:30
00012a e0e3      	LDI  R30,LOW(3)
00012b 93e0 02f0 	STS  _SKAMBUTIS_17dm,R30
                 ; 0000 00E0 SKAMBUTIS_17m  = 0;
00012d e0e0      	LDI  R30,LOW(0)
00012e 93e0 02f1 	STS  _SKAMBUTIS_17m,R30
                 ; 0000 00E1 
                 ; 0000 00E2 SKAMBUTIS_18dh = 1;
000130 e0e1      	LDI  R30,LOW(1)
000131 93e0 02f2 	STS  _SKAMBUTIS_18dh,R30
                 ; 0000 00E3 SKAMBUTIS_18h  = 6;
000133 e0e6      	LDI  R30,LOW(6)
000134 93e0 02f3 	STS  _SKAMBUTIS_18h,R30
                 ; 0000 00E4 SKAMBUTIS_18dm = 1;       // 16:15
000136 e0e1      	LDI  R30,LOW(1)
000137 93e0 02f4 	STS  _SKAMBUTIS_18dm,R30
                 ; 0000 00E5 SKAMBUTIS_18m  = 5;
000139 e0e5      	LDI  R30,LOW(5)
00013a 93e0 02f5 	STS  _SKAMBUTIS_18m,R30
                 ; 0000 00E6 
                 ; 0000 00E7 SKAMBUTIS_19dh = 1;
00013c e0e1      	LDI  R30,LOW(1)
00013d 93e0 02f6 	STS  _SKAMBUTIS_19dh,R30
                 ; 0000 00E8 SKAMBUTIS_19h  = 6;
00013f e0e6      	LDI  R30,LOW(6)
000140 93e0 02f7 	STS  _SKAMBUTIS_19h,R30
                 ; 0000 00E9 SKAMBUTIS_19dm = 2;       // 16:20
000142 e0e2      	LDI  R30,LOW(2)
000143 93e0 02f8 	STS  _SKAMBUTIS_19dm,R30
                 ; 0000 00EA SKAMBUTIS_19m  = 0;
000145 e0e0      	LDI  R30,LOW(0)
000146 93e0 02f9 	STS  _SKAMBUTIS_19m,R30
                 ; 0000 00EB 
                 ; 0000 00EC 
                 ; 0000 00ED SKAMBUTIS_20dh = 1;
000148 e0e1      	LDI  R30,LOW(1)
000149 93e0 02fa 	STS  _SKAMBUTIS_20dh,R30
                 ; 0000 00EE SKAMBUTIS_20h  = 7;
00014b e0e7      	LDI  R30,LOW(7)
00014c 93e0 02fb 	STS  _SKAMBUTIS_20h,R30
                 ; 0000 00EF SKAMBUTIS_20dm = 0;       // 17:05
00014e e0e0      	LDI  R30,LOW(0)
00014f 93e0 02fc 	STS  _SKAMBUTIS_20dm,R30
                 ; 0000 00F0 SKAMBUTIS_20m  = 5;
000151 e0e5      	LDI  R30,LOW(5)
000152 93e0 02fd 	STS  _SKAMBUTIS_20m,R30
                 ; 0000 00F1 
                 ; 0000 00F2 UZRAKINTA = 1;
000154 e0e1      	LDI  R30,LOW(1)
000155 93e0 02a1 	STS  _UZRAKINTA,R30
                 ; 0000 00F3 KELINTADIENIS = 1;
000157 93e0 02ac 	STS  _KELINTADIENIS,R30
                 ; 0000 00F4 
                 ; 0000 00F5 
                 ; 0000 00F6 
                 ; 0000 00F7 
                 ; 0000 00F8 
                 ; 0000 00F9 UZRAKTO_KODAS_1 = 1;
000159 93e0 02a2 	STS  _UZRAKTO_KODAS_1,R30
                 ; 0000 00FA UZRAKTO_KODAS_2 = 9;
00015b e0e9      	LDI  R30,LOW(9)
00015c 93e0 02a3 	STS  _UZRAKTO_KODAS_2,R30
                 ; 0000 00FB UZRAKTO_KODAS_3 = 1;      //UZRAKTO KODAS
00015e e0e1      	LDI  R30,LOW(1)
00015f 93e0 02a4 	STS  _UZRAKTO_KODAS_3,R30
                 ; 0000 00FC UZRAKTO_KODAS_4 = 9;
000161 e0e9      	LDI  R30,LOW(9)
000162 93e0 02a5 	STS  _UZRAKTO_KODAS_4,R30
                 ; 0000 00FD 
                 ; 0000 00FE 
                 ; 0000 00FF       do{
                 _0x4:
                 ; 0000 0100       DB_LAIKO_RODYMAS = 1;
000164 e0e1      	LDI  R30,LOW(1)
000165 93e0 02a0 	STS  _DB_LAIKO_RODYMAS,R30
                 ; 0000 0101       OSC = OSC + 1 ;
000167 91e0 026f 	LDS  R30,_OSC
000169 5fef      	SUBI R30,-LOW(1)
00016a 93e0 026f 	STS  _OSC,R30
                 ; 0000 0102       delay_us(10);
                +
00016c e18b     +LDI R24 , LOW ( 27 )
                +__DELAY_USB_LOOP :
00016d 958a     +DEC R24
00016e f7f1     +BRNE __DELAY_USB_LOOP
                 	__DELAY_USB 27
                 ; 0000 0103       if(OSC==32){
00016f 91a0 026f 	LDS  R26,_OSC
000171 32a0      	CPI  R26,LOW(0x20)
000172 f419      	BRNE _0x6
                 ; 0000 0104       OSC=0;}
000173 e0e0      	LDI  R30,LOW(0)
000174 93e0 026f 	STS  _OSC,R30
                 ; 0000 0105 
                 ; 0000 0106 
                 ; 0000 0107       if(PENKIOLIKA_SEKUNDZIU<15){
                 _0x6:
000176 91a0 029a 	LDS  R26,_PENKIOLIKA_SEKUNDZIU
000178 30af      	CPI  R26,LOW(0xF)
000179 f478      	BRSH _0x7
                 ; 0000 0108       viena_sekunde2 = viena_sekunde2 + 1;
00017a 01f3      	MOVW R30,R6
00017b 9631      	ADIW R30,1
00017c 013f      	MOVW R6,R30
                 ; 0000 0109       if(viena_sekunde2==1300){
00017d e1e4      	LDI  R30,LOW(1300)
00017e e0f5      	LDI  R31,HIGH(1300)
00017f 15e6      	CP   R30,R6
000180 05f7      	CPC  R31,R7
000181 f439      	BRNE _0x8
                 ; 0000 010A       PENKIOLIKA_SEKUNDZIU = PENKIOLIKA_SEKUNDZIU + 1;
000182 91e0 029a 	LDS  R30,_PENKIOLIKA_SEKUNDZIU
000184 5fef      	SUBI R30,-LOW(1)
000185 93e0 029a 	STS  _PENKIOLIKA_SEKUNDZIU,R30
                 ; 0000 010B       viena_sekunde2 = 0;}}
000187 2466      	CLR  R6
000188 2477      	CLR  R7
                 _0x8:
                 ; 0000 010C 
                 ; 0000 010D       if(PENKIOLIKA_SEKUNDZIU==2){
                 _0x7:
000189 91a0 029a 	LDS  R26,_PENKIOLIKA_SEKUNDZIU
00018b 30a2      	CPI  R26,LOW(0x2)
00018c f439      	BRNE _0x9
                 ; 0000 010E       if(OSC==28){
00018d 91a0 026f 	LDS  R26,_OSC
00018f 31ac      	CPI  R26,LOW(0x1C)
000190 f419      	BRNE _0xA
                 ; 0000 010F       a = 17;}}
000191 e1e1      	LDI  R30,LOW(17)
000192 93e0 0286 	STS  _a,R30
                 _0xA:
                 ; 0000 0110       if(PENKIOLIKA_SEKUNDZIU==3){
                 _0x9:
000194 91a0 029a 	LDS  R26,_PENKIOLIKA_SEKUNDZIU
000196 30a3      	CPI  R26,LOW(0x3)
000197 f471      	BRNE _0xB
                 ; 0000 0111       if(OSC==24){
000198 91a0 026f 	LDS  R26,_OSC
00019a 31a8      	CPI  R26,LOW(0x18)
00019b f419      	BRNE _0xC
                 ; 0000 0112       a = 17;}
00019c e1e1      	LDI  R30,LOW(17)
00019d 93e0 0286 	STS  _a,R30
                 ; 0000 0113       if(OSC==28){
                 _0xC:
00019f 91a0 026f 	LDS  R26,_OSC
0001a1 31ac      	CPI  R26,LOW(0x1C)
0001a2 f419      	BRNE _0xD
                 ; 0000 0114       a = 15;}}
0001a3 e0ef      	LDI  R30,LOW(15)
0001a4 93e0 0286 	STS  _a,R30
                 _0xD:
                 ; 0000 0115       if(PENKIOLIKA_SEKUNDZIU==4){
                 _0xB:
0001a6 91a0 029a 	LDS  R26,_PENKIOLIKA_SEKUNDZIU
0001a8 30a4      	CPI  R26,LOW(0x4)
0001a9 f4a9      	BRNE _0xE
                 ; 0000 0116       if(OSC==20){
0001aa 91a0 026f 	LDS  R26,_OSC
0001ac 31a4      	CPI  R26,LOW(0x14)
0001ad f419      	BRNE _0xF
                 ; 0000 0117       a = 17;}
0001ae e1e1      	LDI  R30,LOW(17)
0001af 93e0 0286 	STS  _a,R30
                 ; 0000 0118       if(OSC==24){
                 _0xF:
0001b1 91a0 026f 	LDS  R26,_OSC
0001b3 31a8      	CPI  R26,LOW(0x18)
0001b4 f419      	BRNE _0x10
                 ; 0000 0119       a = 15;}
0001b5 e0ef      	LDI  R30,LOW(15)
0001b6 93e0 0286 	STS  _a,R30
                 ; 0000 011A       if(OSC==28){
                 _0x10:
0001b8 91a0 026f 	LDS  R26,_OSC
0001ba 31ac      	CPI  R26,LOW(0x1C)
0001bb f419      	BRNE _0x11
                 ; 0000 011B       a = 22;}}
0001bc e1e6      	LDI  R30,LOW(22)
0001bd 93e0 0286 	STS  _a,R30
                 _0x11:
                 ; 0000 011C       if(PENKIOLIKA_SEKUNDZIU==5){
                 _0xE:
0001bf 91a0 029a 	LDS  R26,_PENKIOLIKA_SEKUNDZIU
0001c1 30a5      	CPI  R26,LOW(0x5)
0001c2 f4e1      	BRNE _0x12
                 ; 0000 011D       if(OSC==16){
0001c3 91a0 026f 	LDS  R26,_OSC
0001c5 31a0      	CPI  R26,LOW(0x10)
0001c6 f419      	BRNE _0x13
                 ; 0000 011E       a = 17;}
0001c7 e1e1      	LDI  R30,LOW(17)
0001c8 93e0 0286 	STS  _a,R30
                 ; 0000 011F       if(OSC==20){
                 _0x13:
0001ca 91a0 026f 	LDS  R26,_OSC
0001cc 31a4      	CPI  R26,LOW(0x14)
0001cd f419      	BRNE _0x14
                 ; 0000 0120       a = 15;}
0001ce e0ef      	LDI  R30,LOW(15)
0001cf 93e0 0286 	STS  _a,R30
                 ; 0000 0121       if(OSC==24){
                 _0x14:
0001d1 91a0 026f 	LDS  R26,_OSC
0001d3 31a8      	CPI  R26,LOW(0x18)
0001d4 f419      	BRNE _0x15
                 ; 0000 0122       a = 22;}
0001d5 e1e6      	LDI  R30,LOW(22)
0001d6 93e0 0286 	STS  _a,R30
                 ; 0000 0123       if(OSC==28){
                 _0x15:
0001d8 91a0 026f 	LDS  R26,_OSC
0001da 31ac      	CPI  R26,LOW(0x1C)
0001db f419      	BRNE _0x16
                 ; 0000 0124       a = 22;}}
0001dc e1e6      	LDI  R30,LOW(22)
0001dd 93e0 0286 	STS  _a,R30
                 _0x16:
                 ; 0000 0125       if(PENKIOLIKA_SEKUNDZIU==6){
                 _0x12:
0001df 91a0 029a 	LDS  R26,_PENKIOLIKA_SEKUNDZIU
0001e1 30a6      	CPI  R26,LOW(0x6)
0001e2 f519      	BRNE _0x17
                 ; 0000 0126       if(OSC==12){
0001e3 91a0 026f 	LDS  R26,_OSC
0001e5 30ac      	CPI  R26,LOW(0xC)
0001e6 f419      	BRNE _0x18
                 ; 0000 0127       a = 17;}
0001e7 e1e1      	LDI  R30,LOW(17)
0001e8 93e0 0286 	STS  _a,R30
                 ; 0000 0128       if(OSC==16){
                 _0x18:
0001ea 91a0 026f 	LDS  R26,_OSC
0001ec 31a0      	CPI  R26,LOW(0x10)
0001ed f419      	BRNE _0x19
                 ; 0000 0129       a = 15;}
0001ee e0ef      	LDI  R30,LOW(15)
0001ef 93e0 0286 	STS  _a,R30
                 ; 0000 012A       if(OSC==20){
                 _0x19:
0001f1 91a0 026f 	LDS  R26,_OSC
0001f3 31a4      	CPI  R26,LOW(0x14)
0001f4 f419      	BRNE _0x1A
                 ; 0000 012B       a = 22;}
0001f5 e1e6      	LDI  R30,LOW(22)
0001f6 93e0 0286 	STS  _a,R30
                 ; 0000 012C       if(OSC==24){
                 _0x1A:
0001f8 91a0 026f 	LDS  R26,_OSC
0001fa 31a8      	CPI  R26,LOW(0x18)
0001fb f419      	BRNE _0x1B
                 ; 0000 012D       a = 22;}
0001fc e1e6      	LDI  R30,LOW(22)
0001fd 93e0 0286 	STS  _a,R30
                 ; 0000 012E       if(OSC==28){
                 _0x1B:
0001ff 91a0 026f 	LDS  R26,_OSC
000201 31ac      	CPI  R26,LOW(0x1C)
000202 f419      	BRNE _0x1C
                 ; 0000 012F       a = 0;}}
000203 e0e0      	LDI  R30,LOW(0)
000204 93e0 0286 	STS  _a,R30
                 _0x1C:
                 ; 0000 0130       if(PENKIOLIKA_SEKUNDZIU==7){
                 _0x17:
000206 91a0 029a 	LDS  R26,_PENKIOLIKA_SEKUNDZIU
000208 30a7      	CPI  R26,LOW(0x7)
000209 f519      	BRNE _0x1D
                 ; 0000 0131       if(OSC==8){
00020a 91a0 026f 	LDS  R26,_OSC
00020c 30a8      	CPI  R26,LOW(0x8)
00020d f419      	BRNE _0x1E
                 ; 0000 0132       a = 17;}
00020e e1e1      	LDI  R30,LOW(17)
00020f 93e0 0286 	STS  _a,R30
                 ; 0000 0133       if(OSC==12){
                 _0x1E:
000211 91a0 026f 	LDS  R26,_OSC
000213 30ac      	CPI  R26,LOW(0xC)
000214 f419      	BRNE _0x1F
                 ; 0000 0134       a = 15;}
000215 e0ef      	LDI  R30,LOW(15)
000216 93e0 0286 	STS  _a,R30
                 ; 0000 0135       if(OSC==16){
                 _0x1F:
000218 91a0 026f 	LDS  R26,_OSC
00021a 31a0      	CPI  R26,LOW(0x10)
00021b f419      	BRNE _0x20
                 ; 0000 0136       a = 22;}
00021c e1e6      	LDI  R30,LOW(22)
00021d 93e0 0286 	STS  _a,R30
                 ; 0000 0137       if(OSC==20){
                 _0x20:
00021f 91a0 026f 	LDS  R26,_OSC
000221 31a4      	CPI  R26,LOW(0x14)
000222 f419      	BRNE _0x21
                 ; 0000 0138       a = 22;}
000223 e1e6      	LDI  R30,LOW(22)
000224 93e0 0286 	STS  _a,R30
                 ; 0000 0139       if(OSC==24){
                 _0x21:
000226 91a0 026f 	LDS  R26,_OSC
000228 31a8      	CPI  R26,LOW(0x18)
000229 f419      	BRNE _0x22
                 ; 0000 013A       a = 0;}}
00022a e0e0      	LDI  R30,LOW(0)
00022b 93e0 0286 	STS  _a,R30
                 _0x22:
                 ; 0000 013B       if(PENKIOLIKA_SEKUNDZIU==8){
                 _0x1D:
00022d 91a0 029a 	LDS  R26,_PENKIOLIKA_SEKUNDZIU
00022f 30a8      	CPI  R26,LOW(0x8)
000230 f519      	BRNE _0x23
                 ; 0000 013C       if(OSC==4){
000231 91a0 026f 	LDS  R26,_OSC
000233 30a4      	CPI  R26,LOW(0x4)
000234 f419      	BRNE _0x24
                 ; 0000 013D       a = 17;}
000235 e1e1      	LDI  R30,LOW(17)
000236 93e0 0286 	STS  _a,R30
                 ; 0000 013E       if(OSC==8){
                 _0x24:
000238 91a0 026f 	LDS  R26,_OSC
00023a 30a8      	CPI  R26,LOW(0x8)
00023b f419      	BRNE _0x25
                 ; 0000 013F       a = 15;}
00023c e0ef      	LDI  R30,LOW(15)
00023d 93e0 0286 	STS  _a,R30
                 ; 0000 0140       if(OSC==12){
                 _0x25:
00023f 91a0 026f 	LDS  R26,_OSC
000241 30ac      	CPI  R26,LOW(0xC)
000242 f419      	BRNE _0x26
                 ; 0000 0141       a = 22;}
000243 e1e6      	LDI  R30,LOW(22)
000244 93e0 0286 	STS  _a,R30
                 ; 0000 0142       if(OSC==16){
                 _0x26:
000246 91a0 026f 	LDS  R26,_OSC
000248 31a0      	CPI  R26,LOW(0x10)
000249 f419      	BRNE _0x27
                 ; 0000 0143       a = 22;}
00024a e1e6      	LDI  R30,LOW(22)
00024b 93e0 0286 	STS  _a,R30
                 ; 0000 0144       if(OSC==20){
                 _0x27:
00024d 91a0 026f 	LDS  R26,_OSC
00024f 31a4      	CPI  R26,LOW(0x14)
000250 f419      	BRNE _0x28
                 ; 0000 0145       a = 0;}}
000251 e0e0      	LDI  R30,LOW(0)
000252 93e0 0286 	STS  _a,R30
                 _0x28:
                 ; 0000 0146       if(PENKIOLIKA_SEKUNDZIU==9){
                 _0x23:
000254 91a0 029a 	LDS  R26,_PENKIOLIKA_SEKUNDZIU
000256 30a9      	CPI  R26,LOW(0x9)
000257 f519      	BRNE _0x29
                 ; 0000 0147       if(OSC==0){
000258 91e0 026f 	LDS  R30,_OSC
00025a 30e0      	CPI  R30,0
00025b f419      	BRNE _0x2A
                 ; 0000 0148       a = 17;}
00025c e1e1      	LDI  R30,LOW(17)
00025d 93e0 0286 	STS  _a,R30
                 ; 0000 0149       if(OSC==4){
                 _0x2A:
00025f 91a0 026f 	LDS  R26,_OSC
000261 30a4      	CPI  R26,LOW(0x4)
000262 f419      	BRNE _0x2B
                 ; 0000 014A       a = 15;}
000263 e0ef      	LDI  R30,LOW(15)
000264 93e0 0286 	STS  _a,R30
                 ; 0000 014B       if(OSC==8){
                 _0x2B:
000266 91a0 026f 	LDS  R26,_OSC
000268 30a8      	CPI  R26,LOW(0x8)
000269 f419      	BRNE _0x2C
                 ; 0000 014C       a = 22;}
00026a e1e6      	LDI  R30,LOW(22)
00026b 93e0 0286 	STS  _a,R30
                 ; 0000 014D       if(OSC==12){
                 _0x2C:
00026d 91a0 026f 	LDS  R26,_OSC
00026f 30ac      	CPI  R26,LOW(0xC)
000270 f419      	BRNE _0x2D
                 ; 0000 014E       a = 22;}
000271 e1e6      	LDI  R30,LOW(22)
000272 93e0 0286 	STS  _a,R30
                 ; 0000 014F       if(OSC==16){
                 _0x2D:
000274 91a0 026f 	LDS  R26,_OSC
000276 31a0      	CPI  R26,LOW(0x10)
000277 f419      	BRNE _0x2E
                 ; 0000 0150       a = 0;}}
000278 e0e0      	LDI  R30,LOW(0)
000279 93e0 0286 	STS  _a,R30
                 _0x2E:
                 ; 0000 0151       if(PENKIOLIKA_SEKUNDZIU==10){
                 _0x29:
00027b 91a0 029a 	LDS  R26,_PENKIOLIKA_SEKUNDZIU
00027d 30aa      	CPI  R26,LOW(0xA)
00027e f4e1      	BRNE _0x2F
                 ; 0000 0152       if(OSC==0){
00027f 91e0 026f 	LDS  R30,_OSC
000281 30e0      	CPI  R30,0
000282 f419      	BRNE _0x30
                 ; 0000 0153       a = 15;}
000283 e0ef      	LDI  R30,LOW(15)
000284 93e0 0286 	STS  _a,R30
                 ; 0000 0154       if(OSC==4){
                 _0x30:
000286 91a0 026f 	LDS  R26,_OSC
000288 30a4      	CPI  R26,LOW(0x4)
000289 f419      	BRNE _0x31
                 ; 0000 0155       a = 22;}
00028a e1e6      	LDI  R30,LOW(22)
00028b 93e0 0286 	STS  _a,R30
                 ; 0000 0156       if(OSC==8){
                 _0x31:
00028d 91a0 026f 	LDS  R26,_OSC
00028f 30a8      	CPI  R26,LOW(0x8)
000290 f419      	BRNE _0x32
                 ; 0000 0157       a = 22;}
000291 e1e6      	LDI  R30,LOW(22)
000292 93e0 0286 	STS  _a,R30
                 ; 0000 0158       if(OSC==12){
                 _0x32:
000294 91a0 026f 	LDS  R26,_OSC
000296 30ac      	CPI  R26,LOW(0xC)
000297 f419      	BRNE _0x33
                 ; 0000 0159       a = 0;}}
000298 e0e0      	LDI  R30,LOW(0)
000299 93e0 0286 	STS  _a,R30
                 _0x33:
                 ; 0000 015A       if(PENKIOLIKA_SEKUNDZIU==11){
                 _0x2F:
00029b 91a0 029a 	LDS  R26,_PENKIOLIKA_SEKUNDZIU
00029d 30ab      	CPI  R26,LOW(0xB)
00029e f4a9      	BRNE _0x34
                 ; 0000 015B       if(OSC==0){
00029f 91e0 026f 	LDS  R30,_OSC
0002a1 30e0      	CPI  R30,0
0002a2 f419      	BRNE _0x35
                 ; 0000 015C       a = 22;}
0002a3 e1e6      	LDI  R30,LOW(22)
0002a4 93e0 0286 	STS  _a,R30
                 ; 0000 015D       if(OSC==4){
                 _0x35:
0002a6 91a0 026f 	LDS  R26,_OSC
0002a8 30a4      	CPI  R26,LOW(0x4)
0002a9 f419      	BRNE _0x36
                 ; 0000 015E       a = 22;}
0002aa e1e6      	LDI  R30,LOW(22)
0002ab 93e0 0286 	STS  _a,R30
                 ; 0000 015F       if(OSC==8){
                 _0x36:
0002ad 91a0 026f 	LDS  R26,_OSC
0002af 30a8      	CPI  R26,LOW(0x8)
0002b0 f419      	BRNE _0x37
                 ; 0000 0160       a = 0;}}
0002b1 e0e0      	LDI  R30,LOW(0)
0002b2 93e0 0286 	STS  _a,R30
                 _0x37:
                 ; 0000 0161       if(PENKIOLIKA_SEKUNDZIU==12){
                 _0x34:
0002b4 91a0 029a 	LDS  R26,_PENKIOLIKA_SEKUNDZIU
0002b6 30ac      	CPI  R26,LOW(0xC)
0002b7 f471      	BRNE _0x38
                 ; 0000 0162       if(OSC==0){
0002b8 91e0 026f 	LDS  R30,_OSC
0002ba 30e0      	CPI  R30,0
0002bb f419      	BRNE _0x39
                 ; 0000 0163       a = 22;}
0002bc e1e6      	LDI  R30,LOW(22)
0002bd 93e0 0286 	STS  _a,R30
                 ; 0000 0164       if(OSC==4){
                 _0x39:
0002bf 91a0 026f 	LDS  R26,_OSC
0002c1 30a4      	CPI  R26,LOW(0x4)
0002c2 f419      	BRNE _0x3A
                 ; 0000 0165       a = 0;}}
0002c3 e0e0      	LDI  R30,LOW(0)
0002c4 93e0 0286 	STS  _a,R30
                 _0x3A:
                 ; 0000 0166       if(PENKIOLIKA_SEKUNDZIU==13){
                 _0x38:
0002c6 91a0 029a 	LDS  R26,_PENKIOLIKA_SEKUNDZIU
0002c8 30ad      	CPI  R26,LOW(0xD)
0002c9 f439      	BRNE _0x3B
                 ; 0000 0167       if(OSC==0){
0002ca 91e0 026f 	LDS  R30,_OSC
0002cc 30e0      	CPI  R30,0
0002cd f419      	BRNE _0x3C
                 ; 0000 0168       a = 0;}}
0002ce e0e0      	LDI  R30,LOW(0)
0002cf 93e0 0286 	STS  _a,R30
                 _0x3C:
                 ; 0000 0169 
                 ; 0000 016A       if(PENKIOLIKA_SEKUNDZIU==15){
                 _0x3B:
0002d1 91a0 029a 	LDS  R26,_PENKIOLIKA_SEKUNDZIU
0002d3 30af      	CPI  R26,LOW(0xF)
0002d4 f011      	BREQ PC+3
0002d5 940c 1410 	JMP _0x3D
                 ; 0000 016B       //           IEJIMAI ==> KINTAMIEJI(MYGTUKAI)
                 ; 0000 016C       {if((PINA.2==0)&&(PINA.1==1)&&(PINA.0==1)&&(b==0)){
0002d7 940e 15d7 	CALL SUBOPT_0x0
0002d9 f441      	BRNE _0x3F
0002da 9bc9      	SBIS 0x19,1
0002db c006      	RJMP _0x3F
0002dc 9bc8      	SBIS 0x19,0
0002dd c004      	RJMP _0x3F
0002de 91a0 028f 	LDS  R26,_b
0002e0 30a0      	CPI  R26,LOW(0x0)
0002e1 f009      	BREQ _0x40
                 _0x3F:
0002e2 c002      	RJMP _0x3E
                 _0x40:
                 ; 0000 016D       MYGTUKAS_1 = 1;}
0002e3 e0e1      	LDI  R30,LOW(1)
0002e4 c001      	RJMP _0x333
                 ; 0000 016E       else
                 _0x3E:
                 ; 0000 016F       MYGTUKAS_1 = 0;}
0002e5 e0e0      	LDI  R30,LOW(0)
                 _0x333:
0002e6 93e0 0270 	STS  _MYGTUKAS_1,R30
                 ; 0000 0170       {if((PINA.2==1)&&(PINA.1==0)&&(PINA.0==1)&&(b==0)){
0002e8 9bca      	SBIS 0x19,2
0002e9 c009      	RJMP _0x43
0002ea 940e 15dc 	CALL SUBOPT_0x1
0002ec f431      	BRNE _0x43
0002ed 9bc8      	SBIS 0x19,0
0002ee c004      	RJMP _0x43
0002ef 91a0 028f 	LDS  R26,_b
0002f1 30a0      	CPI  R26,LOW(0x0)
0002f2 f009      	BREQ _0x44
                 _0x43:
0002f3 c002      	RJMP _0x42
                 _0x44:
                 ; 0000 0171       MYGTUKAS_2 = 1;}
0002f4 e0e1      	LDI  R30,LOW(1)
0002f5 c001      	RJMP _0x334
                 ; 0000 0172       else
                 _0x42:
                 ; 0000 0173       MYGTUKAS_2 = 0;}
0002f6 e0e0      	LDI  R30,LOW(0)
                 _0x334:
0002f7 93e0 0271 	STS  _MYGTUKAS_2,R30
                 ; 0000 0174       {if((PINA.2==0)&&(PINA.1==0)&&(PINA.0==1)&&(b==0)){
0002f9 940e 15d7 	CALL SUBOPT_0x0
0002fb f449      	BRNE _0x47
0002fc 940e 15dc 	CALL SUBOPT_0x1
0002fe f431      	BRNE _0x47
0002ff 9bc8      	SBIS 0x19,0
000300 c004      	RJMP _0x47
000301 91a0 028f 	LDS  R26,_b
000303 30a0      	CPI  R26,LOW(0x0)
000304 f009      	BREQ _0x48
                 _0x47:
000305 c002      	RJMP _0x46
                 _0x48:
                 ; 0000 0175       MYGTUKAS_3 = 1;}
000306 e0e1      	LDI  R30,LOW(1)
000307 c001      	RJMP _0x335
                 ; 0000 0176       else
                 _0x46:
                 ; 0000 0177       MYGTUKAS_3 = 0;}
000308 e0e0      	LDI  R30,LOW(0)
                 _0x335:
000309 93e0 0272 	STS  _MYGTUKAS_3,R30
                 ; 0000 0178       {if((PINA.2==1)&&(PINA.1==1)&&(PINA.0==0)&&(b==0)){
00030b 9bca      	SBIS 0x19,2
00030c c009      	RJMP _0x4B
00030d 9bc9      	SBIS 0x19,1
00030e c007      	RJMP _0x4B
00030f 940e 15e1 	CALL SUBOPT_0x2
000311 f421      	BRNE _0x4B
000312 91a0 028f 	LDS  R26,_b
000314 30a0      	CPI  R26,LOW(0x0)
000315 f009      	BREQ _0x4C
                 _0x4B:
000316 c002      	RJMP _0x4A
                 _0x4C:
                 ; 0000 0179       MYGTUKAS_4 = 1;}
000317 e0e1      	LDI  R30,LOW(1)
000318 c001      	RJMP _0x336
                 ; 0000 017A       else
                 _0x4A:
                 ; 0000 017B       MYGTUKAS_4 = 0;}
000319 e0e0      	LDI  R30,LOW(0)
                 _0x336:
00031a 93e0 0273 	STS  _MYGTUKAS_4,R30
                 ; 0000 017C       {if((PINA.2==0)&&(PINA.1==1)&&(PINA.0==0)&&(b==0)){
00031c 940e 15d7 	CALL SUBOPT_0x0
00031e f449      	BRNE _0x4F
00031f 9bc9      	SBIS 0x19,1
000320 c007      	RJMP _0x4F
000321 940e 15e1 	CALL SUBOPT_0x2
000323 f421      	BRNE _0x4F
000324 91a0 028f 	LDS  R26,_b
000326 30a0      	CPI  R26,LOW(0x0)
000327 f009      	BREQ _0x50
                 _0x4F:
000328 c002      	RJMP _0x4E
                 _0x50:
                 ; 0000 017D       MYGTUKAS_5 = 1;}
000329 e0e1      	LDI  R30,LOW(1)
00032a c001      	RJMP _0x337
                 ; 0000 017E       else
                 _0x4E:
                 ; 0000 017F       MYGTUKAS_5 = 0;}
00032b e0e0      	LDI  R30,LOW(0)
                 _0x337:
00032c 93e0 0274 	STS  _MYGTUKAS_5,R30
                 ; 0000 0180       {if((PINA.2==1)&&(PINA.1==0)&&(PINA.0==0)&&(b==0)){
00032e 9bca      	SBIS 0x19,2
00032f c00a      	RJMP _0x53
000330 940e 15dc 	CALL SUBOPT_0x1
000332 f439      	BRNE _0x53
000333 940e 15e1 	CALL SUBOPT_0x2
000335 f421      	BRNE _0x53
000336 91a0 028f 	LDS  R26,_b
000338 30a0      	CPI  R26,LOW(0x0)
000339 f009      	BREQ _0x54
                 _0x53:
00033a c002      	RJMP _0x52
                 _0x54:
                 ; 0000 0181       MYGTUKAS_6 = 1;}
00033b e0e1      	LDI  R30,LOW(1)
00033c c001      	RJMP _0x338
                 ; 0000 0182       else
                 _0x52:
                 ; 0000 0183       MYGTUKAS_6 = 0;}
00033d e0e0      	LDI  R30,LOW(0)
                 _0x338:
00033e 93e0 0275 	STS  _MYGTUKAS_6,R30
                 ; 0000 0184       {if((PINA.2==0)&&(PINA.1==0)&&(PINA.0==0)&&(b==0)){
000340 940e 15d7 	CALL SUBOPT_0x0
000342 f451      	BRNE _0x57
000343 940e 15dc 	CALL SUBOPT_0x1
000345 f439      	BRNE _0x57
000346 940e 15e1 	CALL SUBOPT_0x2
000348 f421      	BRNE _0x57
000349 91a0 028f 	LDS  R26,_b
00034b 30a0      	CPI  R26,LOW(0x0)
00034c f009      	BREQ _0x58
                 _0x57:
00034d c002      	RJMP _0x56
                 _0x58:
                 ; 0000 0185       MYGTUKAS_7 = 1;}
00034e e0e1      	LDI  R30,LOW(1)
00034f c001      	RJMP _0x339
                 ; 0000 0186       else
                 _0x56:
                 ; 0000 0187       MYGTUKAS_7 = 0;}
000350 e0e0      	LDI  R30,LOW(0)
                 _0x339:
000351 93e0 0276 	STS  _MYGTUKAS_7,R30
                 ; 0000 0188 
                 ; 0000 0189       {if((PINA.2==1)&&(PINA.1==1)&&(PINA.0==1)){
000353 9bca      	SBIS 0x19,2
000354 c004      	RJMP _0x5B
000355 9bc9      	SBIS 0x19,1
000356 c002      	RJMP _0x5B
000357 99c8      	SBIC 0x19,0
000358 c001      	RJMP _0x5C
                 _0x5B:
000359 c002      	RJMP _0x5A
                 _0x5C:
                 ; 0000 018A       MYGTUKAS_PASPAUSTAS = 0;}
00035a e0e0      	LDI  R30,LOW(0)
00035b c001      	RJMP _0x33A
                 ; 0000 018B       else
                 _0x5A:
                 ; 0000 018C       MYGTUKAS_PASPAUSTAS = 1;}
00035c e0e1      	LDI  R30,LOW(1)
                 _0x33A:
00035d 93e0 0277 	STS  _MYGTUKAS_PASPAUSTAS,R30
                 ; 0000 018D 
                 ; 0000 018E       {if(MYGTUKAS_PASPAUSTAS==1){
00035f 91a0 0277 	LDS  R26,_MYGTUKAS_PASPAUSTAS
000361 30a1      	CPI  R26,LOW(0x1)
000362 f411      	BRNE _0x5E
                 ; 0000 018F       b = 1;}
000363 e0e1      	LDI  R30,LOW(1)
000364 c001      	RJMP _0x33B
                 ; 0000 0190       else
                 _0x5E:
                 ; 0000 0191       b = 0;}
000365 e0e0      	LDI  R30,LOW(0)
                 _0x33B:
000366 93e0 028f 	STS  _b,R30
                 ; 0000 0192 
                 ; 0000 0193       {if((PINC.0==1)&&(i==0)&&(REDAGAVIMAS==0)){
000368 9b98      	SBIS 0x13,0
000369 c008      	RJMP _0x61
00036a 91a0 0294 	LDS  R26,_i
00036c 30a0      	CPI  R26,LOW(0x0)
00036d f421      	BRNE _0x61
00036e 91a0 0295 	LDS  R26,_REDAGAVIMAS
000370 30a0      	CPI  R26,LOW(0x0)
000371 f009      	BREQ _0x62
                 _0x61:
000372 c006      	RJMP _0x60
                 _0x62:
                 ; 0000 0194       LAIKRODIS = 1;
000373 e0e1      	LDI  R30,LOW(1)
000374 93e0 0280 	STS  _LAIKRODIS,R30
                 ; 0000 0195       i = 1;}
000376 93e0 0294 	STS  _i,R30
                 ; 0000 0196       else
000378 c003      	RJMP _0x63
                 _0x60:
                 ; 0000 0197       LAIKRODIS = 0;}
000379 e0e0      	LDI  R30,LOW(0)
00037a 93e0 0280 	STS  _LAIKRODIS,R30
                 _0x63:
                 ; 0000 0198 
                 ; 0000 0199       if(PINC.0==0){
00037c 9998      	SBIC 0x13,0
00037d c003      	RJMP _0x64
                 ; 0000 019A       i = 0;}
00037e e0e0      	LDI  R30,LOW(0)
00037f 93e0 0294 	STS  _i,R30
                 ; 0000 019B       //AKUMOLIATORIAUS KROVIMAS IR ISKROVIMAS:
                 ; 0000 019C       {if(PINA.5==1){
                 _0x64:
000381 9bcd      	SBIS 0x19,5
000382 c00b      	RJMP _0x65
                 ; 0000 019D       PILNAS = 1;
000383 e0e1      	LDI  R30,LOW(1)
000384 93e0 026a 	STS  _PILNAS,R30
                 ; 0000 019E       if(OSC==0){
000386 91e0 026f 	LDS  R30,_OSC
000388 30e0      	CPI  R30,0
000389 f419      	BRNE _0x66
                 ; 0000 019F       segm_h = 1;}}
00038a e0e1      	LDI  R30,LOW(1)
00038b 93e0 027f 	STS  _segm_h,R30
                 _0x66:
                 ; 0000 01A0       else
00038d c003      	RJMP _0x67
                 _0x65:
                 ; 0000 01A1       PILNAS = 0;}
00038e e0e0      	LDI  R30,LOW(0)
00038f 93e0 026a 	STS  _PILNAS,R30
                 _0x67:
                 ; 0000 01A2 
                 ; 0000 01A3       {if(PINA.6==0){
000391 99ce      	SBIC 0x19,6
000392 c00a      	RJMP _0x68
                 ; 0000 01A4       TUSCIAS = 1;
000393 e0e1      	LDI  R30,LOW(1)
000394 93e0 026b 	STS  _TUSCIAS,R30
                 ; 0000 01A5       if(OSC==4){
000396 91a0 026f 	LDS  R26,_OSC
000398 30a4      	CPI  R26,LOW(0x4)
000399 f411      	BRNE _0x69
                 ; 0000 01A6       segm_h = 1;}}
00039a 93e0 027f 	STS  _segm_h,R30
                 _0x69:
                 ; 0000 01A7       else
00039c c003      	RJMP _0x6A
                 _0x68:
                 ; 0000 01A8       TUSCIAS = 0;}
00039d e0e0      	LDI  R30,LOW(0)
00039e 93e0 026b 	STS  _TUSCIAS,R30
                 _0x6A:
                 ; 0000 01A9 
                 ; 0000 01AA       if(PILNAS==1){
0003a0 91a0 026a 	LDS  R26,_PILNAS
0003a2 30a1      	CPI  R26,LOW(0x1)
0003a3 f419      	BRNE _0x6B
                 ; 0000 01AB       KROVIMAS = 0;}
0003a4 e0e0      	LDI  R30,LOW(0)
0003a5 93e0 026c 	STS  _KROVIMAS,R30
                 ; 0000 01AC 
                 ; 0000 01AD       if(TUSCIAS==1){
                 _0x6B:
0003a7 91a0 026b 	LDS  R26,_TUSCIAS
0003a9 30a1      	CPI  R26,LOW(0x1)
0003aa f431      	BRNE _0x6C
                 ; 0000 01AE       ISKROVIMAS = 0;
0003ab e0e0      	LDI  R30,LOW(0)
0003ac 93e0 026d 	STS  _ISKROVIMAS,R30
                 ; 0000 01AF       KROVIMAS = 1;}
0003ae e0e1      	LDI  R30,LOW(1)
0003af 93e0 026c 	STS  _KROVIMAS,R30
                 ; 0000 01B0 
                 ; 0000 01B1       if((KELINTADIENIS==6)&&(desimtys_valandos==0)&&(valandos==0)
                 _0x6C:
                 ; 0000 01B2       &&(desimtys_minutes==0)&&(minutes==0)&&(KROVIMAS==0)){
0003b1 91a0 02ac 	LDS  R26,_KELINTADIENIS
0003b3 30a6      	CPI  R26,LOW(0x6)
0003b4 f4a1      	BRNE _0x6E
0003b5 91a0 0285 	LDS  R26,_desimtys_valandos
0003b7 30a0      	CPI  R26,LOW(0x0)
0003b8 f481      	BRNE _0x6E
0003b9 91a0 0284 	LDS  R26,_valandos
0003bb 30a0      	CPI  R26,LOW(0x0)
0003bc f461      	BRNE _0x6E
0003bd 91a0 0283 	LDS  R26,_desimtys_minutes
0003bf 30a0      	CPI  R26,LOW(0x0)
0003c0 f441      	BRNE _0x6E
0003c1 91a0 0282 	LDS  R26,_minutes
0003c3 30a0      	CPI  R26,LOW(0x0)
0003c4 f421      	BRNE _0x6E
0003c5 91a0 026c 	LDS  R26,_KROVIMAS
0003c7 30a0      	CPI  R26,LOW(0x0)
0003c8 f009      	BREQ _0x6F
                 _0x6E:
0003c9 c003      	RJMP _0x6D
                 _0x6F:
                 ; 0000 01B3       ISKROVIMAS = 1;}
0003ca e0e1      	LDI  R30,LOW(1)
0003cb 93e0 026d 	STS  _ISKROVIMAS,R30
                 ; 0000 01B4 
                 ; 0000 01B5 
                 ; 0000 01B6       //KAI REDAGUOJAMAS TIKRAS LAIKAS IR TADA ISSAUGOJAMA sekundes = 0;
                 ; 0000 01B7       if((EILUTES_SKAICIUS==0)&&(MYGTUKAS_3==1)&&(REDAGAVIMAS==1)){
                 _0x6D:
0003cd 91a0 0297 	LDS  R26,_EILUTES_SKAICIUS
0003cf 30a0      	CPI  R26,LOW(0x0)
0003d0 f441      	BRNE _0x71
0003d1 91a0 0272 	LDS  R26,_MYGTUKAS_3
0003d3 30a1      	CPI  R26,LOW(0x1)
0003d4 f421      	BRNE _0x71
0003d5 91a0 0295 	LDS  R26,_REDAGAVIMAS
0003d7 30a1      	CPI  R26,LOW(0x1)
0003d8 f009      	BREQ _0x72
                 _0x71:
0003d9 c003      	RJMP _0x70
                 _0x72:
                 ; 0000 01B8       sekundes = 0;}
0003da e0e0      	LDI  R30,LOW(0)
0003db 93e0 0281 	STS  _sekundes,R30
                 ; 0000 01B9       //                           UZRAKINIMAS:
                 ; 0000 01BA 
                 ; 0000 01BB       if((EILUTES_SKAICIUS==0)&&(MYGTUKAS_7==1)&&
                 _0x70:
                 ; 0000 01BC       (KELINTADIENIO_PERZIURA==0)){
0003dd 91a0 0297 	LDS  R26,_EILUTES_SKAICIUS
0003df 30a0      	CPI  R26,LOW(0x0)
0003e0 f441      	BRNE _0x74
0003e1 91a0 0276 	LDS  R26,_MYGTUKAS_7
0003e3 30a1      	CPI  R26,LOW(0x1)
0003e4 f421      	BRNE _0x74
0003e5 91a0 02ab 	LDS  R26,_KELINTADIENIO_PERZIURA
0003e7 30a0      	CPI  R26,LOW(0x0)
0003e8 f009      	BREQ _0x75
                 _0x74:
0003e9 c003      	RJMP _0x73
                 _0x75:
                 ; 0000 01BD       UZRAKINTA = 1;}
0003ea e0e1      	LDI  R30,LOW(1)
0003eb 93e0 02a1 	STS  _UZRAKINTA,R30
                 ; 0000 01BE 
                 ; 0000 01BF       if(UZRAKINTA==0){
                 _0x73:
0003ed 91e0 02a1 	LDS  R30,_UZRAKINTA
0003ef 30e0      	CPI  R30,0
0003f0 f5b9      	BRNE _0x76
                 ; 0000 01C0       viena_sekunde4 = viena_sekunde4 + 1;
0003f1 01f4      	MOVW R30,R8
0003f2 9631      	ADIW R30,1
0003f3 014f      	MOVW R8,R30
                 ; 0000 01C1       if(viena_sekunde4==2000){
0003f4 ede0      	LDI  R30,LOW(2000)
0003f5 e0f7      	LDI  R31,HIGH(2000)
0003f6 15e8      	CP   R30,R8
0003f7 05f9      	CPC  R31,R9
0003f8 f429      	BRNE _0x77
                 ; 0000 01C2       penkios_minutes = penkios_minutes + 1;
0003f9 01f5      	MOVW R30,R10
0003fa 9631      	ADIW R30,1
0003fb 015f      	MOVW R10,R30
                 ; 0000 01C3       viena_sekunde4 = 0;}
0003fc 2488      	CLR  R8
0003fd 2499      	CLR  R9
                 ; 0000 01C4       if(penkios_minutes==60){
                 _0x77:
0003fe e3ec      	LDI  R30,LOW(60)
0003ff e0f0      	LDI  R31,HIGH(60)
000400 15ea      	CP   R30,R10
000401 05fb      	CPC  R31,R11
000402 f429      	BRNE _0x78
                 ; 0000 01C5       UZRAKINTA = 1;
000403 e0e1      	LDI  R30,LOW(1)
000404 93e0 02a1 	STS  _UZRAKINTA,R30
                 ; 0000 01C6       penkios_minutes = 0;}
000406 24aa      	CLR  R10
000407 24bb      	CLR  R11
                 ; 0000 01C7 
                 ; 0000 01C8       if((MYGTUKAS_1==1)||(MYGTUKAS_2==1)||(MYGTUKAS_3==1)||
                 _0x78:
                 ; 0000 01C9       (MYGTUKAS_4==1)||(MYGTUKAS_5==1)||(MYGTUKAS_6==1)||
                 ; 0000 01CA       (MYGTUKAS_7==1)){
000408 91a0 0270 	LDS  R26,_MYGTUKAS_1
00040a 30a1      	CPI  R26,LOW(0x1)
00040b f0c1      	BREQ _0x7A
00040c 91a0 0271 	LDS  R26,_MYGTUKAS_2
00040e 30a1      	CPI  R26,LOW(0x1)
00040f f0a1      	BREQ _0x7A
000410 91a0 0272 	LDS  R26,_MYGTUKAS_3
000412 30a1      	CPI  R26,LOW(0x1)
000413 f081      	BREQ _0x7A
000414 91a0 0273 	LDS  R26,_MYGTUKAS_4
000416 30a1      	CPI  R26,LOW(0x1)
000417 f061      	BREQ _0x7A
000418 91a0 0274 	LDS  R26,_MYGTUKAS_5
00041a 30a1      	CPI  R26,LOW(0x1)
00041b f041      	BREQ _0x7A
00041c 91a0 0275 	LDS  R26,_MYGTUKAS_6
00041e 30a1      	CPI  R26,LOW(0x1)
00041f f021      	BREQ _0x7A
000420 91a0 0276 	LDS  R26,_MYGTUKAS_7
000422 30a1      	CPI  R26,LOW(0x1)
000423 f421      	BRNE _0x79
                 _0x7A:
                 ; 0000 01CB       viena_sekunde4 = 0;
000424 2488      	CLR  R8
000425 2499      	CLR  R9
                 ; 0000 01CC       penkios_minutes = 0;}}
000426 24aa      	CLR  R10
000427 24bb      	CLR  R11
                 _0x79:
                 ; 0000 01CD 
                 ; 0000 01CE 
                 ; 0000 01CF       if(UZRAKINTA==1){
                 _0x76:
000428 91a0 02a1 	LDS  R26,_UZRAKINTA
00042a 30a1      	CPI  R26,LOW(0x1)
00042b f011      	BREQ PC+3
00042c 940c 0585 	JMP _0x7C
                 ; 0000 01D0       if((MYGTUKAS_1==1)||(MYGTUKAS_2==1)||(MYGTUKAS_3==1)||
                 ; 0000 01D1       (MYGTUKAS_4==1)||(MYGTUKAS_5==1)||(MYGTUKAS_6==1)){
00042e 91a0 0270 	LDS  R26,_MYGTUKAS_1
000430 30a1      	CPI  R26,LOW(0x1)
000431 f0a1      	BREQ _0x7E
000432 91a0 0271 	LDS  R26,_MYGTUKAS_2
000434 30a1      	CPI  R26,LOW(0x1)
000435 f081      	BREQ _0x7E
000436 91a0 0272 	LDS  R26,_MYGTUKAS_3
000438 30a1      	CPI  R26,LOW(0x1)
000439 f061      	BREQ _0x7E
00043a 91a0 0273 	LDS  R26,_MYGTUKAS_4
00043c 30a1      	CPI  R26,LOW(0x1)
00043d f041      	BREQ _0x7E
00043e 91a0 0274 	LDS  R26,_MYGTUKAS_5
000440 30a1      	CPI  R26,LOW(0x1)
000441 f021      	BREQ _0x7E
000442 91a0 0275 	LDS  R26,_MYGTUKAS_6
000444 30a1      	CPI  R26,LOW(0x1)
000445 f431      	BRNE _0x7D
                 _0x7E:
                 ; 0000 01D2       viena_minute5 = 20000;}
                +
000446 e2e0     +LDI R30 , LOW ( 0x4E20 )
000447 e4fe     +LDI R31 , HIGH ( 0x4E20 )
000448 e060     +LDI R22 , BYTE3 ( 0x4E20 )
000449 e070     +LDI R23 , BYTE4 ( 0x4E20 )
                 	__GETD1N 0x4E20
00044a 940e 15e6 	CALL SUBOPT_0x3
                 ; 0000 01D3       if(MYGTUKAS_7==1){
                 _0x7D:
00044c 91a0 0276 	LDS  R26,_MYGTUKAS_7
00044e 30a1      	CPI  R26,LOW(0x1)
00044f f411      	BRNE _0x80
                 ; 0000 01D4       viena_minute5 = 0;}
000450 940e 15ef 	CALL SUBOPT_0x4
                 ; 0000 01D5 
                 ; 0000 01D6       if(viena_minute5==0){
                 _0x80:
000452 940e 15f9 	CALL SUBOPT_0x5
000454 f429      	BRNE _0x81
                 ; 0000 01D7       REDAG_UZRAKT_SKAIC = 0;
000455 e0e0      	LDI  R30,LOW(0)
000456 93e0 02a6 	STS  _REDAG_UZRAKT_SKAIC,R30
                 ; 0000 01D8       a1 = 0;
000458 940e 1604 	CALL SUBOPT_0x6
                 ; 0000 01D9       b1 = 0;
                 ; 0000 01DA       c1 = 0;
                 ; 0000 01DB       d1 = 0;}
                 ; 0000 01DC 
                 ; 0000 01DD       if(viena_minute5!=0){
                 _0x81:
00045a 940e 15f9 	CALL SUBOPT_0x5
00045c f411      	BRNE PC+3
00045d 940c 0585 	JMP _0x82
                 ; 0000 01DE       DB_LAIKO_RODYMAS = 0;
00045f e0e0      	LDI  R30,LOW(0)
000460 93e0 02a0 	STS  _DB_LAIKO_RODYMAS,R30
                 ; 0000 01DF       viena_minute5 = viena_minute5 - 1;
000462 91e0 0262 	LDS  R30,_viena_minute5
000464 91f0 0263 	LDS  R31,_viena_minute5+1
000466 9160 0264 	LDS  R22,_viena_minute5+2
000468 9170 0265 	LDS  R23,_viena_minute5+3
                +
00046a 50e1     +SUBI R30 , LOW ( 1 )
00046b 40f0     +SBCI R31 , HIGH ( 1 )
00046c 4060     +SBCI R22 , BYTE3 ( 1 )
00046d 4070     +SBCI R23 , BYTE4 ( 1 )
                 	__SUBD1N 1
00046e 940e 15e6 	CALL SUBOPT_0x3
                 ; 0000 01E0       if(OSC==0){
000470 91e0 026f 	LDS  R30,_OSC
000472 30e0      	CPI  R30,0
000473 f419      	BRNE _0x83
                 ; 0000 01E1       a = 10;}
000474 e0ea      	LDI  R30,LOW(10)
000475 93e0 0286 	STS  _a,R30
                 ; 0000 01E2       if(OSC==4){
                 _0x83:
000477 91a0 026f 	LDS  R26,_OSC
000479 30a4      	CPI  R26,LOW(0x4)
00047a f419      	BRNE _0x84
                 ; 0000 01E3       a = 26;}
00047b e1ea      	LDI  R30,LOW(26)
00047c 93e0 0286 	STS  _a,R30
                 ; 0000 01E4       if(OSC==8){
                 _0x84:
00047e 91a0 026f 	LDS  R26,_OSC
000480 30a8      	CPI  R26,LOW(0x8)
000481 f419      	BRNE _0x85
                 ; 0000 01E5       a = 30;}
000482 e1ee      	LDI  R30,LOW(30)
000483 93e0 0286 	STS  _a,R30
                 ; 0000 01E6       if(OSC==12){
                 _0x85:
000485 91a0 026f 	LDS  R26,_OSC
000487 30ac      	CPI  R26,LOW(0xC)
000488 f419      	BRNE _0x86
                 ; 0000 01E7       a = 10;}
000489 e0ea      	LDI  R30,LOW(10)
00048a 93e0 0286 	STS  _a,R30
                 ; 0000 01E8       if(OSC==16){
                 _0x86:
00048c 91a0 026f 	LDS  R26,_OSC
00048e 31a0      	CPI  R26,LOW(0x10)
00048f f479      	BRNE _0x87
                 ; 0000 01E9       if(REDAG_UZRAKT_SKAIC==0){
000490 91e0 02a6 	LDS  R30,_REDAG_UZRAKT_SKAIC
000492 30e0      	CPI  R30,0
000493 f421      	BRNE _0x88
                 ; 0000 01EA       a = a1;}
000494 91e0 02a7 	LDS  R30,_a1
000496 93e0 0286 	STS  _a,R30
                 ; 0000 01EB       if(REDAG_UZRAKT_SKAIC!=0){
                 _0x88:
000498 91e0 02a6 	LDS  R30,_REDAG_UZRAKT_SKAIC
00049a 30e0      	CPI  R30,0
00049b f019      	BREQ _0x89
                 ; 0000 01EC       a = 32;}}
00049c e2e0      	LDI  R30,LOW(32)
00049d 93e0 0286 	STS  _a,R30
                 _0x89:
                 ; 0000 01ED       if(OSC==20){
                 _0x87:
00049f 91a0 026f 	LDS  R26,_OSC
0004a1 31a4      	CPI  R26,LOW(0x14)
0004a2 f479      	BRNE _0x8A
                 ; 0000 01EE       if(REDAG_UZRAKT_SKAIC==1){
0004a3 91a0 02a6 	LDS  R26,_REDAG_UZRAKT_SKAIC
0004a5 30a1      	CPI  R26,LOW(0x1)
0004a6 f421      	BRNE _0x8B
                 ; 0000 01EF       a = b1;}
0004a7 91e0 02a8 	LDS  R30,_b1
0004a9 93e0 0286 	STS  _a,R30
                 ; 0000 01F0       if(REDAG_UZRAKT_SKAIC!=1){
                 _0x8B:
0004ab 91a0 02a6 	LDS  R26,_REDAG_UZRAKT_SKAIC
0004ad 30a1      	CPI  R26,LOW(0x1)
0004ae f019      	BREQ _0x8C
                 ; 0000 01F1       a = 32;}}
0004af e2e0      	LDI  R30,LOW(32)
0004b0 93e0 0286 	STS  _a,R30
                 _0x8C:
                 ; 0000 01F2       if(OSC==24){
                 _0x8A:
0004b2 91a0 026f 	LDS  R26,_OSC
0004b4 31a8      	CPI  R26,LOW(0x18)
0004b5 f479      	BRNE _0x8D
                 ; 0000 01F3       if(REDAG_UZRAKT_SKAIC==2){
0004b6 91a0 02a6 	LDS  R26,_REDAG_UZRAKT_SKAIC
0004b8 30a2      	CPI  R26,LOW(0x2)
0004b9 f421      	BRNE _0x8E
                 ; 0000 01F4       a = c1;}
0004ba 91e0 02a9 	LDS  R30,_c1
0004bc 93e0 0286 	STS  _a,R30
                 ; 0000 01F5       if(REDAG_UZRAKT_SKAIC!=2){
                 _0x8E:
0004be 91a0 02a6 	LDS  R26,_REDAG_UZRAKT_SKAIC
0004c0 30a2      	CPI  R26,LOW(0x2)
0004c1 f019      	BREQ _0x8F
                 ; 0000 01F6       a = 32;}}
0004c2 e2e0      	LDI  R30,LOW(32)
0004c3 93e0 0286 	STS  _a,R30
                 _0x8F:
                 ; 0000 01F7       if(OSC==28){
                 _0x8D:
0004c5 91a0 026f 	LDS  R26,_OSC
0004c7 31ac      	CPI  R26,LOW(0x1C)
0004c8 f479      	BRNE _0x90
                 ; 0000 01F8       if(REDAG_UZRAKT_SKAIC==3){
0004c9 91a0 02a6 	LDS  R26,_REDAG_UZRAKT_SKAIC
0004cb 30a3      	CPI  R26,LOW(0x3)
0004cc f421      	BRNE _0x91
                 ; 0000 01F9       a = d1;}
0004cd 91e0 02aa 	LDS  R30,_d1
0004cf 93e0 0286 	STS  _a,R30
                 ; 0000 01FA       if(REDAG_UZRAKT_SKAIC!=3){
                 _0x91:
0004d1 91a0 02a6 	LDS  R26,_REDAG_UZRAKT_SKAIC
0004d3 30a3      	CPI  R26,LOW(0x3)
0004d4 f019      	BREQ _0x92
                 ; 0000 01FB       a = 32;
0004d5 e2e0      	LDI  R30,LOW(32)
0004d6 93e0 0286 	STS  _a,R30
                 ; 0000 01FC       }}
                 _0x92:
                 ; 0000 01FD 
                 ; 0000 01FE       if(MYGTUKAS_1==1){
                 _0x90:
0004d8 91a0 0270 	LDS  R26,_MYGTUKAS_1
0004da 30a1      	CPI  R26,LOW(0x1)
0004db f521      	BRNE _0x93
                 ; 0000 01FF       if(REDAG_UZRAKT_SKAIC==0){
0004dc 91e0 02a6 	LDS  R30,_REDAG_UZRAKT_SKAIC
0004de 30e0      	CPI  R30,0
0004df f429      	BRNE _0x94
                 ; 0000 0200       a1 = a1 + 1;}
0004e0 91e0 02a7 	LDS  R30,_a1
0004e2 5fef      	SUBI R30,-LOW(1)
0004e3 93e0 02a7 	STS  _a1,R30
                 ; 0000 0201       if(REDAG_UZRAKT_SKAIC==1){
                 _0x94:
0004e5 91a0 02a6 	LDS  R26,_REDAG_UZRAKT_SKAIC
0004e7 30a1      	CPI  R26,LOW(0x1)
0004e8 f429      	BRNE _0x95
                 ; 0000 0202       b1 = b1 + 1;}
0004e9 91e0 02a8 	LDS  R30,_b1
0004eb 5fef      	SUBI R30,-LOW(1)
0004ec 93e0 02a8 	STS  _b1,R30
                 ; 0000 0203       if(REDAG_UZRAKT_SKAIC==2){
                 _0x95:
0004ee 91a0 02a6 	LDS  R26,_REDAG_UZRAKT_SKAIC
0004f0 30a2      	CPI  R26,LOW(0x2)
0004f1 f429      	BRNE _0x96
                 ; 0000 0204       c1 = c1 + 1;}
0004f2 91e0 02a9 	LDS  R30,_c1
0004f4 5fef      	SUBI R30,-LOW(1)
0004f5 93e0 02a9 	STS  _c1,R30
                 ; 0000 0205       if(REDAG_UZRAKT_SKAIC==3){
                 _0x96:
0004f7 91a0 02a6 	LDS  R26,_REDAG_UZRAKT_SKAIC
0004f9 30a3      	CPI  R26,LOW(0x3)
0004fa f429      	BRNE _0x97
                 ; 0000 0206       d1 = d1 + 1;}}
0004fb 91e0 02aa 	LDS  R30,_d1
0004fd 5fef      	SUBI R30,-LOW(1)
0004fe 93e0 02aa 	STS  _d1,R30
                 _0x97:
                 ; 0000 0207       if(MYGTUKAS_5==1){
                 _0x93:
000500 91a0 0274 	LDS  R26,_MYGTUKAS_5
000502 30a1      	CPI  R26,LOW(0x1)
000503 f541      	BRNE _0x98
                 ; 0000 0208       if(REDAG_UZRAKT_SKAIC==0){
000504 91e0 02a6 	LDS  R30,_REDAG_UZRAKT_SKAIC
000506 30e0      	CPI  R30,0
000507 f431      	BRNE _0x99
                 ; 0000 0209       a1 = a1 - 1;}
000508 91e0 02a7 	LDS  R30,_a1
00050a 940e 160e 	CALL SUBOPT_0x7
00050c 93e0 02a7 	STS  _a1,R30
                 ; 0000 020A       if(REDAG_UZRAKT_SKAIC==1){
                 _0x99:
00050e 91a0 02a6 	LDS  R26,_REDAG_UZRAKT_SKAIC
000510 30a1      	CPI  R26,LOW(0x1)
000511 f431      	BRNE _0x9A
                 ; 0000 020B       b1 = b1 - 1;}
000512 91e0 02a8 	LDS  R30,_b1
000514 940e 160e 	CALL SUBOPT_0x7
000516 93e0 02a8 	STS  _b1,R30
                 ; 0000 020C       if(REDAG_UZRAKT_SKAIC==2){
                 _0x9A:
000518 91a0 02a6 	LDS  R26,_REDAG_UZRAKT_SKAIC
00051a 30a2      	CPI  R26,LOW(0x2)
00051b f431      	BRNE _0x9B
                 ; 0000 020D       c1 = c1 - 1;}
00051c 91e0 02a9 	LDS  R30,_c1
00051e 940e 160e 	CALL SUBOPT_0x7
000520 93e0 02a9 	STS  _c1,R30
                 ; 0000 020E       if(REDAG_UZRAKT_SKAIC==3){
                 _0x9B:
000522 91a0 02a6 	LDS  R26,_REDAG_UZRAKT_SKAIC
000524 30a3      	CPI  R26,LOW(0x3)
000525 f431      	BRNE _0x9C
                 ; 0000 020F       d1 = d1 - 1;}}
000526 91e0 02aa 	LDS  R30,_d1
000528 940e 160e 	CALL SUBOPT_0x7
00052a 93e0 02aa 	STS  _d1,R30
                 _0x9C:
                 ; 0000 0210       if(MYGTUKAS_2==1){
                 _0x98:
00052c 91a0 0271 	LDS  R26,_MYGTUKAS_2
00052e 30a1      	CPI  R26,LOW(0x1)
00052f f431      	BRNE _0x9D
                 ; 0000 0211       REDAG_UZRAKT_SKAIC = REDAG_UZRAKT_SKAIC - 1;}
000530 91e0 02a6 	LDS  R30,_REDAG_UZRAKT_SKAIC
000532 940e 160e 	CALL SUBOPT_0x7
000534 93e0 02a6 	STS  _REDAG_UZRAKT_SKAIC,R30
                 ; 0000 0212       if(MYGTUKAS_4==1){
                 _0x9D:
000536 91a0 0273 	LDS  R26,_MYGTUKAS_4
000538 30a1      	CPI  R26,LOW(0x1)
000539 f429      	BRNE _0x9E
                 ; 0000 0213       REDAG_UZRAKT_SKAIC = REDAG_UZRAKT_SKAIC + 1;}
00053a 91e0 02a6 	LDS  R30,_REDAG_UZRAKT_SKAIC
00053c 5fef      	SUBI R30,-LOW(1)
00053d 93e0 02a6 	STS  _REDAG_UZRAKT_SKAIC,R30
                 ; 0000 0214 
                 ; 0000 0215       if(REDAG_UZRAKT_SKAIC==-1){
                 _0x9E:
00053f 91a0 02a6 	LDS  R26,_REDAG_UZRAKT_SKAIC
000541 3faf      	CPI  R26,LOW(0xFF)
000542 f419      	BRNE _0x9F
                 ; 0000 0216       REDAG_UZRAKT_SKAIC = 3;}
000543 e0e3      	LDI  R30,LOW(3)
000544 93e0 02a6 	STS  _REDAG_UZRAKT_SKAIC,R30
                 ; 0000 0217       if(REDAG_UZRAKT_SKAIC==4){
                 _0x9F:
000546 91a0 02a6 	LDS  R26,_REDAG_UZRAKT_SKAIC
000548 30a4      	CPI  R26,LOW(0x4)
000549 f419      	BRNE _0xA0
                 ; 0000 0218       REDAG_UZRAKT_SKAIC = 0;}
00054a e0e0      	LDI  R30,LOW(0)
00054b 93e0 02a6 	STS  _REDAG_UZRAKT_SKAIC,R30
                 ; 0000 0219 
                 ; 0000 021A 
                 ; 0000 021B 
                 ; 0000 021C       if(a1==-1){
                 _0xA0:
00054d 91a0 02a7 	LDS  R26,_a1
00054f 3faf      	CPI  R26,LOW(0xFF)
000550 f419      	BRNE _0xA1
                 ; 0000 021D       a1 = 9;}
000551 e0e9      	LDI  R30,LOW(9)
000552 93e0 02a7 	STS  _a1,R30
                 ; 0000 021E       if(b1==-1){
                 _0xA1:
000554 91a0 02a8 	LDS  R26,_b1
000556 3faf      	CPI  R26,LOW(0xFF)
000557 f419      	BRNE _0xA2
                 ; 0000 021F       b1 = 9;}
000558 e0e9      	LDI  R30,LOW(9)
000559 93e0 02a8 	STS  _b1,R30
                 ; 0000 0220       if(c1==-1){
                 _0xA2:
00055b 91a0 02a9 	LDS  R26,_c1
00055d 3faf      	CPI  R26,LOW(0xFF)
00055e f419      	BRNE _0xA3
                 ; 0000 0221       c1 = 9;}
00055f e0e9      	LDI  R30,LOW(9)
000560 93e0 02a9 	STS  _c1,R30
                 ; 0000 0222       if(d1==-1){
                 _0xA3:
000562 91a0 02aa 	LDS  R26,_d1
000564 3faf      	CPI  R26,LOW(0xFF)
000565 f419      	BRNE _0xA4
                 ; 0000 0223       d1 = 9;}
000566 e0e9      	LDI  R30,LOW(9)
000567 93e0 02aa 	STS  _d1,R30
                 ; 0000 0224       if(a1==10){
                 _0xA4:
000569 91a0 02a7 	LDS  R26,_a1
00056b 30aa      	CPI  R26,LOW(0xA)
00056c f419      	BRNE _0xA5
                 ; 0000 0225       a1 = 0;}
00056d e0e0      	LDI  R30,LOW(0)
00056e 93e0 02a7 	STS  _a1,R30
                 ; 0000 0226       if(b1==10){
                 _0xA5:
000570 91a0 02a8 	LDS  R26,_b1
000572 30aa      	CPI  R26,LOW(0xA)
000573 f419      	BRNE _0xA6
                 ; 0000 0227       b1 = 0;}
000574 e0e0      	LDI  R30,LOW(0)
000575 93e0 02a8 	STS  _b1,R30
                 ; 0000 0228       if(c1==10){
                 _0xA6:
000577 91a0 02a9 	LDS  R26,_c1
000579 30aa      	CPI  R26,LOW(0xA)
00057a f419      	BRNE _0xA7
                 ; 0000 0229       c1 = 0;}
00057b e0e0      	LDI  R30,LOW(0)
00057c 93e0 02a9 	STS  _c1,R30
                 ; 0000 022A       if(d1==10){
                 _0xA7:
00057e 91a0 02aa 	LDS  R26,_d1
000580 30aa      	CPI  R26,LOW(0xA)
000581 f419      	BRNE _0xA8
                 ; 0000 022B       d1 = 0;}}}
000582 e0e0      	LDI  R30,LOW(0)
000583 93e0 02aa 	STS  _d1,R30
                 _0xA8:
                 _0x82:
                 ; 0000 022C 
                 ; 0000 022D       if((MYGTUKAS_3==1)&&(viena_minute5!=0)){
                 _0x7C:
000585 91a0 0272 	LDS  R26,_MYGTUKAS_3
000587 30a1      	CPI  R26,LOW(0x1)
000588 f459      	BRNE _0xAA
000589 91a0 0262 	LDS  R26,_viena_minute5
00058b 91b0 0263 	LDS  R27,_viena_minute5+1
00058d 9180 0264 	LDS  R24,_viena_minute5+2
00058f 9190 0265 	LDS  R25,_viena_minute5+3
000591 940e 16f7 	CALL __CPD02
000593 f409      	BRNE _0xAB
                 _0xAA:
000594 c026      	RJMP _0xA9
                 _0xAB:
                 ; 0000 022E       if(
                 ; 0000 022F       (UZRAKTO_KODAS_1==a1)&&
                 ; 0000 0230       (UZRAKTO_KODAS_2==b1)&&
                 ; 0000 0231       (UZRAKTO_KODAS_3==c1)&&
                 ; 0000 0232       (UZRAKTO_KODAS_4==d1)){
000595 91e0 02a7 	LDS  R30,_a1
000597 91a0 02a2 	LDS  R26,_UZRAKTO_KODAS_1
000599 17ea      	CP   R30,R26
00059a f491      	BRNE _0xAD
00059b 91e0 02a8 	LDS  R30,_b1
00059d 91a0 02a3 	LDS  R26,_UZRAKTO_KODAS_2
00059f 17ea      	CP   R30,R26
0005a0 f461      	BRNE _0xAD
0005a1 91e0 02a9 	LDS  R30,_c1
0005a3 91a0 02a4 	LDS  R26,_UZRAKTO_KODAS_3
0005a5 17ea      	CP   R30,R26
0005a6 f431      	BRNE _0xAD
0005a7 91e0 02aa 	LDS  R30,_d1
0005a9 91a0 02a5 	LDS  R26,_UZRAKTO_KODAS_4
0005ab 17ea      	CP   R30,R26
0005ac f009      	BREQ _0xAE
                 _0xAD:
0005ad c00d      	RJMP _0xAC
                 _0xAE:
                 ; 0000 0233       UZRAKINTA = 0;
0005ae e0e0      	LDI  R30,LOW(0)
0005af 93e0 02a1 	STS  _UZRAKINTA,R30
                 ; 0000 0234       viena_minute5 = 0;
0005b1 940e 15ef 	CALL SUBOPT_0x4
                 ; 0000 0235       a1 = 0;
0005b3 940e 1604 	CALL SUBOPT_0x6
                 ; 0000 0236       b1 = 0;
                 ; 0000 0237       c1 = 0;
                 ; 0000 0238       d1 = 0;
                 ; 0000 0239       REDAG_UZRAKT_SKAIC = 0;
0005b5 e0e0      	LDI  R30,LOW(0)
0005b6 93e0 02a6 	STS  _REDAG_UZRAKT_SKAIC,R30
                 ; 0000 023A       DB_LAIKO_RODYMAS = 1;}}
0005b8 e0e1      	LDI  R30,LOW(1)
0005b9 93e0 02a0 	STS  _DB_LAIKO_RODYMAS,R30
                 _0xAC:
                 ; 0000 023B 
                 ; 0000 023C       if(UZRAKINTA==1){
                 _0xA9:
0005bb 91a0 02a1 	LDS  R26,_UZRAKINTA
0005bd 30a1      	CPI  R26,LOW(0x1)
0005be f449      	BRNE _0xAF
                 ; 0000 023D       EILUTES_SKAICIUS = 0;
0005bf e0e0      	LDI  R30,LOW(0)
0005c0 93e0 0297 	STS  _EILUTES_SKAICIUS,R30
                 ; 0000 023E       REDAGAVIMAS = 0;
0005c2 940e 1613 	CALL SUBOPT_0x8
                 ; 0000 023F       MYGTUKAS_1 = 0;
0005c4 940e 1617 	CALL SUBOPT_0x9
                 ; 0000 0240       MYGTUKAS_2 = 0;
                 ; 0000 0241       MYGTUKAS_3 = 0;
                 ; 0000 0242       MYGTUKAS_4 = 0;
                 ; 0000 0243       MYGTUKAS_5 = 0;
                 ; 0000 0244       MYGTUKAS_6 = 0;
                 ; 0000 0245       MYGTUKAS_7 = 0;
                 ; 0000 0246       KELINTADIENIO_PERZIURA = 0;
0005c6 940e 1627 	CALL SUBOPT_0xA
                 ; 0000 0247       KELINTADIENIO_REDAGAVIMAS = 0;}
                 ; 0000 0248 
                 ; 0000 0249       //Baterijos busena;
                 ; 0000 024A       if((REDAGAVIMAS==0)&&(KELINTADIENIO_REDAGAVIMAS==0)){
                 _0xAF:
0005c8 91a0 0295 	LDS  R26,_REDAGAVIMAS
0005ca 30a0      	CPI  R26,LOW(0x0)
0005cb f421      	BRNE _0xB1
0005cc 91a0 02ad 	LDS  R26,_KELINTADIENIO_REDAGAVIMAS
0005ce 30a0      	CPI  R26,LOW(0x0)
0005cf f009      	BREQ _0xB2
                 _0xB1:
0005d0 c0ec      	RJMP _0xB0
                 _0xB2:
                 ; 0000 024B 
                 ; 0000 024C       if((EILUTES_SKAICIUS==0)&&(BATERIJOS_BUSENA==0)&&
                 ; 0000 024D       (MYGTUKAS_4==1)){
0005d1 91a0 0297 	LDS  R26,_EILUTES_SKAICIUS
0005d3 30a0      	CPI  R26,LOW(0x0)
0005d4 f441      	BRNE _0xB4
0005d5 91a0 026e 	LDS  R26,_BATERIJOS_BUSENA
0005d7 30a0      	CPI  R26,LOW(0x0)
0005d8 f421      	BRNE _0xB4
0005d9 91a0 0273 	LDS  R26,_MYGTUKAS_4
0005db 30a1      	CPI  R26,LOW(0x1)
0005dc f009      	BREQ _0xB5
                 _0xB4:
0005dd c006      	RJMP _0xB3
                 _0xB5:
                 ; 0000 024E       BATERIJOS_BUSENA = 1;
0005de e0e1      	LDI  R30,LOW(1)
0005df 93e0 026e 	STS  _BATERIJOS_BUSENA,R30
                 ; 0000 024F       MYGTUKAS_4 = 0;}
0005e1 e0e0      	LDI  R30,LOW(0)
0005e2 93e0 0273 	STS  _MYGTUKAS_4,R30
                 ; 0000 0250 
                 ; 0000 0251       if((EILUTES_SKAICIUS==0)&&(BATERIJOS_BUSENA==1)&&
                 _0xB3:
                 ; 0000 0252       ((MYGTUKAS_1==1)||(MYGTUKAS_2==1)||(MYGTUKAS_3==1)||
                 ; 0000 0253       (MYGTUKAS_4==1)||(MYGTUKAS_5==1)||(MYGTUKAS_6==1)||
                 ; 0000 0254       (MYGTUKAS_7==1))){
0005e4 91a0 0297 	LDS  R26,_EILUTES_SKAICIUS
0005e6 30a0      	CPI  R26,LOW(0x0)
0005e7 f509      	BRNE _0xB7
0005e8 91a0 026e 	LDS  R26,_BATERIJOS_BUSENA
0005ea 30a1      	CPI  R26,LOW(0x1)
0005eb f4e9      	BRNE _0xB7
0005ec 91a0 0270 	LDS  R26,_MYGTUKAS_1
0005ee 30a1      	CPI  R26,LOW(0x1)
0005ef f0c1      	BREQ _0xB8
0005f0 91a0 0271 	LDS  R26,_MYGTUKAS_2
0005f2 30a1      	CPI  R26,LOW(0x1)
0005f3 f0a1      	BREQ _0xB8
0005f4 91a0 0272 	LDS  R26,_MYGTUKAS_3
0005f6 30a1      	CPI  R26,LOW(0x1)
0005f7 f081      	BREQ _0xB8
0005f8 91a0 0273 	LDS  R26,_MYGTUKAS_4
0005fa 30a1      	CPI  R26,LOW(0x1)
0005fb f061      	BREQ _0xB8
0005fc 91a0 0274 	LDS  R26,_MYGTUKAS_5
0005fe 30a1      	CPI  R26,LOW(0x1)
0005ff f041      	BREQ _0xB8
000600 91a0 0275 	LDS  R26,_MYGTUKAS_6
000602 30a1      	CPI  R26,LOW(0x1)
000603 f021      	BREQ _0xB8
000604 91a0 0276 	LDS  R26,_MYGTUKAS_7
000606 30a1      	CPI  R26,LOW(0x1)
000607 f409      	BRNE _0xB7
                 _0xB8:
000608 c001      	RJMP _0xBA
                 _0xB7:
000609 c005      	RJMP _0xB6
                 _0xBA:
                 ; 0000 0255       BATERIJOS_BUSENA = 0;
00060a e0e0      	LDI  R30,LOW(0)
00060b 93e0 026e 	STS  _BATERIJOS_BUSENA,R30
                 ; 0000 0256       MYGTUKAS_1 = 0;
00060d 940e 1617 	CALL SUBOPT_0x9
                 ; 0000 0257       MYGTUKAS_2 = 0;
                 ; 0000 0258       MYGTUKAS_3 = 0;
                 ; 0000 0259       MYGTUKAS_4 = 0;
                 ; 0000 025A       MYGTUKAS_5 = 0;
                 ; 0000 025B       MYGTUKAS_6 = 0;
                 ; 0000 025C       MYGTUKAS_7 = 0;}
                 ; 0000 025D 
                 ; 0000 025E       if(BATERIJOS_BUSENA==1){
                 _0xB6:
00060f 91a0 026e 	LDS  R26,_BATERIJOS_BUSENA
000611 30a1      	CPI  R26,LOW(0x1)
000612 f011      	BREQ PC+3
000613 940c 06bd 	JMP _0xBB
                 ; 0000 025F       DB_LAIKO_RODYMAS = 0;
000615 e0e0      	LDI  R30,LOW(0)
000616 93e0 02a0 	STS  _DB_LAIKO_RODYMAS,R30
                 ; 0000 0260       if(KROVIMAS==1){
000618 91a0 026c 	LDS  R26,_KROVIMAS
00061a 30a1      	CPI  R26,LOW(0x1)
00061b f4e1      	BRNE _0xBC
                 ; 0000 0261       if(OSC==0){
00061c 91e0 026f 	LDS  R30,_OSC
00061e 30e0      	CPI  R30,0
00061f f419      	BRNE _0xBD
                 ; 0000 0262       a = 12;}
000620 e0ec      	LDI  R30,LOW(12)
000621 93e0 0286 	STS  _a,R30
                 ; 0000 0263       if(OSC==4){
                 _0xBD:
000623 91a0 026f 	LDS  R26,_OSC
000625 30a4      	CPI  R26,LOW(0x4)
000626 f419      	BRNE _0xBE
                 ; 0000 0264       a = 18;}
000627 e1e2      	LDI  R30,LOW(18)
000628 93e0 0286 	STS  _a,R30
                 ; 0000 0265       if(OSC==8){
                 _0xBE:
00062a 91a0 026f 	LDS  R26,_OSC
00062c 30a8      	CPI  R26,LOW(0x8)
00062d f419      	BRNE _0xBF
                 ; 0000 0266       a = 10;}
00062e e0ea      	LDI  R30,LOW(10)
00062f 93e0 0286 	STS  _a,R30
                 ; 0000 0267       if(OSC==12){
                 _0xBF:
000631 91a0 026f 	LDS  R26,_OSC
000633 30ac      	CPI  R26,LOW(0xC)
000634 f419      	BRNE _0xC0
                 ; 0000 0268       a = 30;}}
000635 e1ee      	LDI  R30,LOW(30)
000636 93e0 0286 	STS  _a,R30
                 _0xC0:
                 ; 0000 0269       if(ISKROVIMAS==1){
                 _0xBC:
000638 91a0 026d 	LDS  R26,_ISKROVIMAS
00063a 30a1      	CPI  R26,LOW(0x1)
00063b f4e1      	BRNE _0xC1
                 ; 0000 026A       if(OSC==0){
00063c 91e0 026f 	LDS  R30,_OSC
00063e 30e0      	CPI  R30,0
00063f f419      	BRNE _0xC2
                 ; 0000 026B       a = 14;}
000640 e0ee      	LDI  R30,LOW(14)
000641 93e0 0286 	STS  _a,R30
                 ; 0000 026C       if(OSC==4){
                 _0xC2:
000643 91a0 026f 	LDS  R26,_OSC
000645 30a4      	CPI  R26,LOW(0x4)
000646 f419      	BRNE _0xC3
                 ; 0000 026D       a = 12;}
000647 e0ec      	LDI  R30,LOW(12)
000648 93e0 0286 	STS  _a,R30
                 ; 0000 026E       if(OSC==8){
                 _0xC3:
00064a 91a0 026f 	LDS  R26,_OSC
00064c 30a8      	CPI  R26,LOW(0x8)
00064d f419      	BRNE _0xC4
                 ; 0000 026F       a = 18;}
00064e e1e2      	LDI  R30,LOW(18)
00064f 93e0 0286 	STS  _a,R30
                 ; 0000 0270       if(OSC==12){
                 _0xC4:
000651 91a0 026f 	LDS  R26,_OSC
000653 30ac      	CPI  R26,LOW(0xC)
000654 f419      	BRNE _0xC5
                 ; 0000 0271       a = 30;}}
000655 e1ee      	LDI  R30,LOW(30)
000656 93e0 0286 	STS  _a,R30
                 _0xC5:
                 ; 0000 0272       if(TUSCIAS==1){
                 _0xC1:
000658 91a0 026b 	LDS  R26,_TUSCIAS
00065a 30a1      	CPI  R26,LOW(0x1)
00065b f4e1      	BRNE _0xC6
                 ; 0000 0273       if(OSC==16){
00065c 91a0 026f 	LDS  R26,_OSC
00065e 31a0      	CPI  R26,LOW(0x10)
00065f f419      	BRNE _0xC7
                 ; 0000 0274       a = 26;}
000660 e1ea      	LDI  R30,LOW(26)
000661 93e0 0286 	STS  _a,R30
                 ; 0000 0275       if(OSC==20){
                 _0xC7:
000663 91a0 026f 	LDS  R26,_OSC
000665 31a4      	CPI  R26,LOW(0x14)
000666 f419      	BRNE _0xC8
                 ; 0000 0276       a = 27;}
000667 e1eb      	LDI  R30,LOW(27)
000668 93e0 0286 	STS  _a,R30
                 ; 0000 0277       if(OSC==24){
                 _0xC8:
00066a 91a0 026f 	LDS  R26,_OSC
00066c 31a8      	CPI  R26,LOW(0x18)
00066d f419      	BRNE _0xC9
                 ; 0000 0278       a = 5;}
00066e e0e5      	LDI  R30,LOW(5)
00066f 93e0 0286 	STS  _a,R30
                 ; 0000 0279       if(OSC==28){
                 _0xC9:
000671 91a0 026f 	LDS  R26,_OSC
000673 31ac      	CPI  R26,LOW(0x1C)
000674 f419      	BRNE _0xCA
                 ; 0000 027A       a = 12;}}
000675 e0ec      	LDI  R30,LOW(12)
000676 93e0 0286 	STS  _a,R30
                 _0xCA:
                 ; 0000 027B       if((TUSCIAS==0)&&(PILNAS==0)){
                 _0xC6:
000678 91a0 026b 	LDS  R26,_TUSCIAS
00067a 30a0      	CPI  R26,LOW(0x0)
00067b f421      	BRNE _0xCC
00067c 91a0 026a 	LDS  R26,_PILNAS
00067e 30a0      	CPI  R26,LOW(0x0)
00067f f009      	BREQ _0xCD
                 _0xCC:
000680 c01c      	RJMP _0xCB
                 _0xCD:
                 ; 0000 027C       if(OSC==16){
000681 91a0 026f 	LDS  R26,_OSC
000683 31a0      	CPI  R26,LOW(0x10)
000684 f419      	BRNE _0xCE
                 ; 0000 027D       a = 24;}
000685 e1e8      	LDI  R30,LOW(24)
000686 93e0 0286 	STS  _a,R30
                 ; 0000 027E       if(OSC==20){
                 _0xCE:
000688 91a0 026f 	LDS  R26,_OSC
00068a 31a4      	CPI  R26,LOW(0x14)
00068b f419      	BRNE _0xCF
                 ; 0000 027F       a = 28;}
00068c e1ec      	LDI  R30,LOW(28)
00068d 93e0 0286 	STS  _a,R30
                 ; 0000 0280       if(OSC==24){
                 _0xCF:
00068f 91a0 026f 	LDS  R26,_OSC
000691 31a8      	CPI  R26,LOW(0x18)
000692 f419      	BRNE _0xD0
                 ; 0000 0281       a = 5;}
000693 e0e5      	LDI  R30,LOW(5)
000694 93e0 0286 	STS  _a,R30
                 ; 0000 0282       if(OSC==28){
                 _0xD0:
000696 91a0 026f 	LDS  R26,_OSC
000698 31ac      	CPI  R26,LOW(0x1C)
000699 f419      	BRNE _0xD1
                 ; 0000 0283       a = 15;}}
00069a e0ef      	LDI  R30,LOW(15)
00069b 93e0 0286 	STS  _a,R30
                 _0xD1:
                 ; 0000 0284       if(PILNAS==1){
                 _0xCB:
00069d 91a0 026a 	LDS  R26,_PILNAS
00069f 30a1      	CPI  R26,LOW(0x1)
0006a0 f4e1      	BRNE _0xD2
                 ; 0000 0285       if(OSC==16){
0006a1 91a0 026f 	LDS  R26,_OSC
0006a3 31a0      	CPI  R26,LOW(0x10)
0006a4 f419      	BRNE _0xD3
                 ; 0000 0286       a = 26;}
0006a5 e1ea      	LDI  R30,LOW(26)
0006a6 93e0 0286 	STS  _a,R30
                 ; 0000 0287       if(OSC==20){
                 _0xD3:
0006a8 91a0 026f 	LDS  R26,_OSC
0006aa 31a4      	CPI  R26,LOW(0x14)
0006ab f419      	BRNE _0xD4
                 ; 0000 0288       a = 1;}
0006ac e0e1      	LDI  R30,LOW(1)
0006ad 93e0 0286 	STS  _a,R30
                 ; 0000 0289       if(OSC==24){
                 _0xD4:
0006af 91a0 026f 	LDS  R26,_OSC
0006b1 31a8      	CPI  R26,LOW(0x18)
0006b2 f419      	BRNE _0xD5
                 ; 0000 028A       a = 22;}
0006b3 e1e6      	LDI  R30,LOW(22)
0006b4 93e0 0286 	STS  _a,R30
                 ; 0000 028B       if(OSC==28){
                 _0xD5:
0006b6 91a0 026f 	LDS  R26,_OSC
0006b8 31ac      	CPI  R26,LOW(0x1C)
0006b9 f419      	BRNE _0xD6
                 ; 0000 028C       a = 34;}}}}
0006ba e2e2      	LDI  R30,LOW(34)
0006bb 93e0 0286 	STS  _a,R30
                 _0xD6:
                 _0xD2:
                 _0xBB:
                 ; 0000 028D 
                 ; 0000 028E       //KELINTADIENIO NUSTATYMAI:
                 ; 0000 028F       if((DB_LAIKO_RODYMAS==1)&&(REDAGAVIMAS==0)&&
                 _0xB0:
                 ; 0000 0290       (MYGTUKAS_2==1)&&(EILUTES_SKAICIUS==0)){
0006bd 91a0 02a0 	LDS  R26,_DB_LAIKO_RODYMAS
0006bf 30a1      	CPI  R26,LOW(0x1)
0006c0 f461      	BRNE _0xD8
0006c1 91a0 0295 	LDS  R26,_REDAGAVIMAS
0006c3 30a0      	CPI  R26,LOW(0x0)
0006c4 f441      	BRNE _0xD8
0006c5 91a0 0271 	LDS  R26,_MYGTUKAS_2
0006c7 30a1      	CPI  R26,LOW(0x1)
0006c8 f421      	BRNE _0xD8
0006c9 91a0 0297 	LDS  R26,_EILUTES_SKAICIUS
0006cb 30a0      	CPI  R26,LOW(0x0)
0006cc f009      	BREQ _0xD9
                 _0xD8:
0006cd c003      	RJMP _0xD7
                 _0xD9:
                 ; 0000 0291       KELINTADIENIO_PERZIURA = 1;}
0006ce e0e1      	LDI  R30,LOW(1)
0006cf 93e0 02ab 	STS  _KELINTADIENIO_PERZIURA,R30
                 ; 0000 0292 
                 ; 0000 0293       if(KELINTADIENIO_PERZIURA==1){
                 _0xD7:
0006d1 91a0 02ab 	LDS  R26,_KELINTADIENIO_PERZIURA
0006d3 30a1      	CPI  R26,LOW(0x1)
0006d4 f439      	BRNE _0xDA
                 ; 0000 0294       DB_LAIKO_RODYMAS = 0;
0006d5 e0e0      	LDI  R30,LOW(0)
0006d6 93e0 02a0 	STS  _DB_LAIKO_RODYMAS,R30
                 ; 0000 0295       REDAGAVIMAS = 0;
0006d8 940e 1613 	CALL SUBOPT_0x8
                 ; 0000 0296       EILUTES_SKAICIUS = 0;}
0006da 93e0 0297 	STS  _EILUTES_SKAICIUS,R30
                 ; 0000 0297 
                 ; 0000 0298       if((KELINTADIENIO_PERZIURA==1)&&
                 _0xDA:
                 ; 0000 0299       (KELINTADIENIO_REDAGAVIMAS==0)&&
                 ; 0000 029A       ((MYGTUKAS_1==1)||(MYGTUKAS_3==1)||
                 ; 0000 029B       (MYGTUKAS_4==1)||(MYGTUKAS_5==1)||(MYGTUKAS_7==1))){
0006dc 91a0 02ab 	LDS  R26,_KELINTADIENIO_PERZIURA
0006de 30a1      	CPI  R26,LOW(0x1)
0006df f4c9      	BRNE _0xDC
0006e0 91a0 02ad 	LDS  R26,_KELINTADIENIO_REDAGAVIMAS
0006e2 30a0      	CPI  R26,LOW(0x0)
0006e3 f4a9      	BRNE _0xDC
0006e4 91a0 0270 	LDS  R26,_MYGTUKAS_1
0006e6 30a1      	CPI  R26,LOW(0x1)
0006e7 f081      	BREQ _0xDD
0006e8 91a0 0272 	LDS  R26,_MYGTUKAS_3
0006ea 30a1      	CPI  R26,LOW(0x1)
0006eb f061      	BREQ _0xDD
0006ec 91a0 0273 	LDS  R26,_MYGTUKAS_4
0006ee 30a1      	CPI  R26,LOW(0x1)
0006ef f041      	BREQ _0xDD
0006f0 91a0 0274 	LDS  R26,_MYGTUKAS_5
0006f2 30a1      	CPI  R26,LOW(0x1)
0006f3 f021      	BREQ _0xDD
0006f4 91a0 0276 	LDS  R26,_MYGTUKAS_7
0006f6 30a1      	CPI  R26,LOW(0x1)
0006f7 f409      	BRNE _0xDC
                 _0xDD:
0006f8 c001      	RJMP _0xDF
                 _0xDC:
0006f9 c002      	RJMP _0xDB
                 _0xDF:
                 ; 0000 029C       KELINTADIENIO_PERZIURA = 0;
0006fa 940e 1627 	CALL SUBOPT_0xA
                 ; 0000 029D       KELINTADIENIO_REDAGAVIMAS = 0;}
                 ; 0000 029E 
                 ; 0000 029F       if((KELINTADIENIO_PERZIURA==1)&&(MYGTUKAS_6==1)&&
                 _0xDB:
                 ; 0000 02A0       (KELINTADIENIO_REDAGAVIMAS==0)){
0006fc 91a0 02ab 	LDS  R26,_KELINTADIENIO_PERZIURA
0006fe 30a1      	CPI  R26,LOW(0x1)
0006ff f441      	BRNE _0xE1
000700 91a0 0275 	LDS  R26,_MYGTUKAS_6
000702 30a1      	CPI  R26,LOW(0x1)
000703 f421      	BRNE _0xE1
000704 91a0 02ad 	LDS  R26,_KELINTADIENIO_REDAGAVIMAS
000706 30a0      	CPI  R26,LOW(0x0)
000707 f009      	BREQ _0xE2
                 _0xE1:
000708 c006      	RJMP _0xE0
                 _0xE2:
                 ; 0000 02A1       KELINTADIENIO_REDAGAVIMAS = 1;
000709 e0e1      	LDI  R30,LOW(1)
00070a 93e0 02ad 	STS  _KELINTADIENIO_REDAGAVIMAS,R30
                 ; 0000 02A2       MYGTUKAS_6 = 0;}
00070c e0e0      	LDI  R30,LOW(0)
00070d 93e0 0275 	STS  _MYGTUKAS_6,R30
                 ; 0000 02A3 
                 ; 0000 02A4       if((KELINTADIENIO_PERZIURA==1)&&((MYGTUKAS_6==1)||
                 _0xE0:
                 ; 0000 02A5       (MYGTUKAS_3==1))&&(KELINTADIENIO_REDAGAVIMAS==1)){
00070f 91a0 02ab 	LDS  R26,_KELINTADIENIO_PERZIURA
000711 30a1      	CPI  R26,LOW(0x1)
000712 f461      	BRNE _0xE4
000713 91a0 0275 	LDS  R26,_MYGTUKAS_6
000715 30a1      	CPI  R26,LOW(0x1)
000716 f021      	BREQ _0xE5
000717 91a0 0272 	LDS  R26,_MYGTUKAS_3
000719 30a1      	CPI  R26,LOW(0x1)
00071a f421      	BRNE _0xE4
                 _0xE5:
00071b 91a0 02ad 	LDS  R26,_KELINTADIENIO_REDAGAVIMAS
00071d 30a1      	CPI  R26,LOW(0x1)
00071e f009      	BREQ _0xE7
                 _0xE4:
00071f c005      	RJMP _0xE3
                 _0xE7:
                 ; 0000 02A6       KELINTADIENIO_REDAGAVIMAS = 0;
000720 e0e0      	LDI  R30,LOW(0)
000721 93e0 02ad 	STS  _KELINTADIENIO_REDAGAVIMAS,R30
                 ; 0000 02A7       MYGTUKAS_6 = 0;}
000723 93e0 0275 	STS  _MYGTUKAS_6,R30
                 ; 0000 02A8 
                 ; 0000 02A9       if((desimtys_valandos==0)&&(valandos==0)&&
                 _0xE3:
                 ; 0000 02AA       (desimtys_minutes==0)&&(minutes==0)&&(sekundes==0)&&
                 ; 0000 02AB       (LAIKRODIS==1)){
000725 91a0 0285 	LDS  R26,_desimtys_valandos
000727 30a0      	CPI  R26,LOW(0x0)
000728 f4a1      	BRNE _0xE9
000729 91a0 0284 	LDS  R26,_valandos
00072b 30a0      	CPI  R26,LOW(0x0)
00072c f481      	BRNE _0xE9
00072d 91a0 0283 	LDS  R26,_desimtys_minutes
00072f 30a0      	CPI  R26,LOW(0x0)
000730 f461      	BRNE _0xE9
000731 91a0 0282 	LDS  R26,_minutes
000733 30a0      	CPI  R26,LOW(0x0)
000734 f441      	BRNE _0xE9
000735 91a0 0281 	LDS  R26,_sekundes
000737 30a0      	CPI  R26,LOW(0x0)
000738 f421      	BRNE _0xE9
000739 91a0 0280 	LDS  R26,_LAIKRODIS
00073b 30a1      	CPI  R26,LOW(0x1)
00073c f009      	BREQ _0xEA
                 _0xE9:
00073d c005      	RJMP _0xE8
                 _0xEA:
                 ; 0000 02AC       KELINTADIENIS = KELINTADIENIS + 1;}
00073e 91e0 02ac 	LDS  R30,_KELINTADIENIS
000740 5fef      	SUBI R30,-LOW(1)
000741 93e0 02ac 	STS  _KELINTADIENIS,R30
                 ; 0000 02AD 
                 ; 0000 02AE       if((KELINTADIENIO_REDAGAVIMAS==1)&&(MYGTUKAS_1==1)){
                 _0xE8:
000743 91a0 02ad 	LDS  R26,_KELINTADIENIO_REDAGAVIMAS
000745 30a1      	CPI  R26,LOW(0x1)
000746 f421      	BRNE _0xEC
000747 91a0 0270 	LDS  R26,_MYGTUKAS_1
000749 30a1      	CPI  R26,LOW(0x1)
00074a f009      	BREQ _0xED
                 _0xEC:
00074b c005      	RJMP _0xEB
                 _0xED:
                 ; 0000 02AF       KELINTADIENIS = KELINTADIENIS + 1;}
00074c 91e0 02ac 	LDS  R30,_KELINTADIENIS
00074e 5fef      	SUBI R30,-LOW(1)
00074f 93e0 02ac 	STS  _KELINTADIENIS,R30
                 ; 0000 02B0 
                 ; 0000 02B1       if((KELINTADIENIO_REDAGAVIMAS==1)&&(MYGTUKAS_5==1)){
                 _0xEB:
000751 91a0 02ad 	LDS  R26,_KELINTADIENIO_REDAGAVIMAS
000753 30a1      	CPI  R26,LOW(0x1)
000754 f421      	BRNE _0xEF
000755 91a0 0274 	LDS  R26,_MYGTUKAS_5
000757 30a1      	CPI  R26,LOW(0x1)
000758 f009      	BREQ _0xF0
                 _0xEF:
000759 c006      	RJMP _0xEE
                 _0xF0:
                 ; 0000 02B2       KELINTADIENIS = KELINTADIENIS - 1;}
00075a 91e0 02ac 	LDS  R30,_KELINTADIENIS
00075c e0f0      	LDI  R31,0
00075d 9731      	SBIW R30,1
00075e 93e0 02ac 	STS  _KELINTADIENIS,R30
                 ; 0000 02B3 
                 ; 0000 02B4       if(KELINTADIENIS==0){
                 _0xEE:
000760 91e0 02ac 	LDS  R30,_KELINTADIENIS
000762 30e0      	CPI  R30,0
000763 f419      	BRNE _0xF1
                 ; 0000 02B5       KELINTADIENIS = 7;}
000764 e0e7      	LDI  R30,LOW(7)
000765 93e0 02ac 	STS  _KELINTADIENIS,R30
                 ; 0000 02B6 
                 ; 0000 02B7       if(KELINTADIENIS==8){
                 _0xF1:
000767 91a0 02ac 	LDS  R26,_KELINTADIENIS
000769 30a8      	CPI  R26,LOW(0x8)
00076a f419      	BRNE _0xF2
                 ; 0000 02B8       KELINTADIENIS = 1;}
00076b e0e1      	LDI  R30,LOW(1)
00076c 93e0 02ac 	STS  _KELINTADIENIS,R30
                 ; 0000 02B9 
                 ; 0000 02BA       if((KELINTADIENIO_PERZIURA==1)&&(BATERIJOS_BUSENA==0)){
                 _0xF2:
00076e 91a0 02ab 	LDS  R26,_KELINTADIENIO_PERZIURA
000770 30a1      	CPI  R26,LOW(0x1)
000771 f421      	BRNE _0xF4
000772 91a0 026e 	LDS  R26,_BATERIJOS_BUSENA
000774 30a0      	CPI  R26,LOW(0x0)
000775 f009      	BREQ _0xF5
                 _0xF4:
000776 c046      	RJMP _0xF3
                 _0xF5:
                 ; 0000 02BB       if(OSC==0){
000777 91e0 026f 	LDS  R30,_OSC
000779 30e0      	CPI  R30,0
00077a f421      	BRNE _0xF6
                 ; 0000 02BC       a = KELINTADIENIS;}
00077b 91e0 02ac 	LDS  R30,_KELINTADIENIS
00077d 93e0 0286 	STS  _a,R30
                 ; 0000 02BD       if(OSC==4){
                 _0xF6:
00077f 91a0 026f 	LDS  R26,_OSC
000781 30a4      	CPI  R26,LOW(0x4)
000782 f419      	BRNE _0xF7
                 ; 0000 02BE       a = 32;}
000783 e2e0      	LDI  R30,LOW(32)
000784 93e0 0286 	STS  _a,R30
                 ; 0000 02BF       if(OSC==8){
                 _0xF7:
000786 91a0 026f 	LDS  R26,_OSC
000788 30a8      	CPI  R26,LOW(0x8)
000789 f419      	BRNE _0xF8
                 ; 0000 02C0       a = 14;}
00078a e0ee      	LDI  R30,LOW(14)
00078b 93e0 0286 	STS  _a,R30
                 ; 0000 02C1       if(OSC==12){
                 _0xF8:
00078d 91a0 026f 	LDS  R26,_OSC
00078f 30ac      	CPI  R26,LOW(0xC)
000790 f419      	BRNE _0xF9
                 ; 0000 02C2       a = 20;}
000791 e1e4      	LDI  R30,LOW(20)
000792 93e0 0286 	STS  _a,R30
                 ; 0000 02C3       if(OSC==16){
                 _0xF9:
000794 91a0 026f 	LDS  R26,_OSC
000796 31a0      	CPI  R26,LOW(0x10)
000797 f419      	BRNE _0xFA
                 ; 0000 02C4       a = 15;}
000798 e0ef      	LDI  R30,LOW(15)
000799 93e0 0286 	STS  _a,R30
                 ; 0000 02C5       if(OSC==20){
                 _0xFA:
00079b 91a0 026f 	LDS  R26,_OSC
00079d 31a4      	CPI  R26,LOW(0x14)
00079e f419      	BRNE _0xFB
                 ; 0000 02C6       a = 34;}
00079f e2e2      	LDI  R30,LOW(34)
0007a0 93e0 0286 	STS  _a,R30
                 ; 0000 02C7       if(OSC==24){
                 _0xFB:
0007a2 91a0 026f 	LDS  R26,_OSC
0007a4 31a8      	CPI  R26,LOW(0x18)
0007a5 f419      	BRNE _0xFC
                 ; 0000 02C8       a = 20;}
0007a6 e1e4      	LDI  R30,LOW(20)
0007a7 93e0 0286 	STS  _a,R30
                 ; 0000 02C9       if(OSC==28){
                 _0xFC:
0007a9 91a0 026f 	LDS  R26,_OSC
0007ab 31ac      	CPI  R26,LOW(0x1C)
0007ac f419      	BRNE _0xFD
                 ; 0000 02CA       a = 5;}
0007ad e0e5      	LDI  R30,LOW(5)
0007ae 93e0 0286 	STS  _a,R30
                 ; 0000 02CB       MYGTUKAS_1 = 0;
                 _0xFD:
0007b0 e0e0      	LDI  R30,LOW(0)
0007b1 93e0 0270 	STS  _MYGTUKAS_1,R30
                 ; 0000 02CC       MYGTUKAS_2 = 0;
0007b3 93e0 0271 	STS  _MYGTUKAS_2,R30
                 ; 0000 02CD       MYGTUKAS_3 = 0;
0007b5 93e0 0272 	STS  _MYGTUKAS_3,R30
                 ; 0000 02CE       MYGTUKAS_4 = 0;
0007b7 93e0 0273 	STS  _MYGTUKAS_4,R30
                 ; 0000 02CF       MYGTUKAS_5 = 0;
0007b9 93e0 0274 	STS  _MYGTUKAS_5,R30
                 ; 0000 02D0       MYGTUKAS_6 = 0;}
0007bb 93e0 0275 	STS  _MYGTUKAS_6,R30
                 ; 0000 02D1 
                 ; 0000 02D2       if((KELINTADIENIO_REDAGAVIMAS==1)&&(BLYKCIOTI==1)){
                 _0xF3:
0007bd 91a0 02ad 	LDS  R26,_KELINTADIENIO_REDAGAVIMAS
0007bf 30a1      	CPI  R26,LOW(0x1)
0007c0 f421      	BRNE _0xFF
0007c1 91a0 0299 	LDS  R26,_BLYKCIOTI
0007c3 30a1      	CPI  R26,LOW(0x1)
0007c4 f009      	BREQ _0x100
                 _0xFF:
0007c5 c003      	RJMP _0xFE
                 _0x100:
                 ; 0000 02D3       a = 33;}
0007c6 e2e1      	LDI  R30,LOW(33)
0007c7 93e0 0286 	STS  _a,R30
                 ; 0000 02D4 
                 ; 0000 02D5 
                 ; 0000 02D6 
                 ; 0000 02D7       //TIKRAS LAIKAS:
                 ; 0000 02D8       //redaguojant:
                 ; 0000 02D9 
                 ; 0000 02DA       if((desimtys_valandos<0)&&(valandos<4)){
                 _0xFE:
0007c9 91a0 0285 	LDS  R26,_desimtys_valandos
0007cb 30a0      	CPI  R26,0
0007cc f424      	BRGE _0x102
0007cd 91a0 0284 	LDS  R26,_valandos
0007cf 30a4      	CPI  R26,LOW(0x4)
0007d0 f00c      	BRLT _0x103
                 _0x102:
0007d1 c003      	RJMP _0x101
                 _0x103:
                 ; 0000 02DB       desimtys_valandos = 2;}
0007d2 e0e2      	LDI  R30,LOW(2)
0007d3 93e0 0285 	STS  _desimtys_valandos,R30
                 ; 0000 02DC 
                 ; 0000 02DD       if((desimtys_valandos<0)&&(valandos>=4)){
                 _0x101:
0007d5 91a0 0285 	LDS  R26,_desimtys_valandos
0007d7 30a0      	CPI  R26,0
0007d8 f424      	BRGE _0x105
0007d9 91a0 0284 	LDS  R26,_valandos
0007db 30a4      	CPI  R26,LOW(0x4)
0007dc f40c      	BRGE _0x106
                 _0x105:
0007dd c003      	RJMP _0x104
                 _0x106:
                 ; 0000 02DE       desimtys_valandos = 1;}
0007de e0e1      	LDI  R30,LOW(1)
0007df 93e0 0285 	STS  _desimtys_valandos,R30
                 ; 0000 02DF 
                 ; 0000 02E0       if(valandos<0){
                 _0x104:
0007e1 91a0 0284 	LDS  R26,_valandos
0007e3 30a0      	CPI  R26,0
0007e4 f41c      	BRGE _0x107
                 ; 0000 02E1       valandos = 9;}
0007e5 e0e9      	LDI  R30,LOW(9)
0007e6 93e0 0284 	STS  _valandos,R30
                 ; 0000 02E2       if(desimtys_minutes<0){
                 _0x107:
0007e8 91a0 0283 	LDS  R26,_desimtys_minutes
0007ea 30a0      	CPI  R26,0
0007eb f41c      	BRGE _0x108
                 ; 0000 02E3       desimtys_minutes = 5;}
0007ec e0e5      	LDI  R30,LOW(5)
0007ed 93e0 0283 	STS  _desimtys_minutes,R30
                 ; 0000 02E4       if(minutes<0){
                 _0x108:
0007ef 91a0 0282 	LDS  R26,_minutes
0007f1 30a0      	CPI  R26,0
0007f2 f41c      	BRGE _0x109
                 ; 0000 02E5       minutes = 9;}
0007f3 e0e9      	LDI  R30,LOW(9)
0007f4 93e0 0282 	STS  _minutes,R30
                 ; 0000 02E6 
                 ; 0000 02E7       //laiko skaiciavimas:
                 ; 0000 02E8       if((LAIKRODIS==1)&&(REDAGAVIMAS==0)){
                 _0x109:
0007f6 91a0 0280 	LDS  R26,_LAIKRODIS
0007f8 30a1      	CPI  R26,LOW(0x1)
0007f9 f421      	BRNE _0x10B
0007fa 91a0 0295 	LDS  R26,_REDAGAVIMAS
0007fc 30a0      	CPI  R26,LOW(0x0)
0007fd f009      	BREQ _0x10C
                 _0x10B:
0007fe c005      	RJMP _0x10A
                 _0x10C:
                 ; 0000 02E9       sekundes = sekundes + 2;}
0007ff 91e0 0281 	LDS  R30,_sekundes
000801 5fee      	SUBI R30,-LOW(2)
000802 93e0 0281 	STS  _sekundes,R30
                 ; 0000 02EA 
                 ; 0000 02EB       if((sekundes==60)&&(REDAGAVIMAS==0)){
                 _0x10A:
000804 91a0 0281 	LDS  R26,_sekundes
000806 33ac      	CPI  R26,LOW(0x3C)
000807 f421      	BRNE _0x10E
000808 91a0 0295 	LDS  R26,_REDAGAVIMAS
00080a 30a0      	CPI  R26,LOW(0x0)
00080b f009      	BREQ _0x10F
                 _0x10E:
00080c c008      	RJMP _0x10D
                 _0x10F:
                 ; 0000 02EC       minutes = minutes + 1;
00080d 91e0 0282 	LDS  R30,_minutes
00080f 5fef      	SUBI R30,-LOW(1)
000810 93e0 0282 	STS  _minutes,R30
                 ; 0000 02ED       sekundes = 0;}
000812 e0e0      	LDI  R30,LOW(0)
000813 93e0 0281 	STS  _sekundes,R30
                 ; 0000 02EE 
                 ; 0000 02EF       if((minutes==10)&&(REDAGAVIMAS==0)){
                 _0x10D:
000815 91a0 0282 	LDS  R26,_minutes
000817 30aa      	CPI  R26,LOW(0xA)
000818 f421      	BRNE _0x111
000819 91a0 0295 	LDS  R26,_REDAGAVIMAS
00081b 30a0      	CPI  R26,LOW(0x0)
00081c f009      	BREQ _0x112
                 _0x111:
00081d c008      	RJMP _0x110
                 _0x112:
                 ; 0000 02F0       desimtys_minutes = desimtys_minutes + 1;
00081e 91e0 0283 	LDS  R30,_desimtys_minutes
000820 5fef      	SUBI R30,-LOW(1)
000821 93e0 0283 	STS  _desimtys_minutes,R30
                 ; 0000 02F1       minutes = 0;}
000823 e0e0      	LDI  R30,LOW(0)
000824 93e0 0282 	STS  _minutes,R30
                 ; 0000 02F2 
                 ; 0000 02F3       if((desimtys_minutes==6)&&(REDAGAVIMAS==0)){
                 _0x110:
000826 91a0 0283 	LDS  R26,_desimtys_minutes
000828 30a6      	CPI  R26,LOW(0x6)
000829 f421      	BRNE _0x114
00082a 91a0 0295 	LDS  R26,_REDAGAVIMAS
00082c 30a0      	CPI  R26,LOW(0x0)
00082d f009      	BREQ _0x115
                 _0x114:
00082e c008      	RJMP _0x113
                 _0x115:
                 ; 0000 02F4       valandos = valandos + 1;
00082f 91e0 0284 	LDS  R30,_valandos
000831 5fef      	SUBI R30,-LOW(1)
000832 93e0 0284 	STS  _valandos,R30
                 ; 0000 02F5       desimtys_minutes = 0;}
000834 e0e0      	LDI  R30,LOW(0)
000835 93e0 0283 	STS  _desimtys_minutes,R30
                 ; 0000 02F6 
                 ; 0000 02F7       if((valandos==10)&&(REDAGAVIMAS==0)){
                 _0x113:
000837 91a0 0284 	LDS  R26,_valandos
000839 30aa      	CPI  R26,LOW(0xA)
00083a f421      	BRNE _0x117
00083b 91a0 0295 	LDS  R26,_REDAGAVIMAS
00083d 30a0      	CPI  R26,LOW(0x0)
00083e f009      	BREQ _0x118
                 _0x117:
00083f c008      	RJMP _0x116
                 _0x118:
                 ; 0000 02F8       desimtys_valandos = desimtys_valandos + 1;
000840 91e0 0285 	LDS  R30,_desimtys_valandos
000842 5fef      	SUBI R30,-LOW(1)
000843 93e0 0285 	STS  _desimtys_valandos,R30
                 ; 0000 02F9       valandos = 0;}
000845 e0e0      	LDI  R30,LOW(0)
000846 93e0 0284 	STS  _valandos,R30
                 ; 0000 02FA 
                 ; 0000 02FB       if((valandos>=4)&&(desimtys_valandos>=2)&&
                 _0x116:
                 ; 0000 02FC       (REDAGAVIMAS==0)){
000848 91a0 0284 	LDS  R26,_valandos
00084a 30a4      	CPI  R26,LOW(0x4)
00084b f044      	BRLT _0x11A
00084c 91a0 0285 	LDS  R26,_desimtys_valandos
00084e 30a2      	CPI  R26,LOW(0x2)
00084f f024      	BRLT _0x11A
000850 91a0 0295 	LDS  R26,_REDAGAVIMAS
000852 30a0      	CPI  R26,LOW(0x0)
000853 f009      	BREQ _0x11B
                 _0x11A:
000854 c005      	RJMP _0x119
                 _0x11B:
                 ; 0000 02FD       valandos = 0;
000855 e0e0      	LDI  R30,LOW(0)
000856 93e0 0284 	STS  _valandos,R30
                 ; 0000 02FE       desimtys_valandos = 0;}
000858 93e0 0285 	STS  _desimtys_valandos,R30
                 ; 0000 02FF 
                 ; 0000 0300       //EILUTES SKAICIAUS NUSTATYMAS:
                 ; 0000 0301       if(REDAGAVIMAS==0){
                 _0x119:
00085a 91e0 0295 	LDS  R30,_REDAGAVIMAS
00085c 30e0      	CPI  R30,0
00085d f011      	BREQ PC+3
00085e 940c 08a7 	JMP _0x11C
                 ; 0000 0302       if(MYGTUKAS_1==1){
000860 91a0 0270 	LDS  R26,_MYGTUKAS_1
000862 30a1      	CPI  R26,LOW(0x1)
000863 f4d1      	BRNE _0x11D
                 ; 0000 0303       if((EILUTES_SKAICIUS!=20)&&(g==0)){
000864 91a0 0297 	LDS  R26,_EILUTES_SKAICIUS
000866 31a4      	CPI  R26,LOW(0x14)
000867 f021      	BREQ _0x11F
000868 91a0 0293 	LDS  R26,_g
00086a 30a0      	CPI  R26,LOW(0x0)
00086b f009      	BREQ _0x120
                 _0x11F:
00086c c005      	RJMP _0x11E
                 _0x120:
                 ; 0000 0304       EILUTES_SKAICIUS = EILUTES_SKAICIUS + 1;
00086d 91e0 0297 	LDS  R30,_EILUTES_SKAICIUS
00086f 5fef      	SUBI R30,-LOW(1)
000870 940e 162d 	CALL SUBOPT_0xB
                 ; 0000 0305       g = 1;}
                 ; 0000 0306       if((EILUTES_SKAICIUS==20)&&(g==0)){
                 _0x11E:
000872 91a0 0297 	LDS  R26,_EILUTES_SKAICIUS
000874 31a4      	CPI  R26,LOW(0x14)
000875 f421      	BRNE _0x122
000876 91a0 0293 	LDS  R26,_g
000878 30a0      	CPI  R26,LOW(0x0)
000879 f009      	BREQ _0x123
                 _0x122:
00087a c003      	RJMP _0x121
                 _0x123:
                 ; 0000 0307       EILUTES_SKAICIUS = 1;
00087b e0e1      	LDI  R30,LOW(1)
00087c 940e 162d 	CALL SUBOPT_0xB
                 ; 0000 0308       g = 1;}}
                 _0x121:
                 ; 0000 0309       if(MYGTUKAS_5==1){
                 _0x11D:
00087e 91a0 0274 	LDS  R26,_MYGTUKAS_5
000880 30a1      	CPI  R26,LOW(0x1)
000881 f4d9      	BRNE _0x124
                 ; 0000 030A       if((EILUTES_SKAICIUS<=1)&&(g==0)){
000882 91a0 0297 	LDS  R26,_EILUTES_SKAICIUS
000884 30a2      	CPI  R26,LOW(0x2)
000885 f424      	BRGE _0x126
000886 91a0 0293 	LDS  R26,_g
000888 30a0      	CPI  R26,LOW(0x0)
000889 f009      	BREQ _0x127
                 _0x126:
00088a c003      	RJMP _0x125
                 _0x127:
                 ; 0000 030B       EILUTES_SKAICIUS = 20;
00088b e1e4      	LDI  R30,LOW(20)
00088c 940e 162d 	CALL SUBOPT_0xB
                 ; 0000 030C       g = 1;}
                 ; 0000 030D       if((EILUTES_SKAICIUS>=2)&&(g==0)){
                 _0x125:
00088e 91a0 0297 	LDS  R26,_EILUTES_SKAICIUS
000890 30a2      	CPI  R26,LOW(0x2)
000891 f024      	BRLT _0x129
000892 91a0 0293 	LDS  R26,_g
000894 30a0      	CPI  R26,LOW(0x0)
000895 f009      	BREQ _0x12A
                 _0x129:
000896 c006      	RJMP _0x128
                 _0x12A:
                 ; 0000 030E       EILUTES_SKAICIUS = EILUTES_SKAICIUS - 1;
000897 91e0 0297 	LDS  R30,_EILUTES_SKAICIUS
000899 940e 160e 	CALL SUBOPT_0x7
00089b 940e 162d 	CALL SUBOPT_0xB
                 ; 0000 030F       g = 1;}}
                 _0x128:
                 ; 0000 0310       g = 0;
                 _0x124:
00089d e0e0      	LDI  R30,LOW(0)
00089e 93e0 0293 	STS  _g,R30
                 ; 0000 0311       if(MYGTUKAS_7){
0008a0 91e0 0276 	LDS  R30,_MYGTUKAS_7
0008a2 30e0      	CPI  R30,0
0008a3 f019      	BREQ _0x12B
                 ; 0000 0312       EILUTES_SKAICIUS = 0;}}
0008a4 e0e0      	LDI  R30,LOW(0)
0008a5 93e0 0297 	STS  _EILUTES_SKAICIUS,R30
                 _0x12B:
                 ; 0000 0313       //REDAGAVIMAS:
                 ; 0000 0314 
                 ; 0000 0315       if(MYGTUKAS_6==1){
                 _0x11C:
0008a7 91a0 0275 	LDS  R26,_MYGTUKAS_6
0008a9 30a1      	CPI  R26,LOW(0x1)
0008aa f419      	BRNE _0x12C
                 ; 0000 0316       REDAGAVIMAS = 1;}
0008ab e0e1      	LDI  R30,LOW(1)
0008ac 93e0 0295 	STS  _REDAGAVIMAS,R30
                 ; 0000 0317       if(MYGTUKAS_2==1){
                 _0x12C:
0008ae 91a0 0271 	LDS  R26,_MYGTUKAS_2
0008b0 30a1      	CPI  R26,LOW(0x1)
0008b1 f431      	BRNE _0x12D
                 ; 0000 0318       REDAG_SK_NR = REDAG_SK_NR - 1;}
0008b2 91e0 0296 	LDS  R30,_REDAG_SK_NR
0008b4 940e 160e 	CALL SUBOPT_0x7
0008b6 93e0 0296 	STS  _REDAG_SK_NR,R30
                 ; 0000 0319       if(MYGTUKAS_4==1){
                 _0x12D:
0008b8 91a0 0273 	LDS  R26,_MYGTUKAS_4
0008ba 30a1      	CPI  R26,LOW(0x1)
0008bb f429      	BRNE _0x12E
                 ; 0000 031A       REDAG_SK_NR = REDAG_SK_NR + 1;}
0008bc 91e0 0296 	LDS  R30,_REDAG_SK_NR
0008be 5fef      	SUBI R30,-LOW(1)
0008bf 93e0 0296 	STS  _REDAG_SK_NR,R30
                 ; 0000 031B 
                 ; 0000 031C       if(REDAG_SK_NR==-1){
                 _0x12E:
0008c1 91a0 0296 	LDS  R26,_REDAG_SK_NR
0008c3 3faf      	CPI  R26,LOW(0xFF)
0008c4 f419      	BRNE _0x12F
                 ; 0000 031D       REDAG_SK_NR = 3;}
0008c5 e0e3      	LDI  R30,LOW(3)
0008c6 93e0 0296 	STS  _REDAG_SK_NR,R30
                 ; 0000 031E 
                 ; 0000 031F       if(REDAG_SK_NR==4){
                 _0x12F:
0008c8 91a0 0296 	LDS  R26,_REDAG_SK_NR
0008ca 30a4      	CPI  R26,LOW(0x4)
0008cb f419      	BRNE _0x130
                 ; 0000 0320       REDAG_SK_NR = 0;}
0008cc e0e0      	LDI  R30,LOW(0)
0008cd 93e0 0296 	STS  _REDAG_SK_NR,R30
                 ; 0000 0321 
                 ; 0000 0322       if(MYGTUKAS_3==1){
                 _0x130:
0008cf 91a0 0272 	LDS  R26,_MYGTUKAS_3
0008d1 30a1      	CPI  R26,LOW(0x1)
0008d2 f421      	BRNE _0x131
                 ; 0000 0323       REDAGAVIMAS = 0;
0008d3 940e 1613 	CALL SUBOPT_0x8
                 ; 0000 0324       REDAG_SK_NR = 0;}
0008d5 93e0 0296 	STS  _REDAG_SK_NR,R30
                 ; 0000 0325 
                 ; 0000 0326       //TIKROJO LAIKO REDAGAVIMAS:
                 ; 0000 0327       if((EILUTES_SKAICIUS==0)&&(REDAGAVIMAS==1)){
                 _0x131:
0008d7 91a0 0297 	LDS  R26,_EILUTES_SKAICIUS
0008d9 30a0      	CPI  R26,LOW(0x0)
0008da f421      	BRNE _0x133
0008db 91a0 0295 	LDS  R26,_REDAGAVIMAS
0008dd 30a1      	CPI  R26,LOW(0x1)
0008de f009      	BREQ _0x134
                 _0x133:
0008df c074      	RJMP _0x132
                 _0x134:
                 ; 0000 0328       if((REDAG_SK_NR==0)&&(MYGTUKAS_1==1)){
0008e0 91a0 0296 	LDS  R26,_REDAG_SK_NR
0008e2 30a0      	CPI  R26,LOW(0x0)
0008e3 f421      	BRNE _0x136
0008e4 91a0 0270 	LDS  R26,_MYGTUKAS_1
0008e6 30a1      	CPI  R26,LOW(0x1)
0008e7 f009      	BREQ _0x137
                 _0x136:
0008e8 c005      	RJMP _0x135
                 _0x137:
                 ; 0000 0329       desimtys_valandos = desimtys_valandos + 1;}
0008e9 91e0 0285 	LDS  R30,_desimtys_valandos
0008eb 5fef      	SUBI R30,-LOW(1)
0008ec 93e0 0285 	STS  _desimtys_valandos,R30
                 ; 0000 032A       if((REDAG_SK_NR==0)&&(MYGTUKAS_5==1)){
                 _0x135:
0008ee 91a0 0296 	LDS  R26,_REDAG_SK_NR
0008f0 30a0      	CPI  R26,LOW(0x0)
0008f1 f421      	BRNE _0x139
0008f2 91a0 0274 	LDS  R26,_MYGTUKAS_5
0008f4 30a1      	CPI  R26,LOW(0x1)
0008f5 f009      	BREQ _0x13A
                 _0x139:
0008f6 c006      	RJMP _0x138
                 _0x13A:
                 ; 0000 032B       desimtys_valandos = desimtys_valandos - 1;}
0008f7 91e0 0285 	LDS  R30,_desimtys_valandos
0008f9 940e 160e 	CALL SUBOPT_0x7
0008fb 93e0 0285 	STS  _desimtys_valandos,R30
                 ; 0000 032C       if((REDAG_SK_NR==1)&&(MYGTUKAS_1==1)){
                 _0x138:
0008fd 91a0 0296 	LDS  R26,_REDAG_SK_NR
0008ff 30a1      	CPI  R26,LOW(0x1)
000900 f421      	BRNE _0x13C
000901 91a0 0270 	LDS  R26,_MYGTUKAS_1
000903 30a1      	CPI  R26,LOW(0x1)
000904 f009      	BREQ _0x13D
                 _0x13C:
000905 c005      	RJMP _0x13B
                 _0x13D:
                 ; 0000 032D       valandos = valandos + 1;}
000906 91e0 0284 	LDS  R30,_valandos
000908 5fef      	SUBI R30,-LOW(1)
000909 93e0 0284 	STS  _valandos,R30
                 ; 0000 032E       if((REDAG_SK_NR==1)&&(MYGTUKAS_5==1)){
                 _0x13B:
00090b 91a0 0296 	LDS  R26,_REDAG_SK_NR
00090d 30a1      	CPI  R26,LOW(0x1)
00090e f421      	BRNE _0x13F
00090f 91a0 0274 	LDS  R26,_MYGTUKAS_5
000911 30a1      	CPI  R26,LOW(0x1)
000912 f009      	BREQ _0x140
                 _0x13F:
000913 c006      	RJMP _0x13E
                 _0x140:
                 ; 0000 032F       valandos = valandos - 1;}
000914 91e0 0284 	LDS  R30,_valandos
000916 940e 160e 	CALL SUBOPT_0x7
000918 93e0 0284 	STS  _valandos,R30
                 ; 0000 0330       if((REDAG_SK_NR==2)&&(MYGTUKAS_1==1)){
                 _0x13E:
00091a 91a0 0296 	LDS  R26,_REDAG_SK_NR
00091c 30a2      	CPI  R26,LOW(0x2)
00091d f421      	BRNE _0x142
00091e 91a0 0270 	LDS  R26,_MYGTUKAS_1
000920 30a1      	CPI  R26,LOW(0x1)
000921 f009      	BREQ _0x143
                 _0x142:
000922 c005      	RJMP _0x141
                 _0x143:
                 ; 0000 0331       desimtys_minutes = desimtys_minutes + 1;}
000923 91e0 0283 	LDS  R30,_desimtys_minutes
000925 5fef      	SUBI R30,-LOW(1)
000926 93e0 0283 	STS  _desimtys_minutes,R30
                 ; 0000 0332       if((REDAG_SK_NR==2)&&(MYGTUKAS_5==1)){
                 _0x141:
000928 91a0 0296 	LDS  R26,_REDAG_SK_NR
00092a 30a2      	CPI  R26,LOW(0x2)
00092b f421      	BRNE _0x145
00092c 91a0 0274 	LDS  R26,_MYGTUKAS_5
00092e 30a1      	CPI  R26,LOW(0x1)
00092f f009      	BREQ _0x146
                 _0x145:
000930 c006      	RJMP _0x144
                 _0x146:
                 ; 0000 0333       desimtys_minutes = desimtys_minutes - 1;}
000931 91e0 0283 	LDS  R30,_desimtys_minutes
000933 940e 160e 	CALL SUBOPT_0x7
000935 93e0 0283 	STS  _desimtys_minutes,R30
                 ; 0000 0334       if((REDAG_SK_NR==3)&&(MYGTUKAS_1==1)){
                 _0x144:
000937 91a0 0296 	LDS  R26,_REDAG_SK_NR
000939 30a3      	CPI  R26,LOW(0x3)
00093a f421      	BRNE _0x148
00093b 91a0 0270 	LDS  R26,_MYGTUKAS_1
00093d 30a1      	CPI  R26,LOW(0x1)
00093e f009      	BREQ _0x149
                 _0x148:
00093f c005      	RJMP _0x147
                 _0x149:
                 ; 0000 0335       minutes = minutes + 1;}
000940 91e0 0282 	LDS  R30,_minutes
000942 5fef      	SUBI R30,-LOW(1)
000943 93e0 0282 	STS  _minutes,R30
                 ; 0000 0336       if((REDAG_SK_NR==3)&&(MYGTUKAS_5==1)){
                 _0x147:
000945 91a0 0296 	LDS  R26,_REDAG_SK_NR
000947 30a3      	CPI  R26,LOW(0x3)
000948 f421      	BRNE _0x14B
000949 91a0 0274 	LDS  R26,_MYGTUKAS_5
00094b 30a1      	CPI  R26,LOW(0x1)
00094c f009      	BREQ _0x14C
                 _0x14B:
00094d c006      	RJMP _0x14A
                 _0x14C:
                 ; 0000 0337       minutes = minutes - 1;}}
00094e 91e0 0282 	LDS  R30,_minutes
000950 940e 160e 	CALL SUBOPT_0x7
000952 93e0 0282 	STS  _minutes,R30
                 _0x14A:
                 ; 0000 0338       if(REDAGAVIMAS==1){
                 _0x132:
000954 91a0 0295 	LDS  R26,_REDAGAVIMAS
000956 30a1      	CPI  R26,LOW(0x1)
000957 f011      	BREQ PC+3
000958 940c 09a8 	JMP _0x14D
                 ; 0000 0339       if(minutes==10){
00095a 91a0 0282 	LDS  R26,_minutes
00095c 30aa      	CPI  R26,LOW(0xA)
00095d f419      	BRNE _0x14E
                 ; 0000 033A       minutes=0;}
00095e e0e0      	LDI  R30,LOW(0)
00095f 93e0 0282 	STS  _minutes,R30
                 ; 0000 033B       if(desimtys_minutes==6){
                 _0x14E:
000961 91a0 0283 	LDS  R26,_desimtys_minutes
000963 30a6      	CPI  R26,LOW(0x6)
000964 f419      	BRNE _0x14F
                 ; 0000 033C       desimtys_minutes = 0;}
000965 e0e0      	LDI  R30,LOW(0)
000966 93e0 0283 	STS  _desimtys_minutes,R30
                 ; 0000 033D       if(valandos==10){
                 _0x14F:
000968 91a0 0284 	LDS  R26,_valandos
00096a 30aa      	CPI  R26,LOW(0xA)
00096b f419      	BRNE _0x150
                 ; 0000 033E       valandos = 0;}
00096c e0e0      	LDI  R30,LOW(0)
00096d 93e0 0284 	STS  _valandos,R30
                 ; 0000 033F       if(desimtys_valandos==3){
                 _0x150:
00096f 91a0 0285 	LDS  R26,_desimtys_valandos
000971 30a3      	CPI  R26,LOW(0x3)
000972 f419      	BRNE _0x151
                 ; 0000 0340       desimtys_valandos = 0;}
000973 e0e0      	LDI  R30,LOW(0)
000974 93e0 0285 	STS  _desimtys_valandos,R30
                 ; 0000 0341       if((desimtys_valandos==2)&&(valandos>=4)){
                 _0x151:
000976 91a0 0285 	LDS  R26,_desimtys_valandos
000978 30a2      	CPI  R26,LOW(0x2)
000979 f421      	BRNE _0x153
00097a 91a0 0284 	LDS  R26,_valandos
00097c 30a4      	CPI  R26,LOW(0x4)
00097d f40c      	BRGE _0x154
                 _0x153:
00097e c003      	RJMP _0x152
                 _0x154:
                 ; 0000 0342       desimtys_valandos = 0;}
00097f e0e0      	LDI  R30,LOW(0)
000980 93e0 0285 	STS  _desimtys_valandos,R30
                 ; 0000 0343 
                 ; 0000 0344       if(minutes==-1){
                 _0x152:
000982 91a0 0282 	LDS  R26,_minutes
000984 3faf      	CPI  R26,LOW(0xFF)
000985 f419      	BRNE _0x155
                 ; 0000 0345       minutes = 9;}
000986 e0e9      	LDI  R30,LOW(9)
000987 93e0 0282 	STS  _minutes,R30
                 ; 0000 0346       if(desimtys_minutes==-1){
                 _0x155:
000989 91a0 0283 	LDS  R26,_desimtys_minutes
00098b 3faf      	CPI  R26,LOW(0xFF)
00098c f419      	BRNE _0x156
                 ; 0000 0347       desimtys_minutes = 5;}
00098d e0e5      	LDI  R30,LOW(5)
00098e 93e0 0283 	STS  _desimtys_minutes,R30
                 ; 0000 0348       if((valandos==-1)&&(desimtys_valandos<=1)){
                 _0x156:
000990 91a0 0284 	LDS  R26,_valandos
000992 3faf      	CPI  R26,LOW(0xFF)
000993 f421      	BRNE _0x158
000994 91a0 0285 	LDS  R26,_desimtys_valandos
000996 30a2      	CPI  R26,LOW(0x2)
000997 f00c      	BRLT _0x159
                 _0x158:
000998 c003      	RJMP _0x157
                 _0x159:
                 ; 0000 0349       valandos = 9;}
000999 e0e9      	LDI  R30,LOW(9)
00099a 93e0 0284 	STS  _valandos,R30
                 ; 0000 034A       if((valandos==-1)&&(desimtys_valandos>=2)){
                 _0x157:
00099c 91a0 0284 	LDS  R26,_valandos
00099e 3faf      	CPI  R26,LOW(0xFF)
00099f f421      	BRNE _0x15B
0009a0 91a0 0285 	LDS  R26,_desimtys_valandos
0009a2 30a2      	CPI  R26,LOW(0x2)
0009a3 f40c      	BRGE _0x15C
                 _0x15B:
0009a4 c003      	RJMP _0x15A
                 _0x15C:
                 ; 0000 034B       valandos = 3;}}
0009a5 e0e3      	LDI  R30,LOW(3)
0009a6 93e0 0284 	STS  _valandos,R30
                 _0x15A:
                 ; 0000 034C 
                 ; 0000 034D 
                 ; 0000 034E 
                 ; 0000 034F       //skambucio laiko redagavimas:
                 ; 0000 0350        if(EILUTES_SKAICIUS==0){
                 _0x14D:
0009a8 91e0 0297 	LDS  R30,_EILUTES_SKAICIUS
0009aa 30e0      	CPI  R30,0
0009ab f429      	BRNE _0x15D
                 ; 0000 0351       d = 0;
0009ac e0e0      	LDI  R30,LOW(0)
0009ad 93e0 0290 	STS  _d,R30
                 ; 0000 0352       e = 0;}
0009af 93e0 0291 	STS  _e,R30
                 ; 0000 0353 
                 ; 0000 0354 
                 ; 0000 0355       if(EILUTES_SKAICIUS!=0){
                 _0x15D:
0009b1 91e0 0297 	LDS  R30,_EILUTES_SKAICIUS
0009b3 30e0      	CPI  R30,0
0009b4 f0e1      	BREQ _0x15E
                 ; 0000 0356       d = EILUTES_SKAICIUS/10;
0009b5 91a0 0297 	LDS  R26,_EILUTES_SKAICIUS
0009b7 e0b0      	LDI  R27,0
0009b8 fda7      	SBRC R26,7
0009b9 efbf      	SER  R27
0009ba e0ea      	LDI  R30,LOW(10)
0009bb e0f0      	LDI  R31,HIGH(10)
0009bc 940e 16e0 	CALL __DIVW21
0009be 93e0 0290 	STS  _d,R30
                 ; 0000 0357       e = EILUTES_SKAICIUS - d*10;}
0009c0 91e0 0297 	LDS  R30,_EILUTES_SKAICIUS
0009c2 e0f0      	LDI  R31,0
0009c3 fde7      	SBRC R30,7
0009c4 efff      	SER  R31
0009c5 01bf      	MOVW R22,R30
0009c6 91a0 0290 	LDS  R26,_d
0009c8 e0ea      	LDI  R30,LOW(10)
0009c9 02ea      	MULS R30,R26
0009ca 01f0      	MOVW R30,R0
0009cb 01df      	MOVW R26,R30
0009cc 01fb      	MOVW R30,R22
0009cd 1bea      	SUB  R30,R26
0009ce 0bfb      	SBC  R31,R27
0009cf 93e0 0291 	STS  _e,R30
                 ; 0000 0358 
                 ; 0000 0359       {if(EILUTES_SKAICIUS!=EIL_SK){
                 _0x15E:
0009d1 91e0 0298 	LDS  R30,_EIL_SK
0009d3 91a0 0297 	LDS  R26,_EILUTES_SKAICIUS
0009d5 17ea      	CP   R30,R26
0009d6 f011      	BREQ _0x15F
                 ; 0000 035A       f = 1;}
0009d7 e0e1      	LDI  R30,LOW(1)
0009d8 c001      	RJMP _0x33C
                 ; 0000 035B       else
                 _0x15F:
                 ; 0000 035C       f = 0;}
0009d9 e0e0      	LDI  R30,LOW(0)
                 _0x33C:
0009da 93e0 0292 	STS  _f,R30
                 ; 0000 035D 
                 ; 0000 035E       EIL_SK = EILUTES_SKAICIUS;
0009dc 91e0 0297 	LDS  R30,_EILUTES_SKAICIUS
0009de 93e0 0298 	STS  _EIL_SK,R30
                 ; 0000 035F 
                 ; 0000 0360       if((EILUTES_SKAICIUS==1)&&(f==1)){
0009e0 91a0 0297 	LDS  R26,_EILUTES_SKAICIUS
0009e2 30a1      	CPI  R26,LOW(0x1)
0009e3 f421      	BRNE _0x162
0009e4 91a0 0292 	LDS  R26,_f
0009e6 30a1      	CPI  R26,LOW(0x1)
0009e7 f009      	BREQ _0x163
                 _0x162:
0009e8 c010      	RJMP _0x161
                 _0x163:
                 ; 0000 0361       x = SKAMBUTIS_1dh;
0009e9 91e0 02ae 	LDS  R30,_SKAMBUTIS_1dh
0009eb 93e0 0287 	STS  _x,R30
                 ; 0000 0362       y = SKAMBUTIS_1h;
0009ed 91e0 02af 	LDS  R30,_SKAMBUTIS_1h
0009ef 93e0 0288 	STS  _y,R30
                 ; 0000 0363       z = SKAMBUTIS_1dm;
0009f1 91e0 02b0 	LDS  R30,_SKAMBUTIS_1dm
0009f3 93e0 0289 	STS  _z,R30
                 ; 0000 0364       k = SKAMBUTIS_1m;}
0009f5 91e0 02b1 	LDS  R30,_SKAMBUTIS_1m
0009f7 93e0 028a 	STS  _k,R30
                 ; 0000 0365       if((EILUTES_SKAICIUS==2)&&(f==1)){
                 _0x161:
0009f9 91a0 0297 	LDS  R26,_EILUTES_SKAICIUS
0009fb 30a2      	CPI  R26,LOW(0x2)
0009fc f421      	BRNE _0x165
0009fd 91a0 0292 	LDS  R26,_f
0009ff 30a1      	CPI  R26,LOW(0x1)
000a00 f009      	BREQ _0x166
                 _0x165:
000a01 c010      	RJMP _0x164
                 _0x166:
                 ; 0000 0366       x = SKAMBUTIS_2dh;
000a02 91e0 02b2 	LDS  R30,_SKAMBUTIS_2dh
000a04 93e0 0287 	STS  _x,R30
                 ; 0000 0367       y = SKAMBUTIS_2h;
000a06 91e0 02b3 	LDS  R30,_SKAMBUTIS_2h
000a08 93e0 0288 	STS  _y,R30
                 ; 0000 0368       z = SKAMBUTIS_2dm;
000a0a 91e0 02b4 	LDS  R30,_SKAMBUTIS_2dm
000a0c 93e0 0289 	STS  _z,R30
                 ; 0000 0369       k = SKAMBUTIS_2m;}
000a0e 91e0 02b5 	LDS  R30,_SKAMBUTIS_2m
000a10 93e0 028a 	STS  _k,R30
                 ; 0000 036A       if((EILUTES_SKAICIUS==3)&&(f==1)){
                 _0x164:
000a12 91a0 0297 	LDS  R26,_EILUTES_SKAICIUS
000a14 30a3      	CPI  R26,LOW(0x3)
000a15 f421      	BRNE _0x168
000a16 91a0 0292 	LDS  R26,_f
000a18 30a1      	CPI  R26,LOW(0x1)
000a19 f009      	BREQ _0x169
                 _0x168:
000a1a c010      	RJMP _0x167
                 _0x169:
                 ; 0000 036B       x = SKAMBUTIS_3dh;
000a1b 91e0 02b6 	LDS  R30,_SKAMBUTIS_3dh
000a1d 93e0 0287 	STS  _x,R30
                 ; 0000 036C       y = SKAMBUTIS_3h;
000a1f 91e0 02b7 	LDS  R30,_SKAMBUTIS_3h
000a21 93e0 0288 	STS  _y,R30
                 ; 0000 036D       z = SKAMBUTIS_3dm;
000a23 91e0 02b8 	LDS  R30,_SKAMBUTIS_3dm
000a25 93e0 0289 	STS  _z,R30
                 ; 0000 036E       k = SKAMBUTIS_3m;}
000a27 91e0 02b9 	LDS  R30,_SKAMBUTIS_3m
000a29 93e0 028a 	STS  _k,R30
                 ; 0000 036F       if((EILUTES_SKAICIUS==4)&&(f==1)){
                 _0x167:
000a2b 91a0 0297 	LDS  R26,_EILUTES_SKAICIUS
000a2d 30a4      	CPI  R26,LOW(0x4)
000a2e f421      	BRNE _0x16B
000a2f 91a0 0292 	LDS  R26,_f
000a31 30a1      	CPI  R26,LOW(0x1)
000a32 f009      	BREQ _0x16C
                 _0x16B:
000a33 c010      	RJMP _0x16A
                 _0x16C:
                 ; 0000 0370       x = SKAMBUTIS_4dh;
000a34 91e0 02ba 	LDS  R30,_SKAMBUTIS_4dh
000a36 93e0 0287 	STS  _x,R30
                 ; 0000 0371       y = SKAMBUTIS_4h;
000a38 91e0 02bb 	LDS  R30,_SKAMBUTIS_4h
000a3a 93e0 0288 	STS  _y,R30
                 ; 0000 0372       z = SKAMBUTIS_4dm;
000a3c 91e0 02bc 	LDS  R30,_SKAMBUTIS_4dm
000a3e 93e0 0289 	STS  _z,R30
                 ; 0000 0373       k = SKAMBUTIS_4m;}
000a40 91e0 02bd 	LDS  R30,_SKAMBUTIS_4m
000a42 93e0 028a 	STS  _k,R30
                 ; 0000 0374       if((EILUTES_SKAICIUS==5)&&(f==1)){
                 _0x16A:
000a44 91a0 0297 	LDS  R26,_EILUTES_SKAICIUS
000a46 30a5      	CPI  R26,LOW(0x5)
000a47 f421      	BRNE _0x16E
000a48 91a0 0292 	LDS  R26,_f
000a4a 30a1      	CPI  R26,LOW(0x1)
000a4b f009      	BREQ _0x16F
                 _0x16E:
000a4c c010      	RJMP _0x16D
                 _0x16F:
                 ; 0000 0375       x = SKAMBUTIS_5dh;
000a4d 91e0 02be 	LDS  R30,_SKAMBUTIS_5dh
000a4f 93e0 0287 	STS  _x,R30
                 ; 0000 0376       y = SKAMBUTIS_5h;
000a51 91e0 02bf 	LDS  R30,_SKAMBUTIS_5h
000a53 93e0 0288 	STS  _y,R30
                 ; 0000 0377       z = SKAMBUTIS_5dm;
000a55 91e0 02c0 	LDS  R30,_SKAMBUTIS_5dm
000a57 93e0 0289 	STS  _z,R30
                 ; 0000 0378       k = SKAMBUTIS_5m;}
000a59 91e0 02c1 	LDS  R30,_SKAMBUTIS_5m
000a5b 93e0 028a 	STS  _k,R30
                 ; 0000 0379       if((EILUTES_SKAICIUS==6)&&(f==1)){
                 _0x16D:
000a5d 91a0 0297 	LDS  R26,_EILUTES_SKAICIUS
000a5f 30a6      	CPI  R26,LOW(0x6)
000a60 f421      	BRNE _0x171
000a61 91a0 0292 	LDS  R26,_f
000a63 30a1      	CPI  R26,LOW(0x1)
000a64 f009      	BREQ _0x172
                 _0x171:
000a65 c010      	RJMP _0x170
                 _0x172:
                 ; 0000 037A       x = SKAMBUTIS_6dh;
000a66 91e0 02c2 	LDS  R30,_SKAMBUTIS_6dh
000a68 93e0 0287 	STS  _x,R30
                 ; 0000 037B       y = SKAMBUTIS_6h;
000a6a 91e0 02c3 	LDS  R30,_SKAMBUTIS_6h
000a6c 93e0 0288 	STS  _y,R30
                 ; 0000 037C       z = SKAMBUTIS_6dm;
000a6e 91e0 02c4 	LDS  R30,_SKAMBUTIS_6dm
000a70 93e0 0289 	STS  _z,R30
                 ; 0000 037D       k = SKAMBUTIS_6m;}
000a72 91e0 02c5 	LDS  R30,_SKAMBUTIS_6m
000a74 93e0 028a 	STS  _k,R30
                 ; 0000 037E       if((EILUTES_SKAICIUS==7)&&(f==1)){
                 _0x170:
000a76 91a0 0297 	LDS  R26,_EILUTES_SKAICIUS
000a78 30a7      	CPI  R26,LOW(0x7)
000a79 f421      	BRNE _0x174
000a7a 91a0 0292 	LDS  R26,_f
000a7c 30a1      	CPI  R26,LOW(0x1)
000a7d f009      	BREQ _0x175
                 _0x174:
000a7e c010      	RJMP _0x173
                 _0x175:
                 ; 0000 037F       x = SKAMBUTIS_7dh;
000a7f 91e0 02c6 	LDS  R30,_SKAMBUTIS_7dh
000a81 93e0 0287 	STS  _x,R30
                 ; 0000 0380       y = SKAMBUTIS_7h;
000a83 91e0 02c7 	LDS  R30,_SKAMBUTIS_7h
000a85 93e0 0288 	STS  _y,R30
                 ; 0000 0381       z = SKAMBUTIS_7dm;
000a87 91e0 02c8 	LDS  R30,_SKAMBUTIS_7dm
000a89 93e0 0289 	STS  _z,R30
                 ; 0000 0382       k = SKAMBUTIS_7m;}
000a8b 91e0 02c9 	LDS  R30,_SKAMBUTIS_7m
000a8d 93e0 028a 	STS  _k,R30
                 ; 0000 0383       if((EILUTES_SKAICIUS==8)&&(f==1)){
                 _0x173:
000a8f 91a0 0297 	LDS  R26,_EILUTES_SKAICIUS
000a91 30a8      	CPI  R26,LOW(0x8)
000a92 f421      	BRNE _0x177
000a93 91a0 0292 	LDS  R26,_f
000a95 30a1      	CPI  R26,LOW(0x1)
000a96 f009      	BREQ _0x178
                 _0x177:
000a97 c010      	RJMP _0x176
                 _0x178:
                 ; 0000 0384       x = SKAMBUTIS_8dh;
000a98 91e0 02ca 	LDS  R30,_SKAMBUTIS_8dh
000a9a 93e0 0287 	STS  _x,R30
                 ; 0000 0385       y = SKAMBUTIS_8h;
000a9c 91e0 02cb 	LDS  R30,_SKAMBUTIS_8h
000a9e 93e0 0288 	STS  _y,R30
                 ; 0000 0386       z = SKAMBUTIS_8dm;
000aa0 91e0 02cc 	LDS  R30,_SKAMBUTIS_8dm
000aa2 93e0 0289 	STS  _z,R30
                 ; 0000 0387       k = SKAMBUTIS_8m;}
000aa4 91e0 02cd 	LDS  R30,_SKAMBUTIS_8m
000aa6 93e0 028a 	STS  _k,R30
                 ; 0000 0388       if((EILUTES_SKAICIUS==9)&&(f==1)){
                 _0x176:
000aa8 91a0 0297 	LDS  R26,_EILUTES_SKAICIUS
000aaa 30a9      	CPI  R26,LOW(0x9)
000aab f421      	BRNE _0x17A
000aac 91a0 0292 	LDS  R26,_f
000aae 30a1      	CPI  R26,LOW(0x1)
000aaf f009      	BREQ _0x17B
                 _0x17A:
000ab0 c010      	RJMP _0x179
                 _0x17B:
                 ; 0000 0389       x = SKAMBUTIS_9dh;
000ab1 91e0 02ce 	LDS  R30,_SKAMBUTIS_9dh
000ab3 93e0 0287 	STS  _x,R30
                 ; 0000 038A       y = SKAMBUTIS_9h;
000ab5 91e0 02cf 	LDS  R30,_SKAMBUTIS_9h
000ab7 93e0 0288 	STS  _y,R30
                 ; 0000 038B       z = SKAMBUTIS_9dm;
000ab9 91e0 02d0 	LDS  R30,_SKAMBUTIS_9dm
000abb 93e0 0289 	STS  _z,R30
                 ; 0000 038C       k = SKAMBUTIS_9m;}
000abd 91e0 02d1 	LDS  R30,_SKAMBUTIS_9m
000abf 93e0 028a 	STS  _k,R30
                 ; 0000 038D       if((EILUTES_SKAICIUS==10)&&(f==1)){
                 _0x179:
000ac1 91a0 0297 	LDS  R26,_EILUTES_SKAICIUS
000ac3 30aa      	CPI  R26,LOW(0xA)
000ac4 f421      	BRNE _0x17D
000ac5 91a0 0292 	LDS  R26,_f
000ac7 30a1      	CPI  R26,LOW(0x1)
000ac8 f009      	BREQ _0x17E
                 _0x17D:
000ac9 c010      	RJMP _0x17C
                 _0x17E:
                 ; 0000 038E       x = SKAMBUTIS_10dh;
000aca 91e0 02d2 	LDS  R30,_SKAMBUTIS_10dh
000acc 93e0 0287 	STS  _x,R30
                 ; 0000 038F       y = SKAMBUTIS_10h;
000ace 91e0 02d3 	LDS  R30,_SKAMBUTIS_10h
000ad0 93e0 0288 	STS  _y,R30
                 ; 0000 0390       z = SKAMBUTIS_10dm;
000ad2 91e0 02d4 	LDS  R30,_SKAMBUTIS_10dm
000ad4 93e0 0289 	STS  _z,R30
                 ; 0000 0391       k = SKAMBUTIS_10m;}
000ad6 91e0 02d5 	LDS  R30,_SKAMBUTIS_10m
000ad8 93e0 028a 	STS  _k,R30
                 ; 0000 0392       if((EILUTES_SKAICIUS==11)&&(f==1)){
                 _0x17C:
000ada 91a0 0297 	LDS  R26,_EILUTES_SKAICIUS
000adc 30ab      	CPI  R26,LOW(0xB)
000add f421      	BRNE _0x180
000ade 91a0 0292 	LDS  R26,_f
000ae0 30a1      	CPI  R26,LOW(0x1)
000ae1 f009      	BREQ _0x181
                 _0x180:
000ae2 c010      	RJMP _0x17F
                 _0x181:
                 ; 0000 0393       x = SKAMBUTIS_11dh;
000ae3 91e0 02d6 	LDS  R30,_SKAMBUTIS_11dh
000ae5 93e0 0287 	STS  _x,R30
                 ; 0000 0394       y = SKAMBUTIS_11h;
000ae7 91e0 02d7 	LDS  R30,_SKAMBUTIS_11h
000ae9 93e0 0288 	STS  _y,R30
                 ; 0000 0395       z = SKAMBUTIS_11dm;
000aeb 91e0 02d8 	LDS  R30,_SKAMBUTIS_11dm
000aed 93e0 0289 	STS  _z,R30
                 ; 0000 0396       k = SKAMBUTIS_11m;}
000aef 91e0 02d9 	LDS  R30,_SKAMBUTIS_11m
000af1 93e0 028a 	STS  _k,R30
                 ; 0000 0397       if((EILUTES_SKAICIUS==12)&&(f==1)){
                 _0x17F:
000af3 91a0 0297 	LDS  R26,_EILUTES_SKAICIUS
000af5 30ac      	CPI  R26,LOW(0xC)
000af6 f421      	BRNE _0x183
000af7 91a0 0292 	LDS  R26,_f
000af9 30a1      	CPI  R26,LOW(0x1)
000afa f009      	BREQ _0x184
                 _0x183:
000afb c010      	RJMP _0x182
                 _0x184:
                 ; 0000 0398       x = SKAMBUTIS_12dh;
000afc 91e0 02da 	LDS  R30,_SKAMBUTIS_12dh
000afe 93e0 0287 	STS  _x,R30
                 ; 0000 0399       y = SKAMBUTIS_12h;
000b00 91e0 02db 	LDS  R30,_SKAMBUTIS_12h
000b02 93e0 0288 	STS  _y,R30
                 ; 0000 039A       z = SKAMBUTIS_12dm;
000b04 91e0 02dc 	LDS  R30,_SKAMBUTIS_12dm
000b06 93e0 0289 	STS  _z,R30
                 ; 0000 039B       k = SKAMBUTIS_12m;}
000b08 91e0 02dd 	LDS  R30,_SKAMBUTIS_12m
000b0a 93e0 028a 	STS  _k,R30
                 ; 0000 039C       if((EILUTES_SKAICIUS==13)&&(f==1)){
                 _0x182:
000b0c 91a0 0297 	LDS  R26,_EILUTES_SKAICIUS
000b0e 30ad      	CPI  R26,LOW(0xD)
000b0f f421      	BRNE _0x186
000b10 91a0 0292 	LDS  R26,_f
000b12 30a1      	CPI  R26,LOW(0x1)
000b13 f009      	BREQ _0x187
                 _0x186:
000b14 c010      	RJMP _0x185
                 _0x187:
                 ; 0000 039D       x = SKAMBUTIS_13dh;
000b15 91e0 02de 	LDS  R30,_SKAMBUTIS_13dh
000b17 93e0 0287 	STS  _x,R30
                 ; 0000 039E       y = SKAMBUTIS_13h;
000b19 91e0 02df 	LDS  R30,_SKAMBUTIS_13h
000b1b 93e0 0288 	STS  _y,R30
                 ; 0000 039F       z = SKAMBUTIS_13dm;
000b1d 91e0 02e0 	LDS  R30,_SKAMBUTIS_13dm
000b1f 93e0 0289 	STS  _z,R30
                 ; 0000 03A0       k = SKAMBUTIS_13m;}
000b21 91e0 02e1 	LDS  R30,_SKAMBUTIS_13m
000b23 93e0 028a 	STS  _k,R30
                 ; 0000 03A1       if((EILUTES_SKAICIUS==14)&&(f==1)){
                 _0x185:
000b25 91a0 0297 	LDS  R26,_EILUTES_SKAICIUS
000b27 30ae      	CPI  R26,LOW(0xE)
000b28 f421      	BRNE _0x189
000b29 91a0 0292 	LDS  R26,_f
000b2b 30a1      	CPI  R26,LOW(0x1)
000b2c f009      	BREQ _0x18A
                 _0x189:
000b2d c010      	RJMP _0x188
                 _0x18A:
                 ; 0000 03A2       x = SKAMBUTIS_14dh;
000b2e 91e0 02e2 	LDS  R30,_SKAMBUTIS_14dh
000b30 93e0 0287 	STS  _x,R30
                 ; 0000 03A3       y = SKAMBUTIS_14h;
000b32 91e0 02e3 	LDS  R30,_SKAMBUTIS_14h
000b34 93e0 0288 	STS  _y,R30
                 ; 0000 03A4       z = SKAMBUTIS_14dm;
000b36 91e0 02e4 	LDS  R30,_SKAMBUTIS_14dm
000b38 93e0 0289 	STS  _z,R30
                 ; 0000 03A5       k = SKAMBUTIS_14m;}
000b3a 91e0 02e5 	LDS  R30,_SKAMBUTIS_14m
000b3c 93e0 028a 	STS  _k,R30
                 ; 0000 03A6       if((EILUTES_SKAICIUS==15)&&(f==1)){
                 _0x188:
000b3e 91a0 0297 	LDS  R26,_EILUTES_SKAICIUS
000b40 30af      	CPI  R26,LOW(0xF)
000b41 f421      	BRNE _0x18C
000b42 91a0 0292 	LDS  R26,_f
000b44 30a1      	CPI  R26,LOW(0x1)
000b45 f009      	BREQ _0x18D
                 _0x18C:
000b46 c010      	RJMP _0x18B
                 _0x18D:
                 ; 0000 03A7       x = SKAMBUTIS_15dh;
000b47 91e0 02e6 	LDS  R30,_SKAMBUTIS_15dh
000b49 93e0 0287 	STS  _x,R30
                 ; 0000 03A8       y = SKAMBUTIS_15h;
000b4b 91e0 02e7 	LDS  R30,_SKAMBUTIS_15h
000b4d 93e0 0288 	STS  _y,R30
                 ; 0000 03A9       z = SKAMBUTIS_15dm;
000b4f 91e0 02e8 	LDS  R30,_SKAMBUTIS_15dm
000b51 93e0 0289 	STS  _z,R30
                 ; 0000 03AA       k = SKAMBUTIS_15m;}
000b53 91e0 02e9 	LDS  R30,_SKAMBUTIS_15m
000b55 93e0 028a 	STS  _k,R30
                 ; 0000 03AB       if((EILUTES_SKAICIUS==16)&&(f==1)){
                 _0x18B:
000b57 91a0 0297 	LDS  R26,_EILUTES_SKAICIUS
000b59 31a0      	CPI  R26,LOW(0x10)
000b5a f421      	BRNE _0x18F
000b5b 91a0 0292 	LDS  R26,_f
000b5d 30a1      	CPI  R26,LOW(0x1)
000b5e f009      	BREQ _0x190
                 _0x18F:
000b5f c010      	RJMP _0x18E
                 _0x190:
                 ; 0000 03AC       x = SKAMBUTIS_16dh;
000b60 91e0 02ea 	LDS  R30,_SKAMBUTIS_16dh
000b62 93e0 0287 	STS  _x,R30
                 ; 0000 03AD       y = SKAMBUTIS_16h;
000b64 91e0 02eb 	LDS  R30,_SKAMBUTIS_16h
000b66 93e0 0288 	STS  _y,R30
                 ; 0000 03AE       z = SKAMBUTIS_16dm;
000b68 91e0 02ec 	LDS  R30,_SKAMBUTIS_16dm
000b6a 93e0 0289 	STS  _z,R30
                 ; 0000 03AF       k = SKAMBUTIS_16m;}
000b6c 91e0 02ed 	LDS  R30,_SKAMBUTIS_16m
000b6e 93e0 028a 	STS  _k,R30
                 ; 0000 03B0       if((EILUTES_SKAICIUS==17)&&(f==1)){
                 _0x18E:
000b70 91a0 0297 	LDS  R26,_EILUTES_SKAICIUS
000b72 31a1      	CPI  R26,LOW(0x11)
000b73 f421      	BRNE _0x192
000b74 91a0 0292 	LDS  R26,_f
000b76 30a1      	CPI  R26,LOW(0x1)
000b77 f009      	BREQ _0x193
                 _0x192:
000b78 c010      	RJMP _0x191
                 _0x193:
                 ; 0000 03B1       x = SKAMBUTIS_17dh;
000b79 91e0 02ee 	LDS  R30,_SKAMBUTIS_17dh
000b7b 93e0 0287 	STS  _x,R30
                 ; 0000 03B2       y = SKAMBUTIS_17h;
000b7d 91e0 02ef 	LDS  R30,_SKAMBUTIS_17h
000b7f 93e0 0288 	STS  _y,R30
                 ; 0000 03B3       z = SKAMBUTIS_17dm;
000b81 91e0 02f0 	LDS  R30,_SKAMBUTIS_17dm
000b83 93e0 0289 	STS  _z,R30
                 ; 0000 03B4       k = SKAMBUTIS_17m;}
000b85 91e0 02f1 	LDS  R30,_SKAMBUTIS_17m
000b87 93e0 028a 	STS  _k,R30
                 ; 0000 03B5       if((EILUTES_SKAICIUS==18)&&(f==1)){
                 _0x191:
000b89 91a0 0297 	LDS  R26,_EILUTES_SKAICIUS
000b8b 31a2      	CPI  R26,LOW(0x12)
000b8c f421      	BRNE _0x195
000b8d 91a0 0292 	LDS  R26,_f
000b8f 30a1      	CPI  R26,LOW(0x1)
000b90 f009      	BREQ _0x196
                 _0x195:
000b91 c010      	RJMP _0x194
                 _0x196:
                 ; 0000 03B6       x = SKAMBUTIS_18dh;
000b92 91e0 02f2 	LDS  R30,_SKAMBUTIS_18dh
000b94 93e0 0287 	STS  _x,R30
                 ; 0000 03B7       y = SKAMBUTIS_18h;
000b96 91e0 02f3 	LDS  R30,_SKAMBUTIS_18h
000b98 93e0 0288 	STS  _y,R30
                 ; 0000 03B8       z = SKAMBUTIS_18dm;
000b9a 91e0 02f4 	LDS  R30,_SKAMBUTIS_18dm
000b9c 93e0 0289 	STS  _z,R30
                 ; 0000 03B9       k = SKAMBUTIS_18m;}
000b9e 91e0 02f5 	LDS  R30,_SKAMBUTIS_18m
000ba0 93e0 028a 	STS  _k,R30
                 ; 0000 03BA       if((EILUTES_SKAICIUS==19)&&(f==1)){
                 _0x194:
000ba2 91a0 0297 	LDS  R26,_EILUTES_SKAICIUS
000ba4 31a3      	CPI  R26,LOW(0x13)
000ba5 f421      	BRNE _0x198
000ba6 91a0 0292 	LDS  R26,_f
000ba8 30a1      	CPI  R26,LOW(0x1)
000ba9 f009      	BREQ _0x199
                 _0x198:
000baa c010      	RJMP _0x197
                 _0x199:
                 ; 0000 03BB       x = SKAMBUTIS_19dh;
000bab 91e0 02f6 	LDS  R30,_SKAMBUTIS_19dh
000bad 93e0 0287 	STS  _x,R30
                 ; 0000 03BC       y = SKAMBUTIS_19h;
000baf 91e0 02f7 	LDS  R30,_SKAMBUTIS_19h
000bb1 93e0 0288 	STS  _y,R30
                 ; 0000 03BD       z = SKAMBUTIS_19dm;
000bb3 91e0 02f8 	LDS  R30,_SKAMBUTIS_19dm
000bb5 93e0 0289 	STS  _z,R30
                 ; 0000 03BE       k = SKAMBUTIS_19m;}
000bb7 91e0 02f9 	LDS  R30,_SKAMBUTIS_19m
000bb9 93e0 028a 	STS  _k,R30
                 ; 0000 03BF       if((EILUTES_SKAICIUS==20)&&(f==1)){
                 _0x197:
000bbb 91a0 0297 	LDS  R26,_EILUTES_SKAICIUS
000bbd 31a4      	CPI  R26,LOW(0x14)
000bbe f421      	BRNE _0x19B
000bbf 91a0 0292 	LDS  R26,_f
000bc1 30a1      	CPI  R26,LOW(0x1)
000bc2 f009      	BREQ _0x19C
                 _0x19B:
000bc3 c010      	RJMP _0x19A
                 _0x19C:
                 ; 0000 03C0       x = SKAMBUTIS_20dh;
000bc4 91e0 02fa 	LDS  R30,_SKAMBUTIS_20dh
000bc6 93e0 0287 	STS  _x,R30
                 ; 0000 03C1       y = SKAMBUTIS_20h;
000bc8 91e0 02fb 	LDS  R30,_SKAMBUTIS_20h
000bca 93e0 0288 	STS  _y,R30
                 ; 0000 03C2       z = SKAMBUTIS_20dm;
000bcc 91e0 02fc 	LDS  R30,_SKAMBUTIS_20dm
000bce 93e0 0289 	STS  _z,R30
                 ; 0000 03C3       k = SKAMBUTIS_20m;}
000bd0 91e0 02fd 	LDS  R30,_SKAMBUTIS_20m
000bd2 93e0 028a 	STS  _k,R30
                 ; 0000 03C4 
                 ; 0000 03C5       if((EILUTES_SKAICIUS!=0)&&(REDAGAVIMAS==1)){
                 _0x19A:
000bd4 91a0 0297 	LDS  R26,_EILUTES_SKAICIUS
000bd6 30a0      	CPI  R26,LOW(0x0)
000bd7 f021      	BREQ _0x19E
000bd8 91a0 0295 	LDS  R26,_REDAGAVIMAS
000bda 30a1      	CPI  R26,LOW(0x1)
000bdb f009      	BREQ _0x19F
                 _0x19E:
000bdc c0f3      	RJMP _0x19D
                 _0x19F:
                 ; 0000 03C6       if((MYGTUKAS_1==1)&&(REDAG_SK_NR==3)){
000bdd 91a0 0270 	LDS  R26,_MYGTUKAS_1
000bdf 30a1      	CPI  R26,LOW(0x1)
000be0 f421      	BRNE _0x1A1
000be1 91a0 0296 	LDS  R26,_REDAG_SK_NR
000be3 30a3      	CPI  R26,LOW(0x3)
000be4 f009      	BREQ _0x1A2
                 _0x1A1:
000be5 c005      	RJMP _0x1A0
                 _0x1A2:
                 ; 0000 03C7       k = k + 1;}
000be6 91e0 028a 	LDS  R30,_k
000be8 5fef      	SUBI R30,-LOW(1)
000be9 93e0 028a 	STS  _k,R30
                 ; 0000 03C8       if((MYGTUKAS_5==1)&&(REDAG_SK_NR==3)){
                 _0x1A0:
000beb 91a0 0274 	LDS  R26,_MYGTUKAS_5
000bed 30a1      	CPI  R26,LOW(0x1)
000bee f421      	BRNE _0x1A4
000bef 91a0 0296 	LDS  R26,_REDAG_SK_NR
000bf1 30a3      	CPI  R26,LOW(0x3)
000bf2 f009      	BREQ _0x1A5
                 _0x1A4:
000bf3 c006      	RJMP _0x1A3
                 _0x1A5:
                 ; 0000 03C9       k = k - 1;}
000bf4 91e0 028a 	LDS  R30,_k
000bf6 940e 160e 	CALL SUBOPT_0x7
000bf8 93e0 028a 	STS  _k,R30
                 ; 0000 03CA       if((MYGTUKAS_1==1)&&(REDAG_SK_NR==2)){
                 _0x1A3:
000bfa 91a0 0270 	LDS  R26,_MYGTUKAS_1
000bfc 30a1      	CPI  R26,LOW(0x1)
000bfd f421      	BRNE _0x1A7
000bfe 91a0 0296 	LDS  R26,_REDAG_SK_NR
000c00 30a2      	CPI  R26,LOW(0x2)
000c01 f009      	BREQ _0x1A8
                 _0x1A7:
000c02 c005      	RJMP _0x1A6
                 _0x1A8:
                 ; 0000 03CB       z = z + 1;}
000c03 91e0 0289 	LDS  R30,_z
000c05 5fef      	SUBI R30,-LOW(1)
000c06 93e0 0289 	STS  _z,R30
                 ; 0000 03CC       if((MYGTUKAS_5==1)&&(REDAG_SK_NR==2)){
                 _0x1A6:
000c08 91a0 0274 	LDS  R26,_MYGTUKAS_5
000c0a 30a1      	CPI  R26,LOW(0x1)
000c0b f421      	BRNE _0x1AA
000c0c 91a0 0296 	LDS  R26,_REDAG_SK_NR
000c0e 30a2      	CPI  R26,LOW(0x2)
000c0f f009      	BREQ _0x1AB
                 _0x1AA:
000c10 c006      	RJMP _0x1A9
                 _0x1AB:
                 ; 0000 03CD       z = z - 1;}
000c11 91e0 0289 	LDS  R30,_z
000c13 940e 160e 	CALL SUBOPT_0x7
000c15 93e0 0289 	STS  _z,R30
                 ; 0000 03CE       if((MYGTUKAS_1==1)&&(REDAG_SK_NR==1)){
                 _0x1A9:
000c17 91a0 0270 	LDS  R26,_MYGTUKAS_1
000c19 30a1      	CPI  R26,LOW(0x1)
000c1a f421      	BRNE _0x1AD
000c1b 91a0 0296 	LDS  R26,_REDAG_SK_NR
000c1d 30a1      	CPI  R26,LOW(0x1)
000c1e f009      	BREQ _0x1AE
                 _0x1AD:
000c1f c005      	RJMP _0x1AC
                 _0x1AE:
                 ; 0000 03CF       y = y + 1;}
000c20 91e0 0288 	LDS  R30,_y
000c22 5fef      	SUBI R30,-LOW(1)
000c23 93e0 0288 	STS  _y,R30
                 ; 0000 03D0       if((MYGTUKAS_5==1)&&(REDAG_SK_NR==1)){
                 _0x1AC:
000c25 91a0 0274 	LDS  R26,_MYGTUKAS_5
000c27 30a1      	CPI  R26,LOW(0x1)
000c28 f421      	BRNE _0x1B0
000c29 91a0 0296 	LDS  R26,_REDAG_SK_NR
000c2b 30a1      	CPI  R26,LOW(0x1)
000c2c f009      	BREQ _0x1B1
                 _0x1B0:
000c2d c006      	RJMP _0x1AF
                 _0x1B1:
                 ; 0000 03D1       y = y - 1;}
000c2e 91e0 0288 	LDS  R30,_y
000c30 940e 160e 	CALL SUBOPT_0x7
000c32 93e0 0288 	STS  _y,R30
                 ; 0000 03D2       if((MYGTUKAS_1==1)&&(REDAG_SK_NR==0)){
                 _0x1AF:
000c34 91a0 0270 	LDS  R26,_MYGTUKAS_1
000c36 30a1      	CPI  R26,LOW(0x1)
000c37 f421      	BRNE _0x1B3
000c38 91a0 0296 	LDS  R26,_REDAG_SK_NR
000c3a 30a0      	CPI  R26,LOW(0x0)
000c3b f009      	BREQ _0x1B4
                 _0x1B3:
000c3c c005      	RJMP _0x1B2
                 _0x1B4:
                 ; 0000 03D3       x = x + 1;}
000c3d 91e0 0287 	LDS  R30,_x
000c3f 5fef      	SUBI R30,-LOW(1)
000c40 93e0 0287 	STS  _x,R30
                 ; 0000 03D4       if((MYGTUKAS_5==1)&&(REDAG_SK_NR==0)){
                 _0x1B2:
000c42 91a0 0274 	LDS  R26,_MYGTUKAS_5
000c44 30a1      	CPI  R26,LOW(0x1)
000c45 f421      	BRNE _0x1B6
000c46 91a0 0296 	LDS  R26,_REDAG_SK_NR
000c48 30a0      	CPI  R26,LOW(0x0)
000c49 f009      	BREQ _0x1B7
                 _0x1B6:
000c4a c006      	RJMP _0x1B5
                 _0x1B7:
                 ; 0000 03D5       x = x - 1;}
000c4b 91e0 0287 	LDS  R30,_x
000c4d 940e 160e 	CALL SUBOPT_0x7
000c4f 93e0 0287 	STS  _x,R30
                 ; 0000 03D6 
                 ; 0000 03D7       if(k==-1){
                 _0x1B5:
000c51 91a0 028a 	LDS  R26,_k
000c53 3faf      	CPI  R26,LOW(0xFF)
000c54 f419      	BRNE _0x1B8
                 ; 0000 03D8       k = 9;}
000c55 e0e9      	LDI  R30,LOW(9)
000c56 93e0 028a 	STS  _k,R30
                 ; 0000 03D9       if(z==-1){
                 _0x1B8:
000c58 91a0 0289 	LDS  R26,_z
000c5a 3faf      	CPI  R26,LOW(0xFF)
000c5b f419      	BRNE _0x1B9
                 ; 0000 03DA       z = 5;}
000c5c e0e5      	LDI  R30,LOW(5)
000c5d 93e0 0289 	STS  _z,R30
                 ; 0000 03DB       if((y==-1)&&(x==2)){
                 _0x1B9:
000c5f 91a0 0288 	LDS  R26,_y
000c61 3faf      	CPI  R26,LOW(0xFF)
000c62 f421      	BRNE _0x1BB
000c63 91a0 0287 	LDS  R26,_x
000c65 30a2      	CPI  R26,LOW(0x2)
000c66 f009      	BREQ _0x1BC
                 _0x1BB:
000c67 c003      	RJMP _0x1BA
                 _0x1BC:
                 ; 0000 03DC       y = 3;}
000c68 e0e3      	LDI  R30,LOW(3)
000c69 93e0 0288 	STS  _y,R30
                 ; 0000 03DD       if((y==-1)&&(x!=2)){
                 _0x1BA:
000c6b 91a0 0288 	LDS  R26,_y
000c6d 3faf      	CPI  R26,LOW(0xFF)
000c6e f421      	BRNE _0x1BE
000c6f 91a0 0287 	LDS  R26,_x
000c71 30a2      	CPI  R26,LOW(0x2)
000c72 f409      	BRNE _0x1BF
                 _0x1BE:
000c73 c003      	RJMP _0x1BD
                 _0x1BF:
                 ; 0000 03DE       y = 9;}
000c74 e0e9      	LDI  R30,LOW(9)
000c75 93e0 0288 	STS  _y,R30
                 ; 0000 03DF       if((x==-1)&&(y >3)){
                 _0x1BD:
000c77 91a0 0287 	LDS  R26,_x
000c79 3faf      	CPI  R26,LOW(0xFF)
000c7a f421      	BRNE _0x1C1
000c7b 91a0 0288 	LDS  R26,_y
000c7d 30a4      	CPI  R26,LOW(0x4)
000c7e f40c      	BRGE _0x1C2
                 _0x1C1:
000c7f c003      	RJMP _0x1C0
                 _0x1C2:
                 ; 0000 03E0       x = 1;}
000c80 e0e1      	LDI  R30,LOW(1)
000c81 93e0 0287 	STS  _x,R30
                 ; 0000 03E1       if((x==-1)&&(y<4)){
                 _0x1C0:
000c83 91a0 0287 	LDS  R26,_x
000c85 3faf      	CPI  R26,LOW(0xFF)
000c86 f421      	BRNE _0x1C4
000c87 91a0 0288 	LDS  R26,_y
000c89 30a4      	CPI  R26,LOW(0x4)
000c8a f00c      	BRLT _0x1C5
                 _0x1C4:
000c8b c003      	RJMP _0x1C3
                 _0x1C5:
                 ; 0000 03E2       x = 2;}
000c8c e0e2      	LDI  R30,LOW(2)
000c8d 93e0 0287 	STS  _x,R30
                 ; 0000 03E3 
                 ; 0000 03E4       if(k==10){
                 _0x1C3:
000c8f 91a0 028a 	LDS  R26,_k
000c91 30aa      	CPI  R26,LOW(0xA)
000c92 f419      	BRNE _0x1C6
                 ; 0000 03E5       k = 0;}
000c93 e0e0      	LDI  R30,LOW(0)
000c94 93e0 028a 	STS  _k,R30
                 ; 0000 03E6       if(z==6){
                 _0x1C6:
000c96 91a0 0289 	LDS  R26,_z
000c98 30a6      	CPI  R26,LOW(0x6)
000c99 f419      	BRNE _0x1C7
                 ; 0000 03E7       z = 0;}
000c9a e0e0      	LDI  R30,LOW(0)
000c9b 93e0 0289 	STS  _z,R30
                 ; 0000 03E8       if((y>=4)&&(x==2)&&(REDAG_SK_NR==1)){
                 _0x1C7:
000c9d 91a0 0288 	LDS  R26,_y
000c9f 30a4      	CPI  R26,LOW(0x4)
000ca0 f044      	BRLT _0x1C9
000ca1 91a0 0287 	LDS  R26,_x
000ca3 30a2      	CPI  R26,LOW(0x2)
000ca4 f421      	BRNE _0x1C9
000ca5 91a0 0296 	LDS  R26,_REDAG_SK_NR
000ca7 30a1      	CPI  R26,LOW(0x1)
000ca8 f009      	BREQ _0x1CA
                 _0x1C9:
000ca9 c003      	RJMP _0x1C8
                 _0x1CA:
                 ; 0000 03E9       y = 0;}
000caa e0e0      	LDI  R30,LOW(0)
000cab 93e0 0288 	STS  _y,R30
                 ; 0000 03EA       if((y==10)&&(x!=2)){
                 _0x1C8:
000cad 91a0 0288 	LDS  R26,_y
000caf 30aa      	CPI  R26,LOW(0xA)
000cb0 f421      	BRNE _0x1CC
000cb1 91a0 0287 	LDS  R26,_x
000cb3 30a2      	CPI  R26,LOW(0x2)
000cb4 f409      	BRNE _0x1CD
                 _0x1CC:
000cb5 c003      	RJMP _0x1CB
                 _0x1CD:
                 ; 0000 03EB       y = 0;}
000cb6 e0e0      	LDI  R30,LOW(0)
000cb7 93e0 0288 	STS  _y,R30
                 ; 0000 03EC       if((x==2)&&(y>=4)&&(REDAG_SK_NR==0)){
                 _0x1CB:
000cb9 91a0 0287 	LDS  R26,_x
000cbb 30a2      	CPI  R26,LOW(0x2)
000cbc f441      	BRNE _0x1CF
000cbd 91a0 0288 	LDS  R26,_y
000cbf 30a4      	CPI  R26,LOW(0x4)
000cc0 f024      	BRLT _0x1CF
000cc1 91a0 0296 	LDS  R26,_REDAG_SK_NR
000cc3 30a0      	CPI  R26,LOW(0x0)
000cc4 f009      	BREQ _0x1D0
                 _0x1CF:
000cc5 c003      	RJMP _0x1CE
                 _0x1D0:
                 ; 0000 03ED       x = 0;}
000cc6 e0e0      	LDI  R30,LOW(0)
000cc7 93e0 0287 	STS  _x,R30
                 ; 0000 03EE       if(x==3){
                 _0x1CE:
000cc9 91a0 0287 	LDS  R26,_x
000ccb 30a3      	CPI  R26,LOW(0x3)
000ccc f419      	BRNE _0x1D1
                 ; 0000 03EF       x = 0;}}
000ccd e0e0      	LDI  R30,LOW(0)
000cce 93e0 0287 	STS  _x,R30
                 _0x1D1:
                 ; 0000 03F0 
                 ; 0000 03F1       if(MYGTUKAS_3==1){
                 _0x19D:
000cd0 91a0 0272 	LDS  R26,_MYGTUKAS_3
000cd2 30a1      	CPI  R26,LOW(0x1)
000cd3 f011      	BREQ PC+3
000cd4 940c 0e66 	JMP _0x1D2
                 ; 0000 03F2       if(EILUTES_SKAICIUS==1){
000cd6 91a0 0297 	LDS  R26,_EILUTES_SKAICIUS
000cd8 30a1      	CPI  R26,LOW(0x1)
000cd9 f481      	BRNE _0x1D3
                 ; 0000 03F3       SKAMBUTIS_1dh = x;
000cda 91e0 0287 	LDS  R30,_x
000cdc 93e0 02ae 	STS  _SKAMBUTIS_1dh,R30
                 ; 0000 03F4       SKAMBUTIS_1h  = y;
000cde 91e0 0288 	LDS  R30,_y
000ce0 93e0 02af 	STS  _SKAMBUTIS_1h,R30
                 ; 0000 03F5       SKAMBUTIS_1dm = z;
000ce2 91e0 0289 	LDS  R30,_z
000ce4 93e0 02b0 	STS  _SKAMBUTIS_1dm,R30
                 ; 0000 03F6       SKAMBUTIS_1m  = k;}
000ce6 91e0 028a 	LDS  R30,_k
000ce8 93e0 02b1 	STS  _SKAMBUTIS_1m,R30
                 ; 0000 03F7       if(EILUTES_SKAICIUS==2){
                 _0x1D3:
000cea 91a0 0297 	LDS  R26,_EILUTES_SKAICIUS
000cec 30a2      	CPI  R26,LOW(0x2)
000ced f481      	BRNE _0x1D4
                 ; 0000 03F8       SKAMBUTIS_2dh = x;
000cee 91e0 0287 	LDS  R30,_x
000cf0 93e0 02b2 	STS  _SKAMBUTIS_2dh,R30
                 ; 0000 03F9       SKAMBUTIS_2h  = y;
000cf2 91e0 0288 	LDS  R30,_y
000cf4 93e0 02b3 	STS  _SKAMBUTIS_2h,R30
                 ; 0000 03FA       SKAMBUTIS_2dm = z;
000cf6 91e0 0289 	LDS  R30,_z
000cf8 93e0 02b4 	STS  _SKAMBUTIS_2dm,R30
                 ; 0000 03FB       SKAMBUTIS_2m  = k;}
000cfa 91e0 028a 	LDS  R30,_k
000cfc 93e0 02b5 	STS  _SKAMBUTIS_2m,R30
                 ; 0000 03FC       if(EILUTES_SKAICIUS==3){
                 _0x1D4:
000cfe 91a0 0297 	LDS  R26,_EILUTES_SKAICIUS
000d00 30a3      	CPI  R26,LOW(0x3)
000d01 f481      	BRNE _0x1D5
                 ; 0000 03FD       SKAMBUTIS_3dh = x;
000d02 91e0 0287 	LDS  R30,_x
000d04 93e0 02b6 	STS  _SKAMBUTIS_3dh,R30
                 ; 0000 03FE       SKAMBUTIS_3h  = y;
000d06 91e0 0288 	LDS  R30,_y
000d08 93e0 02b7 	STS  _SKAMBUTIS_3h,R30
                 ; 0000 03FF       SKAMBUTIS_3dm = z;
000d0a 91e0 0289 	LDS  R30,_z
000d0c 93e0 02b8 	STS  _SKAMBUTIS_3dm,R30
                 ; 0000 0400       SKAMBUTIS_3m  = k;}
000d0e 91e0 028a 	LDS  R30,_k
000d10 93e0 02b9 	STS  _SKAMBUTIS_3m,R30
                 ; 0000 0401       if(EILUTES_SKAICIUS==4){
                 _0x1D5:
000d12 91a0 0297 	LDS  R26,_EILUTES_SKAICIUS
000d14 30a4      	CPI  R26,LOW(0x4)
000d15 f481      	BRNE _0x1D6
                 ; 0000 0402       SKAMBUTIS_4dh = x;
000d16 91e0 0287 	LDS  R30,_x
000d18 93e0 02ba 	STS  _SKAMBUTIS_4dh,R30
                 ; 0000 0403       SKAMBUTIS_4h  = y;
000d1a 91e0 0288 	LDS  R30,_y
000d1c 93e0 02bb 	STS  _SKAMBUTIS_4h,R30
                 ; 0000 0404       SKAMBUTIS_4dm = z;
000d1e 91e0 0289 	LDS  R30,_z
000d20 93e0 02bc 	STS  _SKAMBUTIS_4dm,R30
                 ; 0000 0405       SKAMBUTIS_4m  = k;}
000d22 91e0 028a 	LDS  R30,_k
000d24 93e0 02bd 	STS  _SKAMBUTIS_4m,R30
                 ; 0000 0406       if(EILUTES_SKAICIUS==5){
                 _0x1D6:
000d26 91a0 0297 	LDS  R26,_EILUTES_SKAICIUS
000d28 30a5      	CPI  R26,LOW(0x5)
000d29 f481      	BRNE _0x1D7
                 ; 0000 0407       SKAMBUTIS_5dh = x;
000d2a 91e0 0287 	LDS  R30,_x
000d2c 93e0 02be 	STS  _SKAMBUTIS_5dh,R30
                 ; 0000 0408       SKAMBUTIS_5h  = y;
000d2e 91e0 0288 	LDS  R30,_y
000d30 93e0 02bf 	STS  _SKAMBUTIS_5h,R30
                 ; 0000 0409       SKAMBUTIS_5dm = z;
000d32 91e0 0289 	LDS  R30,_z
000d34 93e0 02c0 	STS  _SKAMBUTIS_5dm,R30
                 ; 0000 040A       SKAMBUTIS_5m  = k;}
000d36 91e0 028a 	LDS  R30,_k
000d38 93e0 02c1 	STS  _SKAMBUTIS_5m,R30
                 ; 0000 040B       if(EILUTES_SKAICIUS==6){
                 _0x1D7:
000d3a 91a0 0297 	LDS  R26,_EILUTES_SKAICIUS
000d3c 30a6      	CPI  R26,LOW(0x6)
000d3d f481      	BRNE _0x1D8
                 ; 0000 040C       SKAMBUTIS_6dh = x;
000d3e 91e0 0287 	LDS  R30,_x
000d40 93e0 02c2 	STS  _SKAMBUTIS_6dh,R30
                 ; 0000 040D       SKAMBUTIS_6h  = y;
000d42 91e0 0288 	LDS  R30,_y
000d44 93e0 02c3 	STS  _SKAMBUTIS_6h,R30
                 ; 0000 040E       SKAMBUTIS_6dm = z;
000d46 91e0 0289 	LDS  R30,_z
000d48 93e0 02c4 	STS  _SKAMBUTIS_6dm,R30
                 ; 0000 040F       SKAMBUTIS_6m  = k;}
000d4a 91e0 028a 	LDS  R30,_k
000d4c 93e0 02c5 	STS  _SKAMBUTIS_6m,R30
                 ; 0000 0410       if(EILUTES_SKAICIUS==7){
                 _0x1D8:
000d4e 91a0 0297 	LDS  R26,_EILUTES_SKAICIUS
000d50 30a7      	CPI  R26,LOW(0x7)
000d51 f481      	BRNE _0x1D9
                 ; 0000 0411       SKAMBUTIS_7dh = x;
000d52 91e0 0287 	LDS  R30,_x
000d54 93e0 02c6 	STS  _SKAMBUTIS_7dh,R30
                 ; 0000 0412       SKAMBUTIS_7h  = y;
000d56 91e0 0288 	LDS  R30,_y
000d58 93e0 02c7 	STS  _SKAMBUTIS_7h,R30
                 ; 0000 0413       SKAMBUTIS_7dm = z;
000d5a 91e0 0289 	LDS  R30,_z
000d5c 93e0 02c8 	STS  _SKAMBUTIS_7dm,R30
                 ; 0000 0414       SKAMBUTIS_7m  = k;}
000d5e 91e0 028a 	LDS  R30,_k
000d60 93e0 02c9 	STS  _SKAMBUTIS_7m,R30
                 ; 0000 0415       if(EILUTES_SKAICIUS==8){
                 _0x1D9:
000d62 91a0 0297 	LDS  R26,_EILUTES_SKAICIUS
000d64 30a8      	CPI  R26,LOW(0x8)
000d65 f481      	BRNE _0x1DA
                 ; 0000 0416       SKAMBUTIS_8dh = x;
000d66 91e0 0287 	LDS  R30,_x
000d68 93e0 02ca 	STS  _SKAMBUTIS_8dh,R30
                 ; 0000 0417       SKAMBUTIS_8h  = y;
000d6a 91e0 0288 	LDS  R30,_y
000d6c 93e0 02cb 	STS  _SKAMBUTIS_8h,R30
                 ; 0000 0418       SKAMBUTIS_8dm = z;
000d6e 91e0 0289 	LDS  R30,_z
000d70 93e0 02cc 	STS  _SKAMBUTIS_8dm,R30
                 ; 0000 0419       SKAMBUTIS_8m  = k;}
000d72 91e0 028a 	LDS  R30,_k
000d74 93e0 02cd 	STS  _SKAMBUTIS_8m,R30
                 ; 0000 041A       if(EILUTES_SKAICIUS==9){
                 _0x1DA:
000d76 91a0 0297 	LDS  R26,_EILUTES_SKAICIUS
000d78 30a9      	CPI  R26,LOW(0x9)
000d79 f481      	BRNE _0x1DB
                 ; 0000 041B       SKAMBUTIS_9dh = x;
000d7a 91e0 0287 	LDS  R30,_x
000d7c 93e0 02ce 	STS  _SKAMBUTIS_9dh,R30
                 ; 0000 041C       SKAMBUTIS_9h  = y;
000d7e 91e0 0288 	LDS  R30,_y
000d80 93e0 02cf 	STS  _SKAMBUTIS_9h,R30
                 ; 0000 041D       SKAMBUTIS_9dm = z;
000d82 91e0 0289 	LDS  R30,_z
000d84 93e0 02d0 	STS  _SKAMBUTIS_9dm,R30
                 ; 0000 041E       SKAMBUTIS_9m  = k;}
000d86 91e0 028a 	LDS  R30,_k
000d88 93e0 02d1 	STS  _SKAMBUTIS_9m,R30
                 ; 0000 041F       if(EILUTES_SKAICIUS==10){
                 _0x1DB:
000d8a 91a0 0297 	LDS  R26,_EILUTES_SKAICIUS
000d8c 30aa      	CPI  R26,LOW(0xA)
000d8d f481      	BRNE _0x1DC
                 ; 0000 0420       SKAMBUTIS_10dh = x;
000d8e 91e0 0287 	LDS  R30,_x
000d90 93e0 02d2 	STS  _SKAMBUTIS_10dh,R30
                 ; 0000 0421       SKAMBUTIS_10h  = y;
000d92 91e0 0288 	LDS  R30,_y
000d94 93e0 02d3 	STS  _SKAMBUTIS_10h,R30
                 ; 0000 0422       SKAMBUTIS_10dm = z;
000d96 91e0 0289 	LDS  R30,_z
000d98 93e0 02d4 	STS  _SKAMBUTIS_10dm,R30
                 ; 0000 0423       SKAMBUTIS_10m  = k;}
000d9a 91e0 028a 	LDS  R30,_k
000d9c 93e0 02d5 	STS  _SKAMBUTIS_10m,R30
                 ; 0000 0424       if(EILUTES_SKAICIUS==11){
                 _0x1DC:
000d9e 91a0 0297 	LDS  R26,_EILUTES_SKAICIUS
000da0 30ab      	CPI  R26,LOW(0xB)
000da1 f481      	BRNE _0x1DD
                 ; 0000 0425       SKAMBUTIS_11dh = x;
000da2 91e0 0287 	LDS  R30,_x
000da4 93e0 02d6 	STS  _SKAMBUTIS_11dh,R30
                 ; 0000 0426       SKAMBUTIS_11h  = y;
000da6 91e0 0288 	LDS  R30,_y
000da8 93e0 02d7 	STS  _SKAMBUTIS_11h,R30
                 ; 0000 0427       SKAMBUTIS_11dm = z;
000daa 91e0 0289 	LDS  R30,_z
000dac 93e0 02d8 	STS  _SKAMBUTIS_11dm,R30
                 ; 0000 0428       SKAMBUTIS_11m  = k;}
000dae 91e0 028a 	LDS  R30,_k
000db0 93e0 02d9 	STS  _SKAMBUTIS_11m,R30
                 ; 0000 0429       if(EILUTES_SKAICIUS==12){
                 _0x1DD:
000db2 91a0 0297 	LDS  R26,_EILUTES_SKAICIUS
000db4 30ac      	CPI  R26,LOW(0xC)
000db5 f481      	BRNE _0x1DE
                 ; 0000 042A       SKAMBUTIS_12dh = x;
000db6 91e0 0287 	LDS  R30,_x
000db8 93e0 02da 	STS  _SKAMBUTIS_12dh,R30
                 ; 0000 042B       SKAMBUTIS_12h  = y;
000dba 91e0 0288 	LDS  R30,_y
000dbc 93e0 02db 	STS  _SKAMBUTIS_12h,R30
                 ; 0000 042C       SKAMBUTIS_12dm = z;
000dbe 91e0 0289 	LDS  R30,_z
000dc0 93e0 02dc 	STS  _SKAMBUTIS_12dm,R30
                 ; 0000 042D       SKAMBUTIS_12m  = k;}
000dc2 91e0 028a 	LDS  R30,_k
000dc4 93e0 02dd 	STS  _SKAMBUTIS_12m,R30
                 ; 0000 042E       if(EILUTES_SKAICIUS==13){
                 _0x1DE:
000dc6 91a0 0297 	LDS  R26,_EILUTES_SKAICIUS
000dc8 30ad      	CPI  R26,LOW(0xD)
000dc9 f481      	BRNE _0x1DF
                 ; 0000 042F       SKAMBUTIS_13dh = x;
000dca 91e0 0287 	LDS  R30,_x
000dcc 93e0 02de 	STS  _SKAMBUTIS_13dh,R30
                 ; 0000 0430       SKAMBUTIS_13h  = y;
000dce 91e0 0288 	LDS  R30,_y
000dd0 93e0 02df 	STS  _SKAMBUTIS_13h,R30
                 ; 0000 0431       SKAMBUTIS_13dm = z;
000dd2 91e0 0289 	LDS  R30,_z
000dd4 93e0 02e0 	STS  _SKAMBUTIS_13dm,R30
                 ; 0000 0432       SKAMBUTIS_13m  = k;}
000dd6 91e0 028a 	LDS  R30,_k
000dd8 93e0 02e1 	STS  _SKAMBUTIS_13m,R30
                 ; 0000 0433       if(EILUTES_SKAICIUS==14){
                 _0x1DF:
000dda 91a0 0297 	LDS  R26,_EILUTES_SKAICIUS
000ddc 30ae      	CPI  R26,LOW(0xE)
000ddd f481      	BRNE _0x1E0
                 ; 0000 0434       SKAMBUTIS_14dh = x;
000dde 91e0 0287 	LDS  R30,_x
000de0 93e0 02e2 	STS  _SKAMBUTIS_14dh,R30
                 ; 0000 0435       SKAMBUTIS_14h  = y;
000de2 91e0 0288 	LDS  R30,_y
000de4 93e0 02e3 	STS  _SKAMBUTIS_14h,R30
                 ; 0000 0436       SKAMBUTIS_14dm = z;
000de6 91e0 0289 	LDS  R30,_z
000de8 93e0 02e4 	STS  _SKAMBUTIS_14dm,R30
                 ; 0000 0437       SKAMBUTIS_14m  = k;}
000dea 91e0 028a 	LDS  R30,_k
000dec 93e0 02e5 	STS  _SKAMBUTIS_14m,R30
                 ; 0000 0438       if(EILUTES_SKAICIUS==15){
                 _0x1E0:
000dee 91a0 0297 	LDS  R26,_EILUTES_SKAICIUS
000df0 30af      	CPI  R26,LOW(0xF)
000df1 f481      	BRNE _0x1E1
                 ; 0000 0439       SKAMBUTIS_15dh = x;
000df2 91e0 0287 	LDS  R30,_x
000df4 93e0 02e6 	STS  _SKAMBUTIS_15dh,R30
                 ; 0000 043A       SKAMBUTIS_15h  = y;
000df6 91e0 0288 	LDS  R30,_y
000df8 93e0 02e7 	STS  _SKAMBUTIS_15h,R30
                 ; 0000 043B       SKAMBUTIS_15dm = z;
000dfa 91e0 0289 	LDS  R30,_z
000dfc 93e0 02e8 	STS  _SKAMBUTIS_15dm,R30
                 ; 0000 043C       SKAMBUTIS_15m  = k;}
000dfe 91e0 028a 	LDS  R30,_k
000e00 93e0 02e9 	STS  _SKAMBUTIS_15m,R30
                 ; 0000 043D       if(EILUTES_SKAICIUS==16){
                 _0x1E1:
000e02 91a0 0297 	LDS  R26,_EILUTES_SKAICIUS
000e04 31a0      	CPI  R26,LOW(0x10)
000e05 f481      	BRNE _0x1E2
                 ; 0000 043E       SKAMBUTIS_16dh = x;
000e06 91e0 0287 	LDS  R30,_x
000e08 93e0 02ea 	STS  _SKAMBUTIS_16dh,R30
                 ; 0000 043F       SKAMBUTIS_16h  = y;
000e0a 91e0 0288 	LDS  R30,_y
000e0c 93e0 02eb 	STS  _SKAMBUTIS_16h,R30
                 ; 0000 0440       SKAMBUTIS_16dm = z;
000e0e 91e0 0289 	LDS  R30,_z
000e10 93e0 02ec 	STS  _SKAMBUTIS_16dm,R30
                 ; 0000 0441       SKAMBUTIS_16m  = k;}
000e12 91e0 028a 	LDS  R30,_k
000e14 93e0 02ed 	STS  _SKAMBUTIS_16m,R30
                 ; 0000 0442       if(EILUTES_SKAICIUS==17){
                 _0x1E2:
000e16 91a0 0297 	LDS  R26,_EILUTES_SKAICIUS
000e18 31a1      	CPI  R26,LOW(0x11)
000e19 f481      	BRNE _0x1E3
                 ; 0000 0443       SKAMBUTIS_17dh = x;
000e1a 91e0 0287 	LDS  R30,_x
000e1c 93e0 02ee 	STS  _SKAMBUTIS_17dh,R30
                 ; 0000 0444       SKAMBUTIS_17h  = y;
000e1e 91e0 0288 	LDS  R30,_y
000e20 93e0 02ef 	STS  _SKAMBUTIS_17h,R30
                 ; 0000 0445       SKAMBUTIS_17dm = z;
000e22 91e0 0289 	LDS  R30,_z
000e24 93e0 02f0 	STS  _SKAMBUTIS_17dm,R30
                 ; 0000 0446       SKAMBUTIS_17m  = k;}
000e26 91e0 028a 	LDS  R30,_k
000e28 93e0 02f1 	STS  _SKAMBUTIS_17m,R30
                 ; 0000 0447       if(EILUTES_SKAICIUS==18){
                 _0x1E3:
000e2a 91a0 0297 	LDS  R26,_EILUTES_SKAICIUS
000e2c 31a2      	CPI  R26,LOW(0x12)
000e2d f481      	BRNE _0x1E4
                 ; 0000 0448       SKAMBUTIS_18dh = x;
000e2e 91e0 0287 	LDS  R30,_x
000e30 93e0 02f2 	STS  _SKAMBUTIS_18dh,R30
                 ; 0000 0449       SKAMBUTIS_18h  = y;
000e32 91e0 0288 	LDS  R30,_y
000e34 93e0 02f3 	STS  _SKAMBUTIS_18h,R30
                 ; 0000 044A       SKAMBUTIS_18dm = z;
000e36 91e0 0289 	LDS  R30,_z
000e38 93e0 02f4 	STS  _SKAMBUTIS_18dm,R30
                 ; 0000 044B       SKAMBUTIS_18m  = k;}
000e3a 91e0 028a 	LDS  R30,_k
000e3c 93e0 02f5 	STS  _SKAMBUTIS_18m,R30
                 ; 0000 044C       if(EILUTES_SKAICIUS==19){
                 _0x1E4:
000e3e 91a0 0297 	LDS  R26,_EILUTES_SKAICIUS
000e40 31a3      	CPI  R26,LOW(0x13)
000e41 f481      	BRNE _0x1E5
                 ; 0000 044D       SKAMBUTIS_19dh = x;
000e42 91e0 0287 	LDS  R30,_x
000e44 93e0 02f6 	STS  _SKAMBUTIS_19dh,R30
                 ; 0000 044E       SKAMBUTIS_19h  = y;
000e46 91e0 0288 	LDS  R30,_y
000e48 93e0 02f7 	STS  _SKAMBUTIS_19h,R30
                 ; 0000 044F       SKAMBUTIS_19dm = z;
000e4a 91e0 0289 	LDS  R30,_z
000e4c 93e0 02f8 	STS  _SKAMBUTIS_19dm,R30
                 ; 0000 0450       SKAMBUTIS_19m  = k;}
000e4e 91e0 028a 	LDS  R30,_k
000e50 93e0 02f9 	STS  _SKAMBUTIS_19m,R30
                 ; 0000 0451       if(EILUTES_SKAICIUS==20){
                 _0x1E5:
000e52 91a0 0297 	LDS  R26,_EILUTES_SKAICIUS
000e54 31a4      	CPI  R26,LOW(0x14)
000e55 f481      	BRNE _0x1E6
                 ; 0000 0452       SKAMBUTIS_20dh = x;
000e56 91e0 0287 	LDS  R30,_x
000e58 93e0 02fa 	STS  _SKAMBUTIS_20dh,R30
                 ; 0000 0453       SKAMBUTIS_20h  = y;
000e5a 91e0 0288 	LDS  R30,_y
000e5c 93e0 02fb 	STS  _SKAMBUTIS_20h,R30
                 ; 0000 0454       SKAMBUTIS_20dm = z;
000e5e 91e0 0289 	LDS  R30,_z
000e60 93e0 02fc 	STS  _SKAMBUTIS_20dm,R30
                 ; 0000 0455       SKAMBUTIS_20m  = k;}}
000e62 91e0 028a 	LDS  R30,_k
000e64 93e0 02fd 	STS  _SKAMBUTIS_20m,R30
                 _0x1E6:
                 ; 0000 0456 
                 ; 0000 0457       // RELES PRITRAUKIMAS:
                 ; 0000 0458       // ispejamasis skambutis:
                 ; 0000 0459       a2 = desimtys_valandos;
                 _0x1D2:
000e66 91e0 0285 	LDS  R30,_desimtys_valandos
000e68 93e0 028b 	STS  _a2,R30
                 ; 0000 045A       b2 = valandos;
000e6a 91e0 0284 	LDS  R30,_valandos
000e6c 93e0 028c 	STS  _b2,R30
                 ; 0000 045B       c2 = desimtys_minutes;
000e6e 91e0 0283 	LDS  R30,_desimtys_minutes
000e70 93e0 028d 	STS  _c2,R30
                 ; 0000 045C       d2 = minutes + 2;
000e72 91e0 0282 	LDS  R30,_minutes
000e74 5fee      	SUBI R30,-LOW(2)
000e75 93e0 028e 	STS  _d2,R30
                 ; 0000 045D 
                 ; 0000 045E       if(d2==10){
000e77 91a0 028e 	LDS  R26,_d2
000e79 30aa      	CPI  R26,LOW(0xA)
000e7a f441      	BRNE _0x1E7
                 ; 0000 045F       d2 = 0;
000e7b e0e0      	LDI  R30,LOW(0)
000e7c 93e0 028e 	STS  _d2,R30
                 ; 0000 0460       c2 = c2 + 1;}
000e7e 91e0 028d 	LDS  R30,_c2
000e80 5fef      	SUBI R30,-LOW(1)
000e81 93e0 028d 	STS  _c2,R30
                 ; 0000 0461       if(c2==6){
                 _0x1E7:
000e83 91a0 028d 	LDS  R26,_c2
000e85 30a6      	CPI  R26,LOW(0x6)
000e86 f441      	BRNE _0x1E8
                 ; 0000 0462       c2 = 0;
000e87 e0e0      	LDI  R30,LOW(0)
000e88 93e0 028d 	STS  _c2,R30
                 ; 0000 0463       b2 = b2 + 1;}
000e8a 91e0 028c 	LDS  R30,_b2
000e8c 5fef      	SUBI R30,-LOW(1)
000e8d 93e0 028c 	STS  _b2,R30
                 ; 0000 0464       if(b2==10){
                 _0x1E8:
000e8f 91a0 028c 	LDS  R26,_b2
000e91 30aa      	CPI  R26,LOW(0xA)
000e92 f441      	BRNE _0x1E9
                 ; 0000 0465       b2 = 0;
000e93 e0e0      	LDI  R30,LOW(0)
000e94 93e0 028c 	STS  _b2,R30
                 ; 0000 0466       a2 = a2 + 1;}
000e96 91e0 028b 	LDS  R30,_a2
000e98 5fef      	SUBI R30,-LOW(1)
000e99 93e0 028b 	STS  _a2,R30
                 ; 0000 0467       if((a2==2)&&(b2==4)){
                 _0x1E9:
000e9b 91a0 028b 	LDS  R26,_a2
000e9d 30a2      	CPI  R26,LOW(0x2)
000e9e f421      	BRNE _0x1EB
000e9f 91a0 028c 	LDS  R26,_b2
000ea1 30a4      	CPI  R26,LOW(0x4)
000ea2 f009      	BREQ _0x1EC
                 _0x1EB:
000ea3 c005      	RJMP _0x1EA
                 _0x1EC:
                 ; 0000 0468       a2 = 0;
000ea4 e0e0      	LDI  R30,LOW(0)
000ea5 93e0 028b 	STS  _a2,R30
                 ; 0000 0469       b2 = 0;}
000ea7 93e0 028c 	STS  _b2,R30
                 ; 0000 046A 
                 ; 0000 046B 
                 ; 0000 046C       //ispejamojo skambucio reles pritraukimas
                 ; 0000 046D       if((SKAMBUTIS_1dh==a2)&&
                 _0x1EA:
                 ; 0000 046E       (SKAMBUTIS_1h==b2)&&
                 ; 0000 046F       (SKAMBUTIS_1dm==c2)&&
                 ; 0000 0470       (SKAMBUTIS_1m==d2)){
000ea9 91e0 028b 	LDS  R30,_a2
000eab 91a0 02ae 	LDS  R26,_SKAMBUTIS_1dh
000ead 17ea      	CP   R30,R26
000eae f491      	BRNE _0x1EE
000eaf 91e0 028c 	LDS  R30,_b2
000eb1 91a0 02af 	LDS  R26,_SKAMBUTIS_1h
000eb3 17ea      	CP   R30,R26
000eb4 f461      	BRNE _0x1EE
000eb5 91e0 028d 	LDS  R30,_c2
000eb7 91a0 02b0 	LDS  R26,_SKAMBUTIS_1dm
000eb9 17ea      	CP   R30,R26
000eba f431      	BRNE _0x1EE
000ebb 91e0 028e 	LDS  R30,_d2
000ebd 91a0 02b1 	LDS  R26,_SKAMBUTIS_1m
000ebf 17ea      	CP   R30,R26
000ec0 f009      	BREQ _0x1EF
                 _0x1EE:
000ec1 c003      	RJMP _0x1ED
                 _0x1EF:
                 ; 0000 0471       ISPEJAMASIS_SKAMBUTIS = 1;}
000ec2 e0e1      	LDI  R30,LOW(1)
000ec3 93e0 029f 	STS  _ISPEJAMASIS_SKAMBUTIS,R30
                 ; 0000 0472 
                 ; 0000 0473       if((SKAMBUTIS_3dh==a2)&&
                 _0x1ED:
                 ; 0000 0474       (SKAMBUTIS_3h==b2)&&
                 ; 0000 0475       (SKAMBUTIS_3dm==c2)&&
                 ; 0000 0476       (SKAMBUTIS_3m==d2)){
000ec5 91e0 028b 	LDS  R30,_a2
000ec7 91a0 02b6 	LDS  R26,_SKAMBUTIS_3dh
000ec9 17ea      	CP   R30,R26
000eca f491      	BRNE _0x1F1
000ecb 91e0 028c 	LDS  R30,_b2
000ecd 91a0 02b7 	LDS  R26,_SKAMBUTIS_3h
000ecf 17ea      	CP   R30,R26
000ed0 f461      	BRNE _0x1F1
000ed1 91e0 028d 	LDS  R30,_c2
000ed3 91a0 02b8 	LDS  R26,_SKAMBUTIS_3dm
000ed5 17ea      	CP   R30,R26
000ed6 f431      	BRNE _0x1F1
000ed7 91e0 028e 	LDS  R30,_d2
000ed9 91a0 02b9 	LDS  R26,_SKAMBUTIS_3m
000edb 17ea      	CP   R30,R26
000edc f009      	BREQ _0x1F2
                 _0x1F1:
000edd c003      	RJMP _0x1F0
                 _0x1F2:
                 ; 0000 0477       ISPEJAMASIS_SKAMBUTIS = 1;}
000ede e0e1      	LDI  R30,LOW(1)
000edf 93e0 029f 	STS  _ISPEJAMASIS_SKAMBUTIS,R30
                 ; 0000 0478 
                 ; 0000 0479       if((SKAMBUTIS_5dh==a2)&&
                 _0x1F0:
                 ; 0000 047A       (SKAMBUTIS_5h==b2)&&
                 ; 0000 047B       (SKAMBUTIS_5dm==c2)&&
                 ; 0000 047C       (SKAMBUTIS_5m==d2)){
000ee1 91e0 028b 	LDS  R30,_a2
000ee3 91a0 02be 	LDS  R26,_SKAMBUTIS_5dh
000ee5 17ea      	CP   R30,R26
000ee6 f491      	BRNE _0x1F4
000ee7 91e0 028c 	LDS  R30,_b2
000ee9 91a0 02bf 	LDS  R26,_SKAMBUTIS_5h
000eeb 17ea      	CP   R30,R26
000eec f461      	BRNE _0x1F4
000eed 91e0 028d 	LDS  R30,_c2
000eef 91a0 02c0 	LDS  R26,_SKAMBUTIS_5dm
000ef1 17ea      	CP   R30,R26
000ef2 f431      	BRNE _0x1F4
000ef3 91e0 028e 	LDS  R30,_d2
000ef5 91a0 02c1 	LDS  R26,_SKAMBUTIS_5m
000ef7 17ea      	CP   R30,R26
000ef8 f009      	BREQ _0x1F5
                 _0x1F4:
000ef9 c003      	RJMP _0x1F3
                 _0x1F5:
                 ; 0000 047D       ISPEJAMASIS_SKAMBUTIS = 1;}
000efa e0e1      	LDI  R30,LOW(1)
000efb 93e0 029f 	STS  _ISPEJAMASIS_SKAMBUTIS,R30
                 ; 0000 047E 
                 ; 0000 047F       if((SKAMBUTIS_7dh==a2)&&
                 _0x1F3:
                 ; 0000 0480       (SKAMBUTIS_7h==b2)&&
                 ; 0000 0481       (SKAMBUTIS_7dm==c2)&&
                 ; 0000 0482       (SKAMBUTIS_7m==d2)){
000efd 91e0 028b 	LDS  R30,_a2
000eff 91a0 02c6 	LDS  R26,_SKAMBUTIS_7dh
000f01 17ea      	CP   R30,R26
000f02 f491      	BRNE _0x1F7
000f03 91e0 028c 	LDS  R30,_b2
000f05 91a0 02c7 	LDS  R26,_SKAMBUTIS_7h
000f07 17ea      	CP   R30,R26
000f08 f461      	BRNE _0x1F7
000f09 91e0 028d 	LDS  R30,_c2
000f0b 91a0 02c8 	LDS  R26,_SKAMBUTIS_7dm
000f0d 17ea      	CP   R30,R26
000f0e f431      	BRNE _0x1F7
000f0f 91e0 028e 	LDS  R30,_d2
000f11 91a0 02c9 	LDS  R26,_SKAMBUTIS_7m
000f13 17ea      	CP   R30,R26
000f14 f009      	BREQ _0x1F8
                 _0x1F7:
000f15 c003      	RJMP _0x1F6
                 _0x1F8:
                 ; 0000 0483       ISPEJAMASIS_SKAMBUTIS = 1;}
000f16 e0e1      	LDI  R30,LOW(1)
000f17 93e0 029f 	STS  _ISPEJAMASIS_SKAMBUTIS,R30
                 ; 0000 0484 
                 ; 0000 0485       if((SKAMBUTIS_9dh==a2)&&
                 _0x1F6:
                 ; 0000 0486       (SKAMBUTIS_9h==b2)&&
                 ; 0000 0487       (SKAMBUTIS_9dm==c2)&&
                 ; 0000 0488       (SKAMBUTIS_9m==d2)){
000f19 91e0 028b 	LDS  R30,_a2
000f1b 91a0 02ce 	LDS  R26,_SKAMBUTIS_9dh
000f1d 17ea      	CP   R30,R26
000f1e f491      	BRNE _0x1FA
000f1f 91e0 028c 	LDS  R30,_b2
000f21 91a0 02cf 	LDS  R26,_SKAMBUTIS_9h
000f23 17ea      	CP   R30,R26
000f24 f461      	BRNE _0x1FA
000f25 91e0 028d 	LDS  R30,_c2
000f27 91a0 02d0 	LDS  R26,_SKAMBUTIS_9dm
000f29 17ea      	CP   R30,R26
000f2a f431      	BRNE _0x1FA
000f2b 91e0 028e 	LDS  R30,_d2
000f2d 91a0 02d1 	LDS  R26,_SKAMBUTIS_9m
000f2f 17ea      	CP   R30,R26
000f30 f009      	BREQ _0x1FB
                 _0x1FA:
000f31 c003      	RJMP _0x1F9
                 _0x1FB:
                 ; 0000 0489       ISPEJAMASIS_SKAMBUTIS = 1;}
000f32 e0e1      	LDI  R30,LOW(1)
000f33 93e0 029f 	STS  _ISPEJAMASIS_SKAMBUTIS,R30
                 ; 0000 048A 
                 ; 0000 048B       if((SKAMBUTIS_11dh==a2)&&
                 _0x1F9:
                 ; 0000 048C       (SKAMBUTIS_11h==b2)&&
                 ; 0000 048D       (SKAMBUTIS_11dm==c2)&&
                 ; 0000 048E       (SKAMBUTIS_11m==d2)){
000f35 91e0 028b 	LDS  R30,_a2
000f37 91a0 02d6 	LDS  R26,_SKAMBUTIS_11dh
000f39 17ea      	CP   R30,R26
000f3a f491      	BRNE _0x1FD
000f3b 91e0 028c 	LDS  R30,_b2
000f3d 91a0 02d7 	LDS  R26,_SKAMBUTIS_11h
000f3f 17ea      	CP   R30,R26
000f40 f461      	BRNE _0x1FD
000f41 91e0 028d 	LDS  R30,_c2
000f43 91a0 02d8 	LDS  R26,_SKAMBUTIS_11dm
000f45 17ea      	CP   R30,R26
000f46 f431      	BRNE _0x1FD
000f47 91e0 028e 	LDS  R30,_d2
000f49 91a0 02d9 	LDS  R26,_SKAMBUTIS_11m
000f4b 17ea      	CP   R30,R26
000f4c f009      	BREQ _0x1FE
                 _0x1FD:
000f4d c003      	RJMP _0x1FC
                 _0x1FE:
                 ; 0000 048F       ISPEJAMASIS_SKAMBUTIS = 1;}
000f4e e0e1      	LDI  R30,LOW(1)
000f4f 93e0 029f 	STS  _ISPEJAMASIS_SKAMBUTIS,R30
                 ; 0000 0490 
                 ; 0000 0491       if((SKAMBUTIS_13dh==a2)&&
                 _0x1FC:
                 ; 0000 0492       (SKAMBUTIS_13h==b2)&&
                 ; 0000 0493       (SKAMBUTIS_13dm==c2)&&
                 ; 0000 0494       (SKAMBUTIS_13m==d2)){
000f51 91e0 028b 	LDS  R30,_a2
000f53 91a0 02de 	LDS  R26,_SKAMBUTIS_13dh
000f55 17ea      	CP   R30,R26
000f56 f491      	BRNE _0x200
000f57 91e0 028c 	LDS  R30,_b2
000f59 91a0 02df 	LDS  R26,_SKAMBUTIS_13h
000f5b 17ea      	CP   R30,R26
000f5c f461      	BRNE _0x200
000f5d 91e0 028d 	LDS  R30,_c2
000f5f 91a0 02e0 	LDS  R26,_SKAMBUTIS_13dm
000f61 17ea      	CP   R30,R26
000f62 f431      	BRNE _0x200
000f63 91e0 028e 	LDS  R30,_d2
000f65 91a0 02e1 	LDS  R26,_SKAMBUTIS_13m
000f67 17ea      	CP   R30,R26
000f68 f009      	BREQ _0x201
                 _0x200:
000f69 c003      	RJMP _0x1FF
                 _0x201:
                 ; 0000 0495       ISPEJAMASIS_SKAMBUTIS = 1;}
000f6a e0e1      	LDI  R30,LOW(1)
000f6b 93e0 029f 	STS  _ISPEJAMASIS_SKAMBUTIS,R30
                 ; 0000 0496 
                 ; 0000 0497       if((SKAMBUTIS_15dh==a2)&&
                 _0x1FF:
                 ; 0000 0498       (SKAMBUTIS_15h==b2)&&
                 ; 0000 0499       (SKAMBUTIS_15dm==c2)&&
                 ; 0000 049A       (SKAMBUTIS_15m==d2)){
000f6d 91e0 028b 	LDS  R30,_a2
000f6f 91a0 02e6 	LDS  R26,_SKAMBUTIS_15dh
000f71 17ea      	CP   R30,R26
000f72 f491      	BRNE _0x203
000f73 91e0 028c 	LDS  R30,_b2
000f75 91a0 02e7 	LDS  R26,_SKAMBUTIS_15h
000f77 17ea      	CP   R30,R26
000f78 f461      	BRNE _0x203
000f79 91e0 028d 	LDS  R30,_c2
000f7b 91a0 02e8 	LDS  R26,_SKAMBUTIS_15dm
000f7d 17ea      	CP   R30,R26
000f7e f431      	BRNE _0x203
000f7f 91e0 028e 	LDS  R30,_d2
000f81 91a0 02e9 	LDS  R26,_SKAMBUTIS_15m
000f83 17ea      	CP   R30,R26
000f84 f009      	BREQ _0x204
                 _0x203:
000f85 c003      	RJMP _0x202
                 _0x204:
                 ; 0000 049B       ISPEJAMASIS_SKAMBUTIS = 1;}
000f86 e0e1      	LDI  R30,LOW(1)
000f87 93e0 029f 	STS  _ISPEJAMASIS_SKAMBUTIS,R30
                 ; 0000 049C 
                 ; 0000 049D       if((SKAMBUTIS_17dh==a2)&&
                 _0x202:
                 ; 0000 049E       (SKAMBUTIS_17h==b2)&&
                 ; 0000 049F       (SKAMBUTIS_17dm==c2)&&
                 ; 0000 04A0       (SKAMBUTIS_17m==d2)){
000f89 91e0 028b 	LDS  R30,_a2
000f8b 91a0 02ee 	LDS  R26,_SKAMBUTIS_17dh
000f8d 17ea      	CP   R30,R26
000f8e f491      	BRNE _0x206
000f8f 91e0 028c 	LDS  R30,_b2
000f91 91a0 02ef 	LDS  R26,_SKAMBUTIS_17h
000f93 17ea      	CP   R30,R26
000f94 f461      	BRNE _0x206
000f95 91e0 028d 	LDS  R30,_c2
000f97 91a0 02f0 	LDS  R26,_SKAMBUTIS_17dm
000f99 17ea      	CP   R30,R26
000f9a f431      	BRNE _0x206
000f9b 91e0 028e 	LDS  R30,_d2
000f9d 91a0 02f1 	LDS  R26,_SKAMBUTIS_17m
000f9f 17ea      	CP   R30,R26
000fa0 f009      	BREQ _0x207
                 _0x206:
000fa1 c003      	RJMP _0x205
                 _0x207:
                 ; 0000 04A1       ISPEJAMASIS_SKAMBUTIS = 1;}
000fa2 e0e1      	LDI  R30,LOW(1)
000fa3 93e0 029f 	STS  _ISPEJAMASIS_SKAMBUTIS,R30
                 ; 0000 04A2 
                 ; 0000 04A3       if((SKAMBUTIS_19dh==a2)&&
                 _0x205:
                 ; 0000 04A4       (SKAMBUTIS_19h==b2)&&
                 ; 0000 04A5       (SKAMBUTIS_19dm==c2)&&
                 ; 0000 04A6       (SKAMBUTIS_19m==d2)){
000fa5 91e0 028b 	LDS  R30,_a2
000fa7 91a0 02f6 	LDS  R26,_SKAMBUTIS_19dh
000fa9 17ea      	CP   R30,R26
000faa f491      	BRNE _0x209
000fab 91e0 028c 	LDS  R30,_b2
000fad 91a0 02f7 	LDS  R26,_SKAMBUTIS_19h
000faf 17ea      	CP   R30,R26
000fb0 f461      	BRNE _0x209
000fb1 91e0 028d 	LDS  R30,_c2
000fb3 91a0 02f8 	LDS  R26,_SKAMBUTIS_19dm
000fb5 17ea      	CP   R30,R26
000fb6 f431      	BRNE _0x209
000fb7 91e0 028e 	LDS  R30,_d2
000fb9 91a0 02f9 	LDS  R26,_SKAMBUTIS_19m
000fbb 17ea      	CP   R30,R26
000fbc f009      	BREQ _0x20A
                 _0x209:
000fbd c003      	RJMP _0x208
                 _0x20A:
                 ; 0000 04A7       ISPEJAMASIS_SKAMBUTIS = 1;}
000fbe e0e1      	LDI  R30,LOW(1)
000fbf 93e0 029f 	STS  _ISPEJAMASIS_SKAMBUTIS,R30
                 ; 0000 04A8 
                 ; 0000 04A9 
                 ; 0000 04AA       if((ISPEJAMASIS_SKAMBUTIS==1)&&(puse_sekundes!=700)&&
                 _0x208:
                 ; 0000 04AB       (REDAGAVIMAS==0)){
000fc1 91a0 029f 	LDS  R26,_ISPEJAMASIS_SKAMBUTIS
000fc3 30a1      	CPI  R26,LOW(0x1)
000fc4 f461      	BRNE _0x20C
000fc5 91a0 0260 	LDS  R26,_puse_sekundes
000fc7 91b0 0261 	LDS  R27,_puse_sekundes+1
000fc9 3bac      	CPI  R26,LOW(0x2BC)
000fca e0e2      	LDI  R30,HIGH(0x2BC)
000fcb 07be      	CPC  R27,R30
000fcc f021      	BREQ _0x20C
000fcd 91a0 0295 	LDS  R26,_REDAGAVIMAS
000fcf 30a0      	CPI  R26,LOW(0x0)
000fd0 f009      	BREQ _0x20D
                 _0x20C:
000fd1 c00c      	RJMP _0x20B
                 _0x20D:
                 ; 0000 04AC       puse_sekundes = puse_sekundes + 1;
000fd2 91e0 0260 	LDS  R30,_puse_sekundes
000fd4 91f0 0261 	LDS  R31,_puse_sekundes+1
000fd6 9631      	ADIW R30,1
000fd7 93e0 0260 	STS  _puse_sekundes,R30
000fd9 93f0 0261 	STS  _puse_sekundes+1,R31
                 ; 0000 04AD       SKAMBUTIS_SKAMBA = 1;}
000fdb e0e1      	LDI  R30,LOW(1)
000fdc 93e0 029e 	STS  _SKAMBUTIS_SKAMBA,R30
                 ; 0000 04AE 
                 ; 0000 04AF       if(ISPEJAMASIS_SKAMBUTIS==0){
                 _0x20B:
000fde 91e0 029f 	LDS  R30,_ISPEJAMASIS_SKAMBUTIS
000fe0 30e0      	CPI  R30,0
000fe1 f429      	BRNE _0x20E
                 ; 0000 04B0       puse_sekundes = 0;}
000fe2 e0e0      	LDI  R30,LOW(0)
000fe3 93e0 0260 	STS  _puse_sekundes,R30
000fe5 93e0 0261 	STS  _puse_sekundes+1,R30
                 ; 0000 04B1 
                 ; 0000 04B2       //tikras_skambutis:
                 ; 0000 04B3       if((SKAMBUTIS_1dh==desimtys_valandos)&&
                 _0x20E:
                 ; 0000 04B4       (SKAMBUTIS_1h==valandos)&&
                 ; 0000 04B5       (SKAMBUTIS_1dm==desimtys_minutes)&&
                 ; 0000 04B6       (SKAMBUTIS_1m==minutes)){
000fe7 91e0 0285 	LDS  R30,_desimtys_valandos
000fe9 91a0 02ae 	LDS  R26,_SKAMBUTIS_1dh
000feb 17ea      	CP   R30,R26
000fec f491      	BRNE _0x210
000fed 91e0 0284 	LDS  R30,_valandos
000fef 91a0 02af 	LDS  R26,_SKAMBUTIS_1h
000ff1 17ea      	CP   R30,R26
000ff2 f461      	BRNE _0x210
000ff3 91e0 0283 	LDS  R30,_desimtys_minutes
000ff5 91a0 02b0 	LDS  R26,_SKAMBUTIS_1dm
000ff7 17ea      	CP   R30,R26
000ff8 f431      	BRNE _0x210
000ff9 91e0 0282 	LDS  R30,_minutes
000ffb 91a0 02b1 	LDS  R26,_SKAMBUTIS_1m
000ffd 17ea      	CP   R30,R26
000ffe f009      	BREQ _0x211
                 _0x210:
000fff c003      	RJMP _0x20F
                 _0x211:
                 ; 0000 04B7       SKAMBUTIS_TURETU_SKAMBETI = 1;}
001000 e0e1      	LDI  R30,LOW(1)
001001 93e0 029c 	STS  _SKAMBUTIS_TURETU_SKAMBETI,R30
                 ; 0000 04B8 
                 ; 0000 04B9       if((SKAMBUTIS_2dh==desimtys_valandos)&&
                 _0x20F:
                 ; 0000 04BA       (SKAMBUTIS_2h==valandos)&&
                 ; 0000 04BB       (SKAMBUTIS_2dm==desimtys_minutes)&&
                 ; 0000 04BC       (SKAMBUTIS_2m==minutes)){
001003 91e0 0285 	LDS  R30,_desimtys_valandos
001005 91a0 02b2 	LDS  R26,_SKAMBUTIS_2dh
001007 17ea      	CP   R30,R26
001008 f491      	BRNE _0x213
001009 91e0 0284 	LDS  R30,_valandos
00100b 91a0 02b3 	LDS  R26,_SKAMBUTIS_2h
00100d 17ea      	CP   R30,R26
00100e f461      	BRNE _0x213
00100f 91e0 0283 	LDS  R30,_desimtys_minutes
001011 91a0 02b4 	LDS  R26,_SKAMBUTIS_2dm
001013 17ea      	CP   R30,R26
001014 f431      	BRNE _0x213
001015 91e0 0282 	LDS  R30,_minutes
001017 91a0 02b5 	LDS  R26,_SKAMBUTIS_2m
001019 17ea      	CP   R30,R26
00101a f009      	BREQ _0x214
                 _0x213:
00101b c003      	RJMP _0x212
                 _0x214:
                 ; 0000 04BD       SKAMBUTIS_TURETU_SKAMBETI = 1;}
00101c e0e1      	LDI  R30,LOW(1)
00101d 93e0 029c 	STS  _SKAMBUTIS_TURETU_SKAMBETI,R30
                 ; 0000 04BE 
                 ; 0000 04BF       if((SKAMBUTIS_3dh==desimtys_valandos)&&
                 _0x212:
                 ; 0000 04C0       (SKAMBUTIS_3h==valandos)&&
                 ; 0000 04C1       (SKAMBUTIS_3dm==desimtys_minutes)&&
                 ; 0000 04C2       (SKAMBUTIS_3m==minutes)){
00101f 91e0 0285 	LDS  R30,_desimtys_valandos
001021 91a0 02b6 	LDS  R26,_SKAMBUTIS_3dh
001023 17ea      	CP   R30,R26
001024 f491      	BRNE _0x216
001025 91e0 0284 	LDS  R30,_valandos
001027 91a0 02b7 	LDS  R26,_SKAMBUTIS_3h
001029 17ea      	CP   R30,R26
00102a f461      	BRNE _0x216
00102b 91e0 0283 	LDS  R30,_desimtys_minutes
00102d 91a0 02b8 	LDS  R26,_SKAMBUTIS_3dm
00102f 17ea      	CP   R30,R26
001030 f431      	BRNE _0x216
001031 91e0 0282 	LDS  R30,_minutes
001033 91a0 02b9 	LDS  R26,_SKAMBUTIS_3m
001035 17ea      	CP   R30,R26
001036 f009      	BREQ _0x217
                 _0x216:
001037 c003      	RJMP _0x215
                 _0x217:
                 ; 0000 04C3       SKAMBUTIS_TURETU_SKAMBETI = 1;}
001038 e0e1      	LDI  R30,LOW(1)
001039 93e0 029c 	STS  _SKAMBUTIS_TURETU_SKAMBETI,R30
                 ; 0000 04C4 
                 ; 0000 04C5       if((SKAMBUTIS_4dh==desimtys_valandos)&&
                 _0x215:
                 ; 0000 04C6       (SKAMBUTIS_4h==valandos)&&
                 ; 0000 04C7       (SKAMBUTIS_4dm==desimtys_minutes)&&
                 ; 0000 04C8       (SKAMBUTIS_4m==minutes)){
00103b 91e0 0285 	LDS  R30,_desimtys_valandos
00103d 91a0 02ba 	LDS  R26,_SKAMBUTIS_4dh
00103f 17ea      	CP   R30,R26
001040 f491      	BRNE _0x219
001041 91e0 0284 	LDS  R30,_valandos
001043 91a0 02bb 	LDS  R26,_SKAMBUTIS_4h
001045 17ea      	CP   R30,R26
001046 f461      	BRNE _0x219
001047 91e0 0283 	LDS  R30,_desimtys_minutes
001049 91a0 02bc 	LDS  R26,_SKAMBUTIS_4dm
00104b 17ea      	CP   R30,R26
00104c f431      	BRNE _0x219
00104d 91e0 0282 	LDS  R30,_minutes
00104f 91a0 02bd 	LDS  R26,_SKAMBUTIS_4m
001051 17ea      	CP   R30,R26
001052 f009      	BREQ _0x21A
                 _0x219:
001053 c003      	RJMP _0x218
                 _0x21A:
                 ; 0000 04C9       SKAMBUTIS_TURETU_SKAMBETI = 1;}
001054 e0e1      	LDI  R30,LOW(1)
001055 93e0 029c 	STS  _SKAMBUTIS_TURETU_SKAMBETI,R30
                 ; 0000 04CA 
                 ; 0000 04CB       if((SKAMBUTIS_5dh==desimtys_valandos)&&
                 _0x218:
                 ; 0000 04CC       (SKAMBUTIS_5h==valandos)&&
                 ; 0000 04CD       (SKAMBUTIS_5dm==desimtys_minutes)&&
                 ; 0000 04CE       (SKAMBUTIS_5m==minutes)){
001057 91e0 0285 	LDS  R30,_desimtys_valandos
001059 91a0 02be 	LDS  R26,_SKAMBUTIS_5dh
00105b 17ea      	CP   R30,R26
00105c f491      	BRNE _0x21C
00105d 91e0 0284 	LDS  R30,_valandos
00105f 91a0 02bf 	LDS  R26,_SKAMBUTIS_5h
001061 17ea      	CP   R30,R26
001062 f461      	BRNE _0x21C
001063 91e0 0283 	LDS  R30,_desimtys_minutes
001065 91a0 02c0 	LDS  R26,_SKAMBUTIS_5dm
001067 17ea      	CP   R30,R26
001068 f431      	BRNE _0x21C
001069 91e0 0282 	LDS  R30,_minutes
00106b 91a0 02c1 	LDS  R26,_SKAMBUTIS_5m
00106d 17ea      	CP   R30,R26
00106e f009      	BREQ _0x21D
                 _0x21C:
00106f c003      	RJMP _0x21B
                 _0x21D:
                 ; 0000 04CF       SKAMBUTIS_TURETU_SKAMBETI = 1;}
001070 e0e1      	LDI  R30,LOW(1)
001071 93e0 029c 	STS  _SKAMBUTIS_TURETU_SKAMBETI,R30
                 ; 0000 04D0 
                 ; 0000 04D1       if((SKAMBUTIS_6dh==desimtys_valandos)&&
                 _0x21B:
                 ; 0000 04D2       (SKAMBUTIS_6h==valandos)&&
                 ; 0000 04D3       (SKAMBUTIS_6dm==desimtys_minutes)&&
                 ; 0000 04D4       (SKAMBUTIS_6m==minutes)){
001073 91e0 0285 	LDS  R30,_desimtys_valandos
001075 91a0 02c2 	LDS  R26,_SKAMBUTIS_6dh
001077 17ea      	CP   R30,R26
001078 f491      	BRNE _0x21F
001079 91e0 0284 	LDS  R30,_valandos
00107b 91a0 02c3 	LDS  R26,_SKAMBUTIS_6h
00107d 17ea      	CP   R30,R26
00107e f461      	BRNE _0x21F
00107f 91e0 0283 	LDS  R30,_desimtys_minutes
001081 91a0 02c4 	LDS  R26,_SKAMBUTIS_6dm
001083 17ea      	CP   R30,R26
001084 f431      	BRNE _0x21F
001085 91e0 0282 	LDS  R30,_minutes
001087 91a0 02c5 	LDS  R26,_SKAMBUTIS_6m
001089 17ea      	CP   R30,R26
00108a f009      	BREQ _0x220
                 _0x21F:
00108b c003      	RJMP _0x21E
                 _0x220:
                 ; 0000 04D5       SKAMBUTIS_TURETU_SKAMBETI = 1;}
00108c e0e1      	LDI  R30,LOW(1)
00108d 93e0 029c 	STS  _SKAMBUTIS_TURETU_SKAMBETI,R30
                 ; 0000 04D6 
                 ; 0000 04D7       if((SKAMBUTIS_7dh==desimtys_valandos)&&
                 _0x21E:
                 ; 0000 04D8       (SKAMBUTIS_7h==valandos)&&
                 ; 0000 04D9       (SKAMBUTIS_7dm==desimtys_minutes)&&
                 ; 0000 04DA       (SKAMBUTIS_7m==minutes)){
00108f 91e0 0285 	LDS  R30,_desimtys_valandos
001091 91a0 02c6 	LDS  R26,_SKAMBUTIS_7dh
001093 17ea      	CP   R30,R26
001094 f491      	BRNE _0x222
001095 91e0 0284 	LDS  R30,_valandos
001097 91a0 02c7 	LDS  R26,_SKAMBUTIS_7h
001099 17ea      	CP   R30,R26
00109a f461      	BRNE _0x222
00109b 91e0 0283 	LDS  R30,_desimtys_minutes
00109d 91a0 02c8 	LDS  R26,_SKAMBUTIS_7dm
00109f 17ea      	CP   R30,R26
0010a0 f431      	BRNE _0x222
0010a1 91e0 0282 	LDS  R30,_minutes
0010a3 91a0 02c9 	LDS  R26,_SKAMBUTIS_7m
0010a5 17ea      	CP   R30,R26
0010a6 f009      	BREQ _0x223
                 _0x222:
0010a7 c003      	RJMP _0x221
                 _0x223:
                 ; 0000 04DB       SKAMBUTIS_TURETU_SKAMBETI = 1;}
0010a8 e0e1      	LDI  R30,LOW(1)
0010a9 93e0 029c 	STS  _SKAMBUTIS_TURETU_SKAMBETI,R30
                 ; 0000 04DC 
                 ; 0000 04DD       if((SKAMBUTIS_8dh==desimtys_valandos)&&
                 _0x221:
                 ; 0000 04DE       (SKAMBUTIS_8h==valandos)&&
                 ; 0000 04DF       (SKAMBUTIS_8dm==desimtys_minutes)&&
                 ; 0000 04E0       (SKAMBUTIS_8m==minutes)){
0010ab 91e0 0285 	LDS  R30,_desimtys_valandos
0010ad 91a0 02ca 	LDS  R26,_SKAMBUTIS_8dh
0010af 17ea      	CP   R30,R26
0010b0 f491      	BRNE _0x225
0010b1 91e0 0284 	LDS  R30,_valandos
0010b3 91a0 02cb 	LDS  R26,_SKAMBUTIS_8h
0010b5 17ea      	CP   R30,R26
0010b6 f461      	BRNE _0x225
0010b7 91e0 0283 	LDS  R30,_desimtys_minutes
0010b9 91a0 02cc 	LDS  R26,_SKAMBUTIS_8dm
0010bb 17ea      	CP   R30,R26
0010bc f431      	BRNE _0x225
0010bd 91e0 0282 	LDS  R30,_minutes
0010bf 91a0 02cd 	LDS  R26,_SKAMBUTIS_8m
0010c1 17ea      	CP   R30,R26
0010c2 f009      	BREQ _0x226
                 _0x225:
0010c3 c003      	RJMP _0x224
                 _0x226:
                 ; 0000 04E1       SKAMBUTIS_TURETU_SKAMBETI = 1;}
0010c4 e0e1      	LDI  R30,LOW(1)
0010c5 93e0 029c 	STS  _SKAMBUTIS_TURETU_SKAMBETI,R30
                 ; 0000 04E2 
                 ; 0000 04E3       if((SKAMBUTIS_9dh==desimtys_valandos)&&
                 _0x224:
                 ; 0000 04E4       (SKAMBUTIS_9h==valandos)&&
                 ; 0000 04E5       (SKAMBUTIS_9dm==desimtys_minutes)&&
                 ; 0000 04E6       (SKAMBUTIS_9m==minutes)){
0010c7 91e0 0285 	LDS  R30,_desimtys_valandos
0010c9 91a0 02ce 	LDS  R26,_SKAMBUTIS_9dh
0010cb 17ea      	CP   R30,R26
0010cc f491      	BRNE _0x228
0010cd 91e0 0284 	LDS  R30,_valandos
0010cf 91a0 02cf 	LDS  R26,_SKAMBUTIS_9h
0010d1 17ea      	CP   R30,R26
0010d2 f461      	BRNE _0x228
0010d3 91e0 0283 	LDS  R30,_desimtys_minutes
0010d5 91a0 02d0 	LDS  R26,_SKAMBUTIS_9dm
0010d7 17ea      	CP   R30,R26
0010d8 f431      	BRNE _0x228
0010d9 91e0 0282 	LDS  R30,_minutes
0010db 91a0 02d1 	LDS  R26,_SKAMBUTIS_9m
0010dd 17ea      	CP   R30,R26
0010de f009      	BREQ _0x229
                 _0x228:
0010df c003      	RJMP _0x227
                 _0x229:
                 ; 0000 04E7       SKAMBUTIS_TURETU_SKAMBETI = 1;}
0010e0 e0e1      	LDI  R30,LOW(1)
0010e1 93e0 029c 	STS  _SKAMBUTIS_TURETU_SKAMBETI,R30
                 ; 0000 04E8 
                 ; 0000 04E9       if((SKAMBUTIS_10dh==desimtys_valandos)&&
                 _0x227:
                 ; 0000 04EA       (SKAMBUTIS_10h==valandos)&&
                 ; 0000 04EB       (SKAMBUTIS_10dm==desimtys_minutes)&&
                 ; 0000 04EC       (SKAMBUTIS_10m==minutes)){
0010e3 91e0 0285 	LDS  R30,_desimtys_valandos
0010e5 91a0 02d2 	LDS  R26,_SKAMBUTIS_10dh
0010e7 17ea      	CP   R30,R26
0010e8 f491      	BRNE _0x22B
0010e9 91e0 0284 	LDS  R30,_valandos
0010eb 91a0 02d3 	LDS  R26,_SKAMBUTIS_10h
0010ed 17ea      	CP   R30,R26
0010ee f461      	BRNE _0x22B
0010ef 91e0 0283 	LDS  R30,_desimtys_minutes
0010f1 91a0 02d4 	LDS  R26,_SKAMBUTIS_10dm
0010f3 17ea      	CP   R30,R26
0010f4 f431      	BRNE _0x22B
0010f5 91e0 0282 	LDS  R30,_minutes
0010f7 91a0 02d5 	LDS  R26,_SKAMBUTIS_10m
0010f9 17ea      	CP   R30,R26
0010fa f009      	BREQ _0x22C
                 _0x22B:
0010fb c003      	RJMP _0x22A
                 _0x22C:
                 ; 0000 04ED       SKAMBUTIS_TURETU_SKAMBETI = 1;}
0010fc e0e1      	LDI  R30,LOW(1)
0010fd 93e0 029c 	STS  _SKAMBUTIS_TURETU_SKAMBETI,R30
                 ; 0000 04EE 
                 ; 0000 04EF       if((SKAMBUTIS_11dh==desimtys_valandos)&&
                 _0x22A:
                 ; 0000 04F0       (SKAMBUTIS_11h==valandos)&&
                 ; 0000 04F1       (SKAMBUTIS_11dm==desimtys_minutes)&&
                 ; 0000 04F2       (SKAMBUTIS_11m==minutes)){
0010ff 91e0 0285 	LDS  R30,_desimtys_valandos
001101 91a0 02d6 	LDS  R26,_SKAMBUTIS_11dh
001103 17ea      	CP   R30,R26
001104 f491      	BRNE _0x22E
001105 91e0 0284 	LDS  R30,_valandos
001107 91a0 02d7 	LDS  R26,_SKAMBUTIS_11h
001109 17ea      	CP   R30,R26
00110a f461      	BRNE _0x22E
00110b 91e0 0283 	LDS  R30,_desimtys_minutes
00110d 91a0 02d8 	LDS  R26,_SKAMBUTIS_11dm
00110f 17ea      	CP   R30,R26
001110 f431      	BRNE _0x22E
001111 91e0 0282 	LDS  R30,_minutes
001113 91a0 02d9 	LDS  R26,_SKAMBUTIS_11m
001115 17ea      	CP   R30,R26
001116 f009      	BREQ _0x22F
                 _0x22E:
001117 c003      	RJMP _0x22D
                 _0x22F:
                 ; 0000 04F3       SKAMBUTIS_TURETU_SKAMBETI = 1;}
001118 e0e1      	LDI  R30,LOW(1)
001119 93e0 029c 	STS  _SKAMBUTIS_TURETU_SKAMBETI,R30
                 ; 0000 04F4 
                 ; 0000 04F5       if((SKAMBUTIS_12dh==desimtys_valandos)&&
                 _0x22D:
                 ; 0000 04F6       (SKAMBUTIS_12h==valandos)&&
                 ; 0000 04F7       (SKAMBUTIS_12dm==desimtys_minutes)&&
                 ; 0000 04F8       (SKAMBUTIS_12m==minutes)){
00111b 91e0 0285 	LDS  R30,_desimtys_valandos
00111d 91a0 02da 	LDS  R26,_SKAMBUTIS_12dh
00111f 17ea      	CP   R30,R26
001120 f491      	BRNE _0x231
001121 91e0 0284 	LDS  R30,_valandos
001123 91a0 02db 	LDS  R26,_SKAMBUTIS_12h
001125 17ea      	CP   R30,R26
001126 f461      	BRNE _0x231
001127 91e0 0283 	LDS  R30,_desimtys_minutes
001129 91a0 02dc 	LDS  R26,_SKAMBUTIS_12dm
00112b 17ea      	CP   R30,R26
00112c f431      	BRNE _0x231
00112d 91e0 0282 	LDS  R30,_minutes
00112f 91a0 02dd 	LDS  R26,_SKAMBUTIS_12m
001131 17ea      	CP   R30,R26
001132 f009      	BREQ _0x232
                 _0x231:
001133 c003      	RJMP _0x230
                 _0x232:
                 ; 0000 04F9       SKAMBUTIS_TURETU_SKAMBETI = 1;}
001134 e0e1      	LDI  R30,LOW(1)
001135 93e0 029c 	STS  _SKAMBUTIS_TURETU_SKAMBETI,R30
                 ; 0000 04FA 
                 ; 0000 04FB       if((SKAMBUTIS_13dh==desimtys_valandos)&&
                 _0x230:
                 ; 0000 04FC       (SKAMBUTIS_13h==valandos)&&
                 ; 0000 04FD       (SKAMBUTIS_13dm==desimtys_minutes)&&
                 ; 0000 04FE       (SKAMBUTIS_13m==minutes)){
001137 91e0 0285 	LDS  R30,_desimtys_valandos
001139 91a0 02de 	LDS  R26,_SKAMBUTIS_13dh
00113b 17ea      	CP   R30,R26
00113c f491      	BRNE _0x234
00113d 91e0 0284 	LDS  R30,_valandos
00113f 91a0 02df 	LDS  R26,_SKAMBUTIS_13h
001141 17ea      	CP   R30,R26
001142 f461      	BRNE _0x234
001143 91e0 0283 	LDS  R30,_desimtys_minutes
001145 91a0 02e0 	LDS  R26,_SKAMBUTIS_13dm
001147 17ea      	CP   R30,R26
001148 f431      	BRNE _0x234
001149 91e0 0282 	LDS  R30,_minutes
00114b 91a0 02e1 	LDS  R26,_SKAMBUTIS_13m
00114d 17ea      	CP   R30,R26
00114e f009      	BREQ _0x235
                 _0x234:
00114f c003      	RJMP _0x233
                 _0x235:
                 ; 0000 04FF       SKAMBUTIS_TURETU_SKAMBETI = 1;}
001150 e0e1      	LDI  R30,LOW(1)
001151 93e0 029c 	STS  _SKAMBUTIS_TURETU_SKAMBETI,R30
                 ; 0000 0500 
                 ; 0000 0501       if((SKAMBUTIS_14dh==desimtys_valandos)&&
                 _0x233:
                 ; 0000 0502       (SKAMBUTIS_14h==valandos)&&
                 ; 0000 0503       (SKAMBUTIS_14dm==desimtys_minutes)&&
                 ; 0000 0504       (SKAMBUTIS_14m==minutes)){
001153 91e0 0285 	LDS  R30,_desimtys_valandos
001155 91a0 02e2 	LDS  R26,_SKAMBUTIS_14dh
001157 17ea      	CP   R30,R26
001158 f491      	BRNE _0x237
001159 91e0 0284 	LDS  R30,_valandos
00115b 91a0 02e3 	LDS  R26,_SKAMBUTIS_14h
00115d 17ea      	CP   R30,R26
00115e f461      	BRNE _0x237
00115f 91e0 0283 	LDS  R30,_desimtys_minutes
001161 91a0 02e4 	LDS  R26,_SKAMBUTIS_14dm
001163 17ea      	CP   R30,R26
001164 f431      	BRNE _0x237
001165 91e0 0282 	LDS  R30,_minutes
001167 91a0 02e5 	LDS  R26,_SKAMBUTIS_14m
001169 17ea      	CP   R30,R26
00116a f009      	BREQ _0x238
                 _0x237:
00116b c003      	RJMP _0x236
                 _0x238:
                 ; 0000 0505       SKAMBUTIS_TURETU_SKAMBETI = 1;}
00116c e0e1      	LDI  R30,LOW(1)
00116d 93e0 029c 	STS  _SKAMBUTIS_TURETU_SKAMBETI,R30
                 ; 0000 0506 
                 ; 0000 0507       if((SKAMBUTIS_15dh==desimtys_valandos)&&
                 _0x236:
                 ; 0000 0508       (SKAMBUTIS_15h==valandos)&&
                 ; 0000 0509       (SKAMBUTIS_15dm==desimtys_minutes)&&
                 ; 0000 050A       (SKAMBUTIS_15m==minutes)){
00116f 91e0 0285 	LDS  R30,_desimtys_valandos
001171 91a0 02e6 	LDS  R26,_SKAMBUTIS_15dh
001173 17ea      	CP   R30,R26
001174 f491      	BRNE _0x23A
001175 91e0 0284 	LDS  R30,_valandos
001177 91a0 02e7 	LDS  R26,_SKAMBUTIS_15h
001179 17ea      	CP   R30,R26
00117a f461      	BRNE _0x23A
00117b 91e0 0283 	LDS  R30,_desimtys_minutes
00117d 91a0 02e8 	LDS  R26,_SKAMBUTIS_15dm
00117f 17ea      	CP   R30,R26
001180 f431      	BRNE _0x23A
001181 91e0 0282 	LDS  R30,_minutes
001183 91a0 02e9 	LDS  R26,_SKAMBUTIS_15m
001185 17ea      	CP   R30,R26
001186 f009      	BREQ _0x23B
                 _0x23A:
001187 c003      	RJMP _0x239
                 _0x23B:
                 ; 0000 050B       SKAMBUTIS_TURETU_SKAMBETI = 1;}
001188 e0e1      	LDI  R30,LOW(1)
001189 93e0 029c 	STS  _SKAMBUTIS_TURETU_SKAMBETI,R30
                 ; 0000 050C 
                 ; 0000 050D       if((SKAMBUTIS_16dh==desimtys_valandos)&&
                 _0x239:
                 ; 0000 050E       (SKAMBUTIS_16h==valandos)&&
                 ; 0000 050F       (SKAMBUTIS_16dm==desimtys_minutes)&&
                 ; 0000 0510       (SKAMBUTIS_16m==minutes)){
00118b 91e0 0285 	LDS  R30,_desimtys_valandos
00118d 91a0 02ea 	LDS  R26,_SKAMBUTIS_16dh
00118f 17ea      	CP   R30,R26
001190 f491      	BRNE _0x23D
001191 91e0 0284 	LDS  R30,_valandos
001193 91a0 02eb 	LDS  R26,_SKAMBUTIS_16h
001195 17ea      	CP   R30,R26
001196 f461      	BRNE _0x23D
001197 91e0 0283 	LDS  R30,_desimtys_minutes
001199 91a0 02ec 	LDS  R26,_SKAMBUTIS_16dm
00119b 17ea      	CP   R30,R26
00119c f431      	BRNE _0x23D
00119d 91e0 0282 	LDS  R30,_minutes
00119f 91a0 02ed 	LDS  R26,_SKAMBUTIS_16m
0011a1 17ea      	CP   R30,R26
0011a2 f009      	BREQ _0x23E
                 _0x23D:
0011a3 c003      	RJMP _0x23C
                 _0x23E:
                 ; 0000 0511       SKAMBUTIS_TURETU_SKAMBETI = 1;}
0011a4 e0e1      	LDI  R30,LOW(1)
0011a5 93e0 029c 	STS  _SKAMBUTIS_TURETU_SKAMBETI,R30
                 ; 0000 0512 
                 ; 0000 0513       if((SKAMBUTIS_17dh==desimtys_valandos)&&
                 _0x23C:
                 ; 0000 0514       (SKAMBUTIS_17h==valandos)&&
                 ; 0000 0515       (SKAMBUTIS_17dm==desimtys_minutes)&&
                 ; 0000 0516       (SKAMBUTIS_17m==minutes)){
0011a7 91e0 0285 	LDS  R30,_desimtys_valandos
0011a9 91a0 02ee 	LDS  R26,_SKAMBUTIS_17dh
0011ab 17ea      	CP   R30,R26
0011ac f491      	BRNE _0x240
0011ad 91e0 0284 	LDS  R30,_valandos
0011af 91a0 02ef 	LDS  R26,_SKAMBUTIS_17h
0011b1 17ea      	CP   R30,R26
0011b2 f461      	BRNE _0x240
0011b3 91e0 0283 	LDS  R30,_desimtys_minutes
0011b5 91a0 02f0 	LDS  R26,_SKAMBUTIS_17dm
0011b7 17ea      	CP   R30,R26
0011b8 f431      	BRNE _0x240
0011b9 91e0 0282 	LDS  R30,_minutes
0011bb 91a0 02f1 	LDS  R26,_SKAMBUTIS_17m
0011bd 17ea      	CP   R30,R26
0011be f009      	BREQ _0x241
                 _0x240:
0011bf c003      	RJMP _0x23F
                 _0x241:
                 ; 0000 0517       SKAMBUTIS_TURETU_SKAMBETI = 1;}
0011c0 e0e1      	LDI  R30,LOW(1)
0011c1 93e0 029c 	STS  _SKAMBUTIS_TURETU_SKAMBETI,R30
                 ; 0000 0518 
                 ; 0000 0519       if((SKAMBUTIS_18dh==desimtys_valandos)&&
                 _0x23F:
                 ; 0000 051A       (SKAMBUTIS_18h==valandos)&&
                 ; 0000 051B       (SKAMBUTIS_18dm==desimtys_minutes)&&
                 ; 0000 051C       (SKAMBUTIS_18m==minutes)){
0011c3 91e0 0285 	LDS  R30,_desimtys_valandos
0011c5 91a0 02f2 	LDS  R26,_SKAMBUTIS_18dh
0011c7 17ea      	CP   R30,R26
0011c8 f491      	BRNE _0x243
0011c9 91e0 0284 	LDS  R30,_valandos
0011cb 91a0 02f3 	LDS  R26,_SKAMBUTIS_18h
0011cd 17ea      	CP   R30,R26
0011ce f461      	BRNE _0x243
0011cf 91e0 0283 	LDS  R30,_desimtys_minutes
0011d1 91a0 02f4 	LDS  R26,_SKAMBUTIS_18dm
0011d3 17ea      	CP   R30,R26
0011d4 f431      	BRNE _0x243
0011d5 91e0 0282 	LDS  R30,_minutes
0011d7 91a0 02f5 	LDS  R26,_SKAMBUTIS_18m
0011d9 17ea      	CP   R30,R26
0011da f009      	BREQ _0x244
                 _0x243:
0011db c003      	RJMP _0x242
                 _0x244:
                 ; 0000 051D       SKAMBUTIS_TURETU_SKAMBETI = 1;}
0011dc e0e1      	LDI  R30,LOW(1)
0011dd 93e0 029c 	STS  _SKAMBUTIS_TURETU_SKAMBETI,R30
                 ; 0000 051E 
                 ; 0000 051F       if((SKAMBUTIS_19dh==desimtys_valandos)&&
                 _0x242:
                 ; 0000 0520       (SKAMBUTIS_19h==valandos)&&
                 ; 0000 0521       (SKAMBUTIS_19dm==desimtys_minutes)&&
                 ; 0000 0522       (SKAMBUTIS_19m==minutes)){
0011df 91e0 0285 	LDS  R30,_desimtys_valandos
0011e1 91a0 02f6 	LDS  R26,_SKAMBUTIS_19dh
0011e3 17ea      	CP   R30,R26
0011e4 f491      	BRNE _0x246
0011e5 91e0 0284 	LDS  R30,_valandos
0011e7 91a0 02f7 	LDS  R26,_SKAMBUTIS_19h
0011e9 17ea      	CP   R30,R26
0011ea f461      	BRNE _0x246
0011eb 91e0 0283 	LDS  R30,_desimtys_minutes
0011ed 91a0 02f8 	LDS  R26,_SKAMBUTIS_19dm
0011ef 17ea      	CP   R30,R26
0011f0 f431      	BRNE _0x246
0011f1 91e0 0282 	LDS  R30,_minutes
0011f3 91a0 02f9 	LDS  R26,_SKAMBUTIS_19m
0011f5 17ea      	CP   R30,R26
0011f6 f009      	BREQ _0x247
                 _0x246:
0011f7 c003      	RJMP _0x245
                 _0x247:
                 ; 0000 0523       SKAMBUTIS_TURETU_SKAMBETI = 1;}
0011f8 e0e1      	LDI  R30,LOW(1)
0011f9 93e0 029c 	STS  _SKAMBUTIS_TURETU_SKAMBETI,R30
                 ; 0000 0524 
                 ; 0000 0525       if((SKAMBUTIS_20dh==desimtys_valandos)&&
                 _0x245:
                 ; 0000 0526       (SKAMBUTIS_20h==valandos)&&
                 ; 0000 0527       (SKAMBUTIS_20dm==desimtys_minutes)&&
                 ; 0000 0528       (SKAMBUTIS_20m==minutes)){
0011fb 91e0 0285 	LDS  R30,_desimtys_valandos
0011fd 91a0 02fa 	LDS  R26,_SKAMBUTIS_20dh
0011ff 17ea      	CP   R30,R26
001200 f491      	BRNE _0x249
001201 91e0 0284 	LDS  R30,_valandos
001203 91a0 02fb 	LDS  R26,_SKAMBUTIS_20h
001205 17ea      	CP   R30,R26
001206 f461      	BRNE _0x249
001207 91e0 0283 	LDS  R30,_desimtys_minutes
001209 91a0 02fc 	LDS  R26,_SKAMBUTIS_20dm
00120b 17ea      	CP   R30,R26
00120c f431      	BRNE _0x249
00120d 91e0 0282 	LDS  R30,_minutes
00120f 91a0 02fd 	LDS  R26,_SKAMBUTIS_20m
001211 17ea      	CP   R30,R26
001212 f009      	BREQ _0x24A
                 _0x249:
001213 c003      	RJMP _0x248
                 _0x24A:
                 ; 0000 0529       SKAMBUTIS_TURETU_SKAMBETI = 1;}
001214 e0e1      	LDI  R30,LOW(1)
001215 93e0 029c 	STS  _SKAMBUTIS_TURETU_SKAMBETI,R30
                 ; 0000 052A 
                 ; 0000 052B       if(SKAMBUTIS_TURETU_SKAMBETI==0){
                 _0x248:
001217 91e0 029c 	LDS  R30,_SKAMBUTIS_TURETU_SKAMBETI
001219 30e0      	CPI  R30,0
00121a f419      	BRNE _0x24B
                 ; 0000 052C       Sesios_sekundes = 0;}
00121b e0e0      	LDI  R30,LOW(0)
00121c 93e0 029d 	STS  _Sesios_sekundes,R30
                 ; 0000 052D 
                 ; 0000 052E       if((SKAMBUTIS_TURETU_SKAMBETI==1)&&(Sesios_sekundes!=6)){
                 _0x24B:
00121e 91a0 029c 	LDS  R26,_SKAMBUTIS_TURETU_SKAMBETI
001220 30a1      	CPI  R26,LOW(0x1)
001221 f421      	BRNE _0x24D
001222 91a0 029d 	LDS  R26,_Sesios_sekundes
001224 30a6      	CPI  R26,LOW(0x6)
001225 f409      	BRNE _0x24E
                 _0x24D:
001226 c014      	RJMP _0x24C
                 _0x24E:
                 ; 0000 052F       viena_sekunde3 = viena_sekunde3 + 1;}
001227 91e0 0266 	LDS  R30,_viena_sekunde3
001229 91f0 0267 	LDS  R31,_viena_sekunde3+1
00122b 9160 0268 	LDS  R22,_viena_sekunde3+2
00122d 9170 0269 	LDS  R23,_viena_sekunde3+3
                +
00122f 5fef     +SUBI R30 , LOW ( - 1 )
001230 4fff     +SBCI R31 , HIGH ( - 1 )
001231 4f6f     +SBCI R22 , BYTE3 ( - 1 )
001232 4f7f     +SBCI R23 , BYTE4 ( - 1 )
                 	__ADDD1N 1
001233 93e0 0266 	STS  _viena_sekunde3,R30
001235 93f0 0267 	STS  _viena_sekunde3+1,R31
001237 9360 0268 	STS  _viena_sekunde3+2,R22
001239 9370 0269 	STS  _viena_sekunde3+3,R23
                 ; 0000 0530 
                 ; 0000 0531       if(viena_sekunde3==1000){
                 _0x24C:
00123b 91a0 0266 	LDS  R26,_viena_sekunde3
00123d 91b0 0267 	LDS  R27,_viena_sekunde3+1
00123f 9180 0268 	LDS  R24,_viena_sekunde3+2
001241 9190 0269 	LDS  R25,_viena_sekunde3+3
                +
001243 3ea8     +CPI R26 , LOW ( 0x3E8 )
001244 e0e3     +LDI R30 , HIGH ( 0x3E8 )
001245 07be     +CPC R27 , R30
001246 e0e0     +LDI R30 , BYTE3 ( 0x3E8 )
001247 078e     +CPC R24 , R30
001248 e0e0     +LDI R30 , BYTE4 ( 0x3E8 )
001249 079e     +CPC R25 , R30
                 	__CPD2N 0x3E8
00124a f471      	BRNE _0x24F
                 ; 0000 0532       Sesios_sekundes = Sesios_sekundes + 1;
00124b 91e0 029d 	LDS  R30,_Sesios_sekundes
00124d 5fef      	SUBI R30,-LOW(1)
00124e 93e0 029d 	STS  _Sesios_sekundes,R30
                 ; 0000 0533       viena_sekunde3 = 0;}
001250 e0e0      	LDI  R30,LOW(0)
001251 93e0 0266 	STS  _viena_sekunde3,R30
001253 93e0 0267 	STS  _viena_sekunde3+1,R30
001255 93e0 0268 	STS  _viena_sekunde3+2,R30
001257 93e0 0269 	STS  _viena_sekunde3+3,R30
                 ; 0000 0534 
                 ; 0000 0535       if((Sesios_sekundes!=0)&&(Sesios_sekundes!=6)&&
                 _0x24F:
                 ; 0000 0536       (REDAGAVIMAS==0)){
001259 91a0 029d 	LDS  R26,_Sesios_sekundes
00125b 30a0      	CPI  R26,LOW(0x0)
00125c f031      	BREQ _0x251
00125d 30a6      	CPI  R26,LOW(0x6)
00125e f021      	BREQ _0x251
00125f 91a0 0295 	LDS  R26,_REDAGAVIMAS
001261 30a0      	CPI  R26,LOW(0x0)
001262 f009      	BREQ _0x252
                 _0x251:
001263 c003      	RJMP _0x250
                 _0x252:
                 ; 0000 0537       SKAMBUTIS_SKAMBA = 1;}
001264 e0e1      	LDI  R30,LOW(1)
001265 93e0 029e 	STS  _SKAMBUTIS_SKAMBA,R30
                 ; 0000 0538 
                 ; 0000 0539 
                 ; 0000 053A       //VISUAL:
                 ; 0000 053B       if(DB_LAIKO_RODYMAS==1){
                 _0x250:
001267 91a0 02a0 	LDS  R26,_DB_LAIKO_RODYMAS
001269 30a1      	CPI  R26,LOW(0x1)
00126a f011      	BREQ PC+3
00126b 940c 135e 	JMP _0x253
                 ; 0000 053C       //tikras laikas:
                 ; 0000 053D       if(EILUTES_SKAICIUS==0){
00126d 91e0 0297 	LDS  R30,_EILUTES_SKAICIUS
00126f 30e0      	CPI  R30,0
001270 f011      	BREQ PC+3
001271 940c 135e 	JMP _0x254
                 ; 0000 053E 
                 ; 0000 053F       viena_sekunde5 = viena_sekunde5 + 1;
001273 01f6      	MOVW R30,R12
001274 9631      	ADIW R30,1
001275 016f      	MOVW R12,R30
                 ; 0000 0540       if(viena_sekunde5==1000){
001276 eee8      	LDI  R30,LOW(1000)
001277 e0f3      	LDI  R31,HIGH(1000)
001278 15ec      	CP   R30,R12
001279 05fd      	CPC  R31,R13
00127a f439      	BRNE _0x255
                 ; 0000 0541       DESIMT_SEKUNDZIU = DESIMT_SEKUNDZIU + 1;
00127b 91e0 029b 	LDS  R30,_DESIMT_SEKUNDZIU
00127d 5fef      	SUBI R30,-LOW(1)
00127e 93e0 029b 	STS  _DESIMT_SEKUNDZIU,R30
                 ; 0000 0542       viena_sekunde5 = 0;}
001280 24cc      	CLR  R12
001281 24dd      	CLR  R13
                 ; 0000 0543       if(DESIMT_SEKUNDZIU==10){
                 _0x255:
001282 91a0 029b 	LDS  R26,_DESIMT_SEKUNDZIU
001284 30aa      	CPI  R26,LOW(0xA)
001285 f419      	BRNE _0x256
                 ; 0000 0544       DESIMT_SEKUNDZIU = 0;}
001286 e0e0      	LDI  R30,LOW(0)
001287 93e0 029b 	STS  _DESIMT_SEKUNDZIU,R30
                 ; 0000 0545 
                 ; 0000 0546       if(DESIMT_SEKUNDZIU==1){
                 _0x256:
001289 91a0 029b 	LDS  R26,_DESIMT_SEKUNDZIU
00128b 30a1      	CPI  R26,LOW(0x1)
00128c f439      	BRNE _0x257
                 ; 0000 0547       if(OSC==12){
00128d 91a0 026f 	LDS  R26,_OSC
00128f 30ac      	CPI  R26,LOW(0xC)
001290 f419      	BRNE _0x258
                 ; 0000 0548       a = 14;}}
001291 e0ee      	LDI  R30,LOW(14)
001292 93e0 0286 	STS  _a,R30
                 _0x258:
                 ; 0000 0549 
                 ; 0000 054A       if(DESIMT_SEKUNDZIU==2){
                 _0x257:
001294 91a0 029b 	LDS  R26,_DESIMT_SEKUNDZIU
001296 30a2      	CPI  R26,LOW(0x2)
001297 f471      	BRNE _0x259
                 ; 0000 054B       if(OSC==8){
001298 91a0 026f 	LDS  R26,_OSC
00129a 30a8      	CPI  R26,LOW(0x8)
00129b f419      	BRNE _0x25A
                 ; 0000 054C       a = 14;}
00129c e0ee      	LDI  R30,LOW(14)
00129d 93e0 0286 	STS  _a,R30
                 ; 0000 054D       if(OSC==12){
                 _0x25A:
00129f 91a0 026f 	LDS  R26,_OSC
0012a1 30ac      	CPI  R26,LOW(0xC)
0012a2 f419      	BRNE _0x25B
                 ; 0000 054E       a = 10;}}
0012a3 e0ea      	LDI  R30,LOW(10)
0012a4 93e0 0286 	STS  _a,R30
                 _0x25B:
                 ; 0000 054F 
                 ; 0000 0550       if(DESIMT_SEKUNDZIU==3){
                 _0x259:
0012a6 91a0 029b 	LDS  R26,_DESIMT_SEKUNDZIU
0012a8 30a3      	CPI  R26,LOW(0x3)
0012a9 f4a9      	BRNE _0x25C
                 ; 0000 0551       if(OSC==4){
0012aa 91a0 026f 	LDS  R26,_OSC
0012ac 30a4      	CPI  R26,LOW(0x4)
0012ad f419      	BRNE _0x25D
                 ; 0000 0552       a = 14;}
0012ae e0ee      	LDI  R30,LOW(14)
0012af 93e0 0286 	STS  _a,R30
                 ; 0000 0553       if(OSC==8){
                 _0x25D:
0012b1 91a0 026f 	LDS  R26,_OSC
0012b3 30a8      	CPI  R26,LOW(0x8)
0012b4 f419      	BRNE _0x25E
                 ; 0000 0554       a = 10;}
0012b5 e0ea      	LDI  R30,LOW(10)
0012b6 93e0 0286 	STS  _a,R30
                 ; 0000 0555       if(OSC==12){
                 _0x25E:
0012b8 91a0 026f 	LDS  R26,_OSC
0012ba 30ac      	CPI  R26,LOW(0xC)
0012bb f419      	BRNE _0x25F
                 ; 0000 0556       a = 11;}}
0012bc e0eb      	LDI  R30,LOW(11)
0012bd 93e0 0286 	STS  _a,R30
                 _0x25F:
                 ; 0000 0557 
                 ; 0000 0558       if(DESIMT_SEKUNDZIU==4){
                 _0x25C:
0012bf 91a0 029b 	LDS  R26,_DESIMT_SEKUNDZIU
0012c1 30a4      	CPI  R26,LOW(0x4)
0012c2 f4e1      	BRNE _0x260
                 ; 0000 0559       if(OSC==0){
0012c3 91e0 026f 	LDS  R30,_OSC
0012c5 30e0      	CPI  R30,0
0012c6 f419      	BRNE _0x261
                 ; 0000 055A       a = 14;}
0012c7 e0ee      	LDI  R30,LOW(14)
0012c8 93e0 0286 	STS  _a,R30
                 ; 0000 055B       if(OSC==4){
                 _0x261:
0012ca 91a0 026f 	LDS  R26,_OSC
0012cc 30a4      	CPI  R26,LOW(0x4)
0012cd f419      	BRNE _0x262
                 ; 0000 055C       a = 10;}
0012ce e0ea      	LDI  R30,LOW(10)
0012cf 93e0 0286 	STS  _a,R30
                 ; 0000 055D       if(OSC==8){
                 _0x262:
0012d1 91a0 026f 	LDS  R26,_OSC
0012d3 30a8      	CPI  R26,LOW(0x8)
0012d4 f419      	BRNE _0x263
                 ; 0000 055E       a = 11;}
0012d5 e0eb      	LDI  R30,LOW(11)
0012d6 93e0 0286 	STS  _a,R30
                 ; 0000 055F       if(OSC==12){
                 _0x263:
0012d8 91a0 026f 	LDS  R26,_OSC
0012da 30ac      	CPI  R26,LOW(0xC)
0012db f419      	BRNE _0x264
                 ; 0000 0560       a = 10;}}
0012dc e0ea      	LDI  R30,LOW(10)
0012dd 93e0 0286 	STS  _a,R30
                 _0x264:
                 ; 0000 0561 
                 ; 0000 0562       if(DESIMT_SEKUNDZIU==5){
                 _0x260:
0012df 91a0 029b 	LDS  R26,_DESIMT_SEKUNDZIU
0012e1 30a5      	CPI  R26,LOW(0x5)
0012e2 f4e1      	BRNE _0x265
                 ; 0000 0563       if(OSC==0){
0012e3 91e0 026f 	LDS  R30,_OSC
0012e5 30e0      	CPI  R30,0
0012e6 f419      	BRNE _0x266
                 ; 0000 0564       a = 10;}
0012e7 e0ea      	LDI  R30,LOW(10)
0012e8 93e0 0286 	STS  _a,R30
                 ; 0000 0565       if(OSC==4){
                 _0x266:
0012ea 91a0 026f 	LDS  R26,_OSC
0012ec 30a4      	CPI  R26,LOW(0x4)
0012ed f419      	BRNE _0x267
                 ; 0000 0566       a = 11;}
0012ee e0eb      	LDI  R30,LOW(11)
0012ef 93e0 0286 	STS  _a,R30
                 ; 0000 0567       if(OSC==8){
                 _0x267:
0012f1 91a0 026f 	LDS  R26,_OSC
0012f3 30a8      	CPI  R26,LOW(0x8)
0012f4 f419      	BRNE _0x268
                 ; 0000 0568       a = 10;}
0012f5 e0ea      	LDI  R30,LOW(10)
0012f6 93e0 0286 	STS  _a,R30
                 ; 0000 0569       if(OSC==12){
                 _0x268:
0012f8 91a0 026f 	LDS  R26,_OSC
0012fa 30ac      	CPI  R26,LOW(0xC)
0012fb f419      	BRNE _0x269
                 ; 0000 056A       a = 30;}}
0012fc e1ee      	LDI  R30,LOW(30)
0012fd 93e0 0286 	STS  _a,R30
                 _0x269:
                 ; 0000 056B 
                 ; 0000 056C       if(DESIMT_SEKUNDZIU==6){
                 _0x265:
0012ff 91a0 029b 	LDS  R26,_DESIMT_SEKUNDZIU
001301 30a6      	CPI  R26,LOW(0x6)
001302 f4a9      	BRNE _0x26A
                 ; 0000 056D       if(OSC==0){
001303 91e0 026f 	LDS  R30,_OSC
001305 30e0      	CPI  R30,0
001306 f419      	BRNE _0x26B
                 ; 0000 056E       a = 11;}
001307 e0eb      	LDI  R30,LOW(11)
001308 93e0 0286 	STS  _a,R30
                 ; 0000 056F       if(OSC==4){
                 _0x26B:
00130a 91a0 026f 	LDS  R26,_OSC
00130c 30a4      	CPI  R26,LOW(0x4)
00130d f419      	BRNE _0x26C
                 ; 0000 0570       a = 10;}
00130e e0ea      	LDI  R30,LOW(10)
00130f 93e0 0286 	STS  _a,R30
                 ; 0000 0571       if(OSC==8){
                 _0x26C:
001311 91a0 026f 	LDS  R26,_OSC
001313 30a8      	CPI  R26,LOW(0x8)
001314 f419      	BRNE _0x26D
                 ; 0000 0572       a = 30;}}
001315 e1ee      	LDI  R30,LOW(30)
001316 93e0 0286 	STS  _a,R30
                 _0x26D:
                 ; 0000 0573 
                 ; 0000 0574       if(DESIMT_SEKUNDZIU==7){
                 _0x26A:
001318 91a0 029b 	LDS  R26,_DESIMT_SEKUNDZIU
00131a 30a7      	CPI  R26,LOW(0x7)
00131b f471      	BRNE _0x26E
                 ; 0000 0575       if(OSC==0){
00131c 91e0 026f 	LDS  R30,_OSC
00131e 30e0      	CPI  R30,0
00131f f419      	BRNE _0x26F
                 ; 0000 0576       a = 10;}
001320 e0ea      	LDI  R30,LOW(10)
001321 93e0 0286 	STS  _a,R30
                 ; 0000 0577       if(OSC==4){
                 _0x26F:
001323 91a0 026f 	LDS  R26,_OSC
001325 30a4      	CPI  R26,LOW(0x4)
001326 f419      	BRNE _0x270
                 ; 0000 0578       a = 30;}}
001327 e1ee      	LDI  R30,LOW(30)
001328 93e0 0286 	STS  _a,R30
                 _0x270:
                 ; 0000 0579 
                 ; 0000 057A       if(DESIMT_SEKUNDZIU==8){
                 _0x26E:
00132a 91a0 029b 	LDS  R26,_DESIMT_SEKUNDZIU
00132c 30a8      	CPI  R26,LOW(0x8)
00132d f439      	BRNE _0x271
                 ; 0000 057B       if(OSC==0){
00132e 91e0 026f 	LDS  R30,_OSC
001330 30e0      	CPI  R30,0
001331 f419      	BRNE _0x272
                 ; 0000 057C       a = 30;}}
001332 e1ee      	LDI  R30,LOW(30)
001333 93e0 0286 	STS  _a,R30
                 _0x272:
                 ; 0000 057D 
                 ; 0000 057E       if(OSC==16){
                 _0x271:
001335 91a0 026f 	LDS  R26,_OSC
001337 31a0      	CPI  R26,LOW(0x10)
001338 f421      	BRNE _0x273
                 ; 0000 057F       a = desimtys_valandos;}
001339 91e0 0285 	LDS  R30,_desimtys_valandos
00133b 93e0 0286 	STS  _a,R30
                 ; 0000 0580       if(OSC==20){
                 _0x273:
00133d 91a0 026f 	LDS  R26,_OSC
00133f 31a4      	CPI  R26,LOW(0x14)
001340 f419      	BRNE _0x274
                 ; 0000 0581       a = valandos;
001341 91e0 0284 	LDS  R30,_valandos
001343 d2ef      	RCALL SUBOPT_0xC
                 ; 0000 0582       segm_h = 1;}
                 ; 0000 0583       if(OSC==24){
                 _0x274:
001344 91a0 026f 	LDS  R26,_OSC
001346 31a8      	CPI  R26,LOW(0x18)
001347 f421      	BRNE _0x275
                 ; 0000 0584       a = desimtys_minutes;}
001348 91e0 0283 	LDS  R30,_desimtys_minutes
00134a 93e0 0286 	STS  _a,R30
                 ; 0000 0585       if(OSC==28){
                 _0x275:
00134c 91a0 026f 	LDS  R26,_OSC
00134e 31ac      	CPI  R26,LOW(0x1C)
00134f f421      	BRNE _0x276
                 ; 0000 0586       a = minutes;}
001350 91e0 0282 	LDS  R30,_minutes
001352 93e0 0286 	STS  _a,R30
                 ; 0000 0587 
                 ; 0000 0588       if((PINC.0==1)&&(OSC==12)){
                 _0x276:
001354 9b98      	SBIS 0x13,0
001355 c004      	RJMP _0x278
001356 91a0 026f 	LDS  R26,_OSC
001358 30ac      	CPI  R26,LOW(0xC)
001359 f009      	BREQ _0x279
                 _0x278:
00135a c003      	RJMP _0x277
                 _0x279:
                 ; 0000 0589       segm_h = 1;}}}
00135b e0e1      	LDI  R30,LOW(1)
00135c 93e0 027f 	STS  _segm_h,R30
                 _0x277:
                 _0x254:
                 ; 0000 058A       //skambucio laikas:
                 ; 0000 058B       if(EILUTES_SKAICIUS!=0){
                 _0x253:
00135e 91e0 0297 	LDS  R30,_EILUTES_SKAICIUS
001360 30e0      	CPI  R30,0
001361 f1e9      	BREQ _0x27A
                 ; 0000 058C       viena_sekunde5 = 0;
001362 24cc      	CLR  R12
001363 24dd      	CLR  R13
                 ; 0000 058D       if(OSC==0){
001364 91e0 026f 	LDS  R30,_OSC
001366 30e0      	CPI  R30,0
001367 f419      	BRNE _0x27B
                 ; 0000 058E       a = 25;}
001368 e1e9      	LDI  R30,LOW(25)
001369 93e0 0286 	STS  _a,R30
                 ; 0000 058F       if(OSC==4){
                 _0x27B:
00136b 91a0 026f 	LDS  R26,_OSC
00136d 30a4      	CPI  R26,LOW(0x4)
00136e f411      	BRNE _0x27C
                 ; 0000 0590       a = 26;
00136f e1ea      	LDI  R30,LOW(26)
001370 d2c2      	RCALL SUBOPT_0xC
                 ; 0000 0591       segm_h = 1;}
                 ; 0000 0592       if(OSC==8){
                 _0x27C:
001371 91a0 026f 	LDS  R26,_OSC
001373 30a8      	CPI  R26,LOW(0x8)
001374 f421      	BRNE _0x27D
                 ; 0000 0593       a = d;}
001375 91e0 0290 	LDS  R30,_d
001377 93e0 0286 	STS  _a,R30
                 ; 0000 0594       if(OSC==12){
                 _0x27D:
001379 91a0 026f 	LDS  R26,_OSC
00137b 30ac      	CPI  R26,LOW(0xC)
00137c f419      	BRNE _0x27E
                 ; 0000 0595       a = e;
00137d 91e0 0291 	LDS  R30,_e
00137f d2b3      	RCALL SUBOPT_0xC
                 ; 0000 0596       segm_h = 1;}
                 ; 0000 0597       if(OSC==16){
                 _0x27E:
001380 91a0 026f 	LDS  R26,_OSC
001382 31a0      	CPI  R26,LOW(0x10)
001383 f421      	BRNE _0x27F
                 ; 0000 0598       a = x;}
001384 91e0 0287 	LDS  R30,_x
001386 93e0 0286 	STS  _a,R30
                 ; 0000 0599       if(OSC==20){
                 _0x27F:
001388 91a0 026f 	LDS  R26,_OSC
00138a 31a4      	CPI  R26,LOW(0x14)
00138b f419      	BRNE _0x280
                 ; 0000 059A       a = y;
00138c 91e0 0288 	LDS  R30,_y
00138e d2a4      	RCALL SUBOPT_0xC
                 ; 0000 059B       segm_h = 1;}
                 ; 0000 059C       if(OSC==24){
                 _0x280:
00138f 91a0 026f 	LDS  R26,_OSC
001391 31a8      	CPI  R26,LOW(0x18)
001392 f421      	BRNE _0x281
                 ; 0000 059D       a = z;}
001393 91e0 0289 	LDS  R30,_z
001395 93e0 0286 	STS  _a,R30
                 ; 0000 059E       if(OSC==28){
                 _0x281:
001397 91a0 026f 	LDS  R26,_OSC
001399 31ac      	CPI  R26,LOW(0x1C)
00139a f421      	BRNE _0x282
                 ; 0000 059F       a = k;}}
00139b 91e0 028a 	LDS  R30,_k
00139d 93e0 0286 	STS  _a,R30
                 _0x282:
                 ; 0000 05A0 
                 ; 0000 05A1 
                 ; 0000 05A2       //BLYKCIOJIMAS:
                 ; 0000 05A3       viena_sekunde1 = viena_sekunde1 + 1;
                 _0x27A:
00139f 01f2      	MOVW R30,R4
0013a0 9631      	ADIW R30,1
0013a1 012f      	MOVW R4,R30
                 ; 0000 05A4       if((viena_sekunde1==1000)&&(BLYKCIOTI==0)){
0013a2 eee8      	LDI  R30,LOW(1000)
0013a3 e0f3      	LDI  R31,HIGH(1000)
0013a4 15e4      	CP   R30,R4
0013a5 05f5      	CPC  R31,R5
0013a6 f421      	BRNE _0x284
0013a7 91a0 0299 	LDS  R26,_BLYKCIOTI
0013a9 30a0      	CPI  R26,LOW(0x0)
0013aa f009      	BREQ _0x285
                 _0x284:
0013ab c005      	RJMP _0x283
                 _0x285:
                 ; 0000 05A5       BLYKCIOTI = 1;
0013ac e0e1      	LDI  R30,LOW(1)
0013ad 93e0 0299 	STS  _BLYKCIOTI,R30
                 ; 0000 05A6       viena_sekunde1 = 0;}
0013af 2444      	CLR  R4
0013b0 2455      	CLR  R5
                 ; 0000 05A7       if((viena_sekunde1==1000)&&(BLYKCIOTI==1)){
                 _0x283:
0013b1 eee8      	LDI  R30,LOW(1000)
0013b2 e0f3      	LDI  R31,HIGH(1000)
0013b3 15e4      	CP   R30,R4
0013b4 05f5      	CPC  R31,R5
0013b5 f421      	BRNE _0x287
0013b6 91a0 0299 	LDS  R26,_BLYKCIOTI
0013b8 30a1      	CPI  R26,LOW(0x1)
0013b9 f009      	BREQ _0x288
                 _0x287:
0013ba c005      	RJMP _0x286
                 _0x288:
                 ; 0000 05A8       BLYKCIOTI = 0;
0013bb e0e0      	LDI  R30,LOW(0)
0013bc 93e0 0299 	STS  _BLYKCIOTI,R30
                 ; 0000 05A9       viena_sekunde1 = 0;}
0013be 2444      	CLR  R4
0013bf 2455      	CLR  R5
                 ; 0000 05AA 
                 ; 0000 05AB 
                 ; 0000 05AC 
                 ; 0000 05AD       if((REDAGAVIMAS==1)&&(REDAG_SK_NR==0)&&(BLYKCIOTI==1)){
                 _0x286:
0013c0 91a0 0295 	LDS  R26,_REDAGAVIMAS
0013c2 30a1      	CPI  R26,LOW(0x1)
0013c3 f441      	BRNE _0x28A
0013c4 91a0 0296 	LDS  R26,_REDAG_SK_NR
0013c6 30a0      	CPI  R26,LOW(0x0)
0013c7 f421      	BRNE _0x28A
0013c8 91a0 0299 	LDS  R26,_BLYKCIOTI
0013ca 30a1      	CPI  R26,LOW(0x1)
0013cb f009      	BREQ _0x28B
                 _0x28A:
0013cc c007      	RJMP _0x289
                 _0x28B:
                 ; 0000 05AE       if(OSC==16){
0013cd 91a0 026f 	LDS  R26,_OSC
0013cf 31a0      	CPI  R26,LOW(0x10)
0013d0 f419      	BRNE _0x28C
                 ; 0000 05AF       a = 33;}}
0013d1 e2e1      	LDI  R30,LOW(33)
0013d2 93e0 0286 	STS  _a,R30
                 _0x28C:
                 ; 0000 05B0       if((REDAGAVIMAS==1)&&(REDAG_SK_NR==1)&&(BLYKCIOTI==1)){
                 _0x289:
0013d4 91a0 0295 	LDS  R26,_REDAGAVIMAS
0013d6 30a1      	CPI  R26,LOW(0x1)
0013d7 f441      	BRNE _0x28E
0013d8 91a0 0296 	LDS  R26,_REDAG_SK_NR
0013da 30a1      	CPI  R26,LOW(0x1)
0013db f421      	BRNE _0x28E
0013dc 91a0 0299 	LDS  R26,_BLYKCIOTI
0013de 30a1      	CPI  R26,LOW(0x1)
0013df f009      	BREQ _0x28F
                 _0x28E:
0013e0 c007      	RJMP _0x28D
                 _0x28F:
                 ; 0000 05B1       if(OSC==20){
0013e1 91a0 026f 	LDS  R26,_OSC
0013e3 31a4      	CPI  R26,LOW(0x14)
0013e4 f419      	BRNE _0x290
                 ; 0000 05B2       a = 33;}}
0013e5 e2e1      	LDI  R30,LOW(33)
0013e6 93e0 0286 	STS  _a,R30
                 _0x290:
                 ; 0000 05B3       if((REDAGAVIMAS==1)&&(REDAG_SK_NR==2)&&(BLYKCIOTI==1)){
                 _0x28D:
0013e8 91a0 0295 	LDS  R26,_REDAGAVIMAS
0013ea 30a1      	CPI  R26,LOW(0x1)
0013eb f441      	BRNE _0x292
0013ec 91a0 0296 	LDS  R26,_REDAG_SK_NR
0013ee 30a2      	CPI  R26,LOW(0x2)
0013ef f421      	BRNE _0x292
0013f0 91a0 0299 	LDS  R26,_BLYKCIOTI
0013f2 30a1      	CPI  R26,LOW(0x1)
0013f3 f009      	BREQ _0x293
                 _0x292:
0013f4 c007      	RJMP _0x291
                 _0x293:
                 ; 0000 05B4       if(OSC==24){
0013f5 91a0 026f 	LDS  R26,_OSC
0013f7 31a8      	CPI  R26,LOW(0x18)
0013f8 f419      	BRNE _0x294
                 ; 0000 05B5       a = 33;}}
0013f9 e2e1      	LDI  R30,LOW(33)
0013fa 93e0 0286 	STS  _a,R30
                 _0x294:
                 ; 0000 05B6       if((REDAGAVIMAS==1)&&(REDAG_SK_NR==3)&&(BLYKCIOTI==1)){
                 _0x291:
0013fc 91a0 0295 	LDS  R26,_REDAGAVIMAS
0013fe 30a1      	CPI  R26,LOW(0x1)
0013ff f441      	BRNE _0x296
001400 91a0 0296 	LDS  R26,_REDAG_SK_NR
001402 30a3      	CPI  R26,LOW(0x3)
001403 f421      	BRNE _0x296
001404 91a0 0299 	LDS  R26,_BLYKCIOTI
001406 30a1      	CPI  R26,LOW(0x1)
001407 f009      	BREQ _0x297
                 _0x296:
001408 c007      	RJMP _0x295
                 _0x297:
                 ; 0000 05B7       if(OSC==28){
001409 91a0 026f 	LDS  R26,_OSC
00140b 31ac      	CPI  R26,LOW(0x1C)
00140c f419      	BRNE _0x298
                 ; 0000 05B8       a = 33;}}}
00140d e2e1      	LDI  R30,LOW(33)
00140e 93e0 0286 	STS  _a,R30
                 _0x298:
                 _0x295:
                 ; 0000 05B9 
                 ; 0000 05BA       //KAI UZRAKINTA SVIESTI TASKELI
                 ; 0000 05BB       if(UZRAKINTA==1){
                 _0x3D:
001410 91a0 02a1 	LDS  R26,_UZRAKINTA
001412 30a1      	CPI  R26,LOW(0x1)
001413 f439      	BRNE _0x299
                 ; 0000 05BC       if(OSC==28){
001414 91a0 026f 	LDS  R26,_OSC
001416 31ac      	CPI  R26,LOW(0x1C)
001417 f419      	BRNE _0x29A
                 ; 0000 05BD       segm_h = 1;}}
001418 e0e1      	LDI  R30,LOW(1)
001419 93e0 027f 	STS  _segm_h,R30
                 _0x29A:
                 ; 0000 05BE 
                 ; 0000 05BF       //SKAICIAI IR RAIDES:
                 ; 0000 05C0       // a==10 (A)
                 ; 0000 05C1       // a==11 (b)
                 ; 0000 05C2       // a==12 (c)
                 ; 0000 05C3       // a==13 (C)
                 ; 0000 05C4       // a==14 (d)
                 ; 0000 05C5       // a==15 (E)
                 ; 0000 05C6       // a==16 (F)
                 ; 0000 05C7       // a==17 (H)
                 ; 0000 05C8       // a==18 (h)
                 ; 0000 05C9       // a==19 (I)
                 ; 0000 05CA       // a==20 (i)
                 ; 0000 05CB       // a==21 (J)
                 ; 0000 05CC       // a==22 (L)
                 ; 0000 05CD       // a==23 (o)
                 ; 0000 05CE       // a==24 (P)
                 ; 0000 05CF       // a==25 (S)
                 ; 0000 05D0       // a==26 (t)
                 ; 0000 05D1       // a==27 (u)
                 ; 0000 05D2       // a==28 (U)
                 ; 0000 05D3       // a==29 (Z)
                 ; 0000 05D4       // a==30 (r)
                 ; 0000 05D5       // a==31 (_)
                 ; 0000 05D6       // a==32 (-)
                 ; 0000 05D7       // a==33 ( )
                 ; 0000 05D8       // a==34 (n)
                 ; 0000 05D9       if(a == 0){
                 _0x299:
00141b 91e0 0286 	LDS  R30,_a
00141d 30e0      	CPI  R30,0
00141e f431      	BRNE _0x29B
                 ; 0000 05DA       segm_a = 1;
00141f d219      	RCALL SUBOPT_0xD
                 ; 0000 05DB       segm_b = 1;
                 ; 0000 05DC       segm_c = 1;
001420 d21e      	RCALL SUBOPT_0xE
                 ; 0000 05DD       segm_d = 1;
                 ; 0000 05DE       segm_e = 1;
001421 d223      	RCALL SUBOPT_0xF
                 ; 0000 05DF       segm_f = 1;
                 ; 0000 05E0       segm_g = 0;}
001422 e0e0      	LDI  R30,LOW(0)
001423 93e0 027e 	STS  _segm_g,R30
                 ; 0000 05E1       if(a == 1){
                 _0x29B:
001425 91a0 0286 	LDS  R26,_a
001427 30a1      	CPI  R26,LOW(0x1)
001428 f411      	BRNE _0x29C
                 ; 0000 05E2       segm_a = 0;
001429 d221      	RCALL SUBOPT_0x10
                 ; 0000 05E3       segm_b = 1;
                 ; 0000 05E4       segm_c = 1;
                 ; 0000 05E5       segm_d = 0;
                 ; 0000 05E6       segm_e = 0;
                 ; 0000 05E7       segm_f = 0;
00142a d22e      	RCALL SUBOPT_0x11
                 ; 0000 05E8       segm_g = 0;}
                 ; 0000 05E9       if(a == 2){
                 _0x29C:
00142b 91a0 0286 	LDS  R26,_a
00142d 30a2      	CPI  R26,LOW(0x2)
00142e f411      	BRNE _0x29D
                 ; 0000 05EA       segm_a = 1;
00142f d209      	RCALL SUBOPT_0xD
                 ; 0000 05EB       segm_b = 1;
                 ; 0000 05EC       segm_c = 0;
001430 d22e      	RCALL SUBOPT_0x12
                 ; 0000 05ED       segm_d = 1;
                 ; 0000 05EE       segm_e = 1;
                 ; 0000 05EF       segm_f = 0;
                 ; 0000 05F0       segm_g = 1;}
                 ; 0000 05F1       if(a == 3){
                 _0x29D:
001431 91a0 0286 	LDS  R26,_a
001433 30a3      	CPI  R26,LOW(0x3)
001434 f419      	BRNE _0x29E
                 ; 0000 05F2       segm_a = 1;
001435 d203      	RCALL SUBOPT_0xD
                 ; 0000 05F3       segm_b = 1;
                 ; 0000 05F4       segm_c = 1;
001436 d208      	RCALL SUBOPT_0xE
                 ; 0000 05F5       segm_d = 1;
                 ; 0000 05F6       segm_e = 0;
001437 d236      	RCALL SUBOPT_0x13
                 ; 0000 05F7       segm_f = 0;
                 ; 0000 05F8       segm_g = 1;}
                 ; 0000 05F9       if(a == 4){
                 _0x29E:
001438 91a0 0286 	LDS  R26,_a
00143a 30a4      	CPI  R26,LOW(0x4)
00143b f411      	BRNE _0x29F
                 ; 0000 05FA       segm_a = 0;
00143c d20e      	RCALL SUBOPT_0x10
                 ; 0000 05FB       segm_b = 1;
                 ; 0000 05FC       segm_c = 1;
                 ; 0000 05FD       segm_d = 0;
                 ; 0000 05FE       segm_e = 0;
                 ; 0000 05FF       segm_f = 1;
00143d d239      	RCALL SUBOPT_0x14
                 ; 0000 0600       segm_g = 1;}
                 ; 0000 0601       if(a == 5){
                 _0x29F:
00143e 91a0 0286 	LDS  R26,_a
001440 30a5      	CPI  R26,LOW(0x5)
001441 f411      	BRNE _0x2A0
                 ; 0000 0602       segm_a = 1;
001442 d23a      	RCALL SUBOPT_0x15
                 ; 0000 0603       segm_b = 0;
                 ; 0000 0604       segm_c = 1;
                 ; 0000 0605       segm_d = 1;
                 ; 0000 0606       segm_e = 0;
001443 d240      	RCALL SUBOPT_0x16
                 ; 0000 0607       segm_f = 1;
                 ; 0000 0608       segm_g = 1;}
                 ; 0000 0609       if(a == 6){
                 _0x2A0:
001444 91a0 0286 	LDS  R26,_a
001446 30a6      	CPI  R26,LOW(0x6)
001447 f429      	BRNE _0x2A1
                 ; 0000 060A       segm_a = 1;
001448 d234      	RCALL SUBOPT_0x15
                 ; 0000 060B       segm_b = 0;
                 ; 0000 060C       segm_c = 1;
                 ; 0000 060D       segm_d = 1;
                 ; 0000 060E       segm_e = 1;
001449 d1fb      	RCALL SUBOPT_0xF
                 ; 0000 060F       segm_f = 1;
                 ; 0000 0610       segm_g = 1;}
00144a e0e1      	LDI  R30,LOW(1)
00144b 93e0 027e 	STS  _segm_g,R30
                 ; 0000 0611       if(a == 7){
                 _0x2A1:
00144d 91a0 0286 	LDS  R26,_a
00144f 30a7      	CPI  R26,LOW(0x7)
001450 f419      	BRNE _0x2A2
                 ; 0000 0612       segm_a = 1;
001451 d1e7      	RCALL SUBOPT_0xD
                 ; 0000 0613       segm_b = 1;
                 ; 0000 0614       segm_c = 1;
001452 d235      	RCALL SUBOPT_0x17
                 ; 0000 0615       segm_d = 0;
                 ; 0000 0616       segm_e = 0;
001453 d23b      	RCALL SUBOPT_0x18
                 ; 0000 0617       segm_f = 0;
                 ; 0000 0618       segm_g = 0;}
                 ; 0000 0619       if(a == 8){
                 _0x2A2:
001454 91a0 0286 	LDS  R26,_a
001456 30a8      	CPI  R26,LOW(0x8)
001457 f431      	BRNE _0x2A3
                 ; 0000 061A       segm_a = 1;
001458 d1e0      	RCALL SUBOPT_0xD
                 ; 0000 061B       segm_b = 1;
                 ; 0000 061C       segm_c = 1;
001459 d1e5      	RCALL SUBOPT_0xE
                 ; 0000 061D       segm_d = 1;
                 ; 0000 061E       segm_e = 1;
00145a d1ea      	RCALL SUBOPT_0xF
                 ; 0000 061F       segm_f = 1;
                 ; 0000 0620       segm_g = 1;}
00145b e0e1      	LDI  R30,LOW(1)
00145c 93e0 027e 	STS  _segm_g,R30
                 ; 0000 0621       if(a == 9){
                 _0x2A3:
00145e 91a0 0286 	LDS  R26,_a
001460 30a9      	CPI  R26,LOW(0x9)
001461 f419      	BRNE _0x2A4
                 ; 0000 0622       segm_a = 1;
001462 d1d6      	RCALL SUBOPT_0xD
                 ; 0000 0623       segm_b = 1;
                 ; 0000 0624       segm_c = 1;
001463 d1db      	RCALL SUBOPT_0xE
                 ; 0000 0625       segm_d = 1;
                 ; 0000 0626       segm_e = 0;
001464 d21f      	RCALL SUBOPT_0x16
                 ; 0000 0627       segm_f = 1;
                 ; 0000 0628       segm_g = 1;}
                 ; 0000 0629       if(a ==10){
                 _0x2A4:
001465 91a0 0286 	LDS  R26,_a
001467 30aa      	CPI  R26,LOW(0xA)
001468 f431      	BRNE _0x2A5
                 ; 0000 062A       segm_a = 1;
001469 d1cf      	RCALL SUBOPT_0xD
                 ; 0000 062B       segm_b = 1;
                 ; 0000 062C       segm_c = 1;
00146a d21d      	RCALL SUBOPT_0x17
                 ; 0000 062D       segm_d = 0;
                 ; 0000 062E       segm_e = 1;
00146b d1d9      	RCALL SUBOPT_0xF
                 ; 0000 062F       segm_f = 1;
                 ; 0000 0630       segm_g = 1;}
00146c e0e1      	LDI  R30,LOW(1)
00146d 93e0 027e 	STS  _segm_g,R30
                 ; 0000 0631       if(a ==11){
                 _0x2A5:
00146f 91a0 0286 	LDS  R26,_a
001471 30ab      	CPI  R26,LOW(0xB)
001472 f431      	BRNE _0x2A6
                 ; 0000 0632       segm_a = 0;
001473 d21f      	RCALL SUBOPT_0x19
                 ; 0000 0633       segm_b = 0;
                 ; 0000 0634       segm_c = 1;
001474 d1ca      	RCALL SUBOPT_0xE
                 ; 0000 0635       segm_d = 1;
                 ; 0000 0636       segm_e = 1;
001475 d1cf      	RCALL SUBOPT_0xF
                 ; 0000 0637       segm_f = 1;
                 ; 0000 0638       segm_g = 1;}
001476 e0e1      	LDI  R30,LOW(1)
001477 93e0 027e 	STS  _segm_g,R30
                 ; 0000 0639       if(a ==12){
                 _0x2A6:
001479 91a0 0286 	LDS  R26,_a
00147b 30ac      	CPI  R26,LOW(0xC)
00147c f411      	BRNE _0x2A7
                 ; 0000 063A       segm_a = 0;
00147d d215      	RCALL SUBOPT_0x19
                 ; 0000 063B       segm_b = 0;
                 ; 0000 063C       segm_c = 0;
00147e d1e0      	RCALL SUBOPT_0x12
                 ; 0000 063D       segm_d = 1;
                 ; 0000 063E       segm_e = 1;
                 ; 0000 063F       segm_f = 0;
                 ; 0000 0640       segm_g = 1;}
                 ; 0000 0641       if(a ==13){
                 _0x2A7:
00147f 91a0 0286 	LDS  R26,_a
001481 30ad      	CPI  R26,LOW(0xD)
001482 f421      	BRNE _0x2A8
                 ; 0000 0642       segm_a = 1;
001483 d215      	RCALL SUBOPT_0x1A
                 ; 0000 0643       segm_b = 0;
                 ; 0000 0644       segm_c = 0;
                 ; 0000 0645       segm_d = 1;
                 ; 0000 0646       segm_e = 1;
                 ; 0000 0647       segm_f = 1;
                 ; 0000 0648       segm_g = 0;}
001484 e0e0      	LDI  R30,LOW(0)
001485 93e0 027e 	STS  _segm_g,R30
                 ; 0000 0649       if(a ==14){
                 _0x2A8:
001487 91a0 0286 	LDS  R26,_a
001489 30ae      	CPI  R26,LOW(0xE)
00148a f419      	BRNE _0x2A9
                 ; 0000 064A       segm_a = 0;
00148b d219      	RCALL SUBOPT_0x1B
                 ; 0000 064B       segm_b = 1;
                 ; 0000 064C       segm_c = 1;
00148c d1b2      	RCALL SUBOPT_0xE
                 ; 0000 064D       segm_d = 1;
                 ; 0000 064E       segm_e = 1;
00148d d21e      	RCALL SUBOPT_0x1C
                 ; 0000 064F       segm_f = 0;
                 ; 0000 0650       segm_g = 1;}
                 ; 0000 0651       if(a ==15){
                 _0x2A9:
00148e 91a0 0286 	LDS  R26,_a
001490 30af      	CPI  R26,LOW(0xF)
001491 f421      	BRNE _0x2AA
                 ; 0000 0652       segm_a = 1;
001492 d206      	RCALL SUBOPT_0x1A
                 ; 0000 0653       segm_b = 0;
                 ; 0000 0654       segm_c = 0;
                 ; 0000 0655       segm_d = 1;
                 ; 0000 0656       segm_e = 1;
                 ; 0000 0657       segm_f = 1;
                 ; 0000 0658       segm_g = 1;}
001493 e0e1      	LDI  R30,LOW(1)
001494 93e0 027e 	STS  _segm_g,R30
                 ; 0000 0659       if(a ==16){
                 _0x2AA:
001496 91a0 0286 	LDS  R26,_a
001498 31a0      	CPI  R26,LOW(0x10)
001499 f451      	BRNE _0x2AB
                 ; 0000 065A       segm_a = 1;
00149a e0e1      	LDI  R30,LOW(1)
00149b 93e0 0278 	STS  _segm_a,R30
                 ; 0000 065B       segm_b = 0;
00149d e0e0      	LDI  R30,LOW(0)
00149e 93e0 0279 	STS  _segm_b,R30
                 ; 0000 065C       segm_c = 0;
0014a0 d215      	RCALL SUBOPT_0x1D
                 ; 0000 065D       segm_d = 0;
                 ; 0000 065E       segm_e = 1;
                 ; 0000 065F       segm_f = 1;
                 ; 0000 0660       segm_g = 1;}
0014a1 e0e1      	LDI  R30,LOW(1)
0014a2 93e0 027e 	STS  _segm_g,R30
                 ; 0000 0661       if(a ==17){
                 _0x2AB:
0014a4 91a0 0286 	LDS  R26,_a
0014a6 31a1      	CPI  R26,LOW(0x11)
0014a7 f431      	BRNE _0x2AC
                 ; 0000 0662       segm_a = 0;
0014a8 d1fc      	RCALL SUBOPT_0x1B
                 ; 0000 0663       segm_b = 1;
                 ; 0000 0664       segm_c = 1;
0014a9 d1de      	RCALL SUBOPT_0x17
                 ; 0000 0665       segm_d = 0;
                 ; 0000 0666       segm_e = 1;
0014aa d19a      	RCALL SUBOPT_0xF
                 ; 0000 0667       segm_f = 1;
                 ; 0000 0668       segm_g = 1;}
0014ab e0e1      	LDI  R30,LOW(1)
0014ac 93e0 027e 	STS  _segm_g,R30
                 ; 0000 0669       if(a ==18){
                 _0x2AC:
0014ae 91a0 0286 	LDS  R26,_a
0014b0 31a2      	CPI  R26,LOW(0x12)
0014b1 f431      	BRNE _0x2AD
                 ; 0000 066A       segm_a = 0;
0014b2 d1e0      	RCALL SUBOPT_0x19
                 ; 0000 066B       segm_b = 0;
                 ; 0000 066C       segm_c = 1;
0014b3 d1d4      	RCALL SUBOPT_0x17
                 ; 0000 066D       segm_d = 0;
                 ; 0000 066E       segm_e = 1;
0014b4 d190      	RCALL SUBOPT_0xF
                 ; 0000 066F       segm_f = 1;
                 ; 0000 0670       segm_g = 1;}
0014b5 e0e1      	LDI  R30,LOW(1)
0014b6 93e0 027e 	STS  _segm_g,R30
                 ; 0000 0671       if(a ==19){
                 _0x2AD:
0014b8 91a0 0286 	LDS  R26,_a
0014ba 31a3      	CPI  R26,LOW(0x13)
0014bb f411      	BRNE _0x2AE
                 ; 0000 0672       segm_a = 0;
0014bc d18e      	RCALL SUBOPT_0x10
                 ; 0000 0673       segm_b = 1;
                 ; 0000 0674       segm_c = 1;
                 ; 0000 0675       segm_d = 0;
                 ; 0000 0676       segm_e = 0;
                 ; 0000 0677       segm_f = 0;
0014bd d19b      	RCALL SUBOPT_0x11
                 ; 0000 0678       segm_g = 0;}
                 ; 0000 0679       if(a ==20){
                 _0x2AE:
0014be 91a0 0286 	LDS  R26,_a
0014c0 31a4      	CPI  R26,LOW(0x14)
0014c1 f419      	BRNE _0x2AF
                 ; 0000 067A       segm_a = 0;
0014c2 d1d0      	RCALL SUBOPT_0x19
                 ; 0000 067B       segm_b = 0;
                 ; 0000 067C       segm_c = 1;
0014c3 d1c4      	RCALL SUBOPT_0x17
                 ; 0000 067D       segm_d = 0;
                 ; 0000 067E       segm_e = 0;
0014c4 d1ca      	RCALL SUBOPT_0x18
                 ; 0000 067F       segm_f = 0;
                 ; 0000 0680       segm_g = 0;}
                 ; 0000 0681       if(a ==21){
                 _0x2AF:
0014c5 91a0 0286 	LDS  R26,_a
0014c7 31a5      	CPI  R26,LOW(0x15)
0014c8 f419      	BRNE _0x2B0
                 ; 0000 0682       segm_a = 0;
0014c9 d1db      	RCALL SUBOPT_0x1B
                 ; 0000 0683       segm_b = 1;
                 ; 0000 0684       segm_c = 1;
0014ca d174      	RCALL SUBOPT_0xE
                 ; 0000 0685       segm_d = 1;
                 ; 0000 0686       segm_e = 0;
0014cb d1c3      	RCALL SUBOPT_0x18
                 ; 0000 0687       segm_f = 0;
                 ; 0000 0688       segm_g = 0;}
                 ; 0000 0689       if(a ==22){
                 _0x2B0:
0014cc 91a0 0286 	LDS  R26,_a
0014ce 31a6      	CPI  R26,LOW(0x16)
0014cf f429      	BRNE _0x2B1
                 ; 0000 068A       segm_a = 0;
0014d0 d1c2      	RCALL SUBOPT_0x19
                 ; 0000 068B       segm_b = 0;
                 ; 0000 068C       segm_c = 0;
0014d1 d1ea      	RCALL SUBOPT_0x1E
                 ; 0000 068D       segm_d = 1;
                 ; 0000 068E       segm_e = 1;
                 ; 0000 068F       segm_f = 1;
                 ; 0000 0690       segm_g = 0;}
0014d2 e0e0      	LDI  R30,LOW(0)
0014d3 93e0 027e 	STS  _segm_g,R30
                 ; 0000 0691       if(a ==23){
                 _0x2B1:
0014d5 91a0 0286 	LDS  R26,_a
0014d7 31a7      	CPI  R26,LOW(0x17)
0014d8 f419      	BRNE _0x2B2
                 ; 0000 0692       segm_a = 0;
0014d9 d1b9      	RCALL SUBOPT_0x19
                 ; 0000 0693       segm_b = 0;
                 ; 0000 0694       segm_c = 1;
0014da d164      	RCALL SUBOPT_0xE
                 ; 0000 0695       segm_d = 1;
                 ; 0000 0696       segm_e = 1;
0014db d1d0      	RCALL SUBOPT_0x1C
                 ; 0000 0697       segm_f = 0;
                 ; 0000 0698       segm_g = 1;}
                 ; 0000 0699       if(a ==24){
                 _0x2B2:
0014dc 91a0 0286 	LDS  R26,_a
0014de 31a8      	CPI  R26,LOW(0x18)
0014df f429      	BRNE _0x2B3
                 ; 0000 069A       segm_a = 1;
0014e0 d158      	RCALL SUBOPT_0xD
                 ; 0000 069B       segm_b = 1;
                 ; 0000 069C       segm_c = 0;
0014e1 d1d4      	RCALL SUBOPT_0x1D
                 ; 0000 069D       segm_d = 0;
                 ; 0000 069E       segm_e = 1;
                 ; 0000 069F       segm_f = 1;
                 ; 0000 06A0       segm_g = 1;}
0014e2 e0e1      	LDI  R30,LOW(1)
0014e3 93e0 027e 	STS  _segm_g,R30
                 ; 0000 06A1       if(a ==25){
                 _0x2B3:
0014e5 91a0 0286 	LDS  R26,_a
0014e7 31a9      	CPI  R26,LOW(0x19)
0014e8 f411      	BRNE _0x2B4
                 ; 0000 06A2       segm_a = 1;
0014e9 d193      	RCALL SUBOPT_0x15
                 ; 0000 06A3       segm_b = 0;
                 ; 0000 06A4       segm_c = 1;
                 ; 0000 06A5       segm_d = 1;
                 ; 0000 06A6       segm_e = 0;
0014ea d199      	RCALL SUBOPT_0x16
                 ; 0000 06A7       segm_f = 1;
                 ; 0000 06A8       segm_g = 1;}
                 ; 0000 06A9       if(a ==26){
                 _0x2B4:
0014eb 91a0 0286 	LDS  R26,_a
0014ed 31aa      	CPI  R26,LOW(0x1A)
0014ee f429      	BRNE _0x2B5
                 ; 0000 06AA       segm_a = 0;
0014ef d1a3      	RCALL SUBOPT_0x19
                 ; 0000 06AB       segm_b = 0;
                 ; 0000 06AC       segm_c = 0;
0014f0 d1cb      	RCALL SUBOPT_0x1E
                 ; 0000 06AD       segm_d = 1;
                 ; 0000 06AE       segm_e = 1;
                 ; 0000 06AF       segm_f = 1;
                 ; 0000 06B0       segm_g = 1;}
0014f1 e0e1      	LDI  R30,LOW(1)
0014f2 93e0 027e 	STS  _segm_g,R30
                 ; 0000 06B1       if(a ==27){
                 _0x2B5:
0014f4 91a0 0286 	LDS  R26,_a
0014f6 31ab      	CPI  R26,LOW(0x1B)
0014f7 f431      	BRNE _0x2B6
                 ; 0000 06B2       segm_a = 0;
0014f8 d19a      	RCALL SUBOPT_0x19
                 ; 0000 06B3       segm_b = 0;
                 ; 0000 06B4       segm_c = 1;
0014f9 d145      	RCALL SUBOPT_0xE
                 ; 0000 06B5       segm_d = 1;
                 ; 0000 06B6       segm_e = 1;
0014fa d14a      	RCALL SUBOPT_0xF
                 ; 0000 06B7       segm_f = 1;
                 ; 0000 06B8       segm_g = 0;}
0014fb e0e0      	LDI  R30,LOW(0)
0014fc 93e0 027e 	STS  _segm_g,R30
                 ; 0000 06B9       if(a ==28){
                 _0x2B6:
0014fe 91a0 0286 	LDS  R26,_a
001500 31ac      	CPI  R26,LOW(0x1C)
001501 f431      	BRNE _0x2B7
                 ; 0000 06BA       segm_a = 0;
001502 d1a2      	RCALL SUBOPT_0x1B
                 ; 0000 06BB       segm_b = 1;
                 ; 0000 06BC       segm_c = 1;
001503 d13b      	RCALL SUBOPT_0xE
                 ; 0000 06BD       segm_d = 1;
                 ; 0000 06BE       segm_e = 1;
001504 d140      	RCALL SUBOPT_0xF
                 ; 0000 06BF       segm_f = 1;
                 ; 0000 06C0       segm_g = 0;}
001505 e0e0      	LDI  R30,LOW(0)
001506 93e0 027e 	STS  _segm_g,R30
                 ; 0000 06C1       if(a ==29){
                 _0x2B7:
001508 91a0 0286 	LDS  R26,_a
00150a 31ad      	CPI  R26,LOW(0x1D)
00150b f411      	BRNE _0x2B8
                 ; 0000 06C2       segm_a = 1;
00150c d12c      	RCALL SUBOPT_0xD
                 ; 0000 06C3       segm_b = 1;
                 ; 0000 06C4       segm_c = 0;
00150d d151      	RCALL SUBOPT_0x12
                 ; 0000 06C5       segm_d = 1;
                 ; 0000 06C6       segm_e = 1;
                 ; 0000 06C7       segm_f = 0;
                 ; 0000 06C8       segm_g = 1;}
                 ; 0000 06C9       if(a ==30){
                 _0x2B8:
00150e 91a0 0286 	LDS  R26,_a
001510 31ae      	CPI  R26,LOW(0x1E)
001511 f419      	BRNE _0x2B9
                 ; 0000 06CA       segm_a = 0;
001512 d180      	RCALL SUBOPT_0x19
                 ; 0000 06CB       segm_b = 0;
                 ; 0000 06CC       segm_c = 0;
001513 d1af      	RCALL SUBOPT_0x1F
                 ; 0000 06CD       segm_d = 0;
                 ; 0000 06CE       segm_e = 1;
001514 d197      	RCALL SUBOPT_0x1C
                 ; 0000 06CF       segm_f = 0;
                 ; 0000 06D0       segm_g = 1;}
                 ; 0000 06D1       if(a ==31){
                 _0x2B9:
001515 91a0 0286 	LDS  R26,_a
001517 31af      	CPI  R26,LOW(0x1F)
001518 f441      	BRNE _0x2BA
                 ; 0000 06D2       segm_a = 0;
001519 d179      	RCALL SUBOPT_0x19
                 ; 0000 06D3       segm_b = 0;
                 ; 0000 06D4       segm_c = 0;
00151a e0e0      	LDI  R30,LOW(0)
00151b 93e0 027a 	STS  _segm_c,R30
                 ; 0000 06D5       segm_d = 1;
00151d e0e1      	LDI  R30,LOW(1)
00151e 93e0 027b 	STS  _segm_d,R30
                 ; 0000 06D6       segm_e = 0;
001520 d16e      	RCALL SUBOPT_0x18
                 ; 0000 06D7       segm_f = 0;
                 ; 0000 06D8       segm_g = 0;}
                 ; 0000 06D9       if(a ==32){
                 _0x2BA:
001521 91a0 0286 	LDS  R26,_a
001523 32a0      	CPI  R26,LOW(0x20)
001524 f419      	BRNE _0x2BB
                 ; 0000 06DA       segm_a = 0;
001525 d16d      	RCALL SUBOPT_0x19
                 ; 0000 06DB       segm_b = 0;
                 ; 0000 06DC       segm_c = 0;
001526 d19c      	RCALL SUBOPT_0x1F
                 ; 0000 06DD       segm_d = 0;
                 ; 0000 06DE       segm_e = 0;
001527 d146      	RCALL SUBOPT_0x13
                 ; 0000 06DF       segm_f = 0;
                 ; 0000 06E0       segm_g = 1;}
                 ; 0000 06E1       if(a ==33){
                 _0x2BB:
001528 91a0 0286 	LDS  R26,_a
00152a 32a1      	CPI  R26,LOW(0x21)
00152b f419      	BRNE _0x2BC
                 ; 0000 06E2       segm_a = 0;
00152c d166      	RCALL SUBOPT_0x19
                 ; 0000 06E3       segm_b = 0;
                 ; 0000 06E4       segm_c = 0;
00152d d195      	RCALL SUBOPT_0x1F
                 ; 0000 06E5       segm_d = 0;
                 ; 0000 06E6       segm_e = 0;
00152e d160      	RCALL SUBOPT_0x18
                 ; 0000 06E7       segm_f = 0;
                 ; 0000 06E8       segm_g = 0;}
                 ; 0000 06E9       if(a ==34){
                 _0x2BC:
00152f 91a0 0286 	LDS  R26,_a
001531 32a2      	CPI  R26,LOW(0x22)
001532 f419      	BRNE _0x2BD
                 ; 0000 06EA       segm_a = 0;
001533 d15f      	RCALL SUBOPT_0x19
                 ; 0000 06EB       segm_b = 0;
                 ; 0000 06EC       segm_c = 1;
001534 d153      	RCALL SUBOPT_0x17
                 ; 0000 06ED       segm_d = 0;
                 ; 0000 06EE       segm_e = 1;
001535 d176      	RCALL SUBOPT_0x1C
                 ; 0000 06EF       segm_f = 0;
                 ; 0000 06F0       segm_g = 1;}
                 ; 0000 06F1 
                 ; 0000 06F2 
                 ; 0000 06F3       //            ISEJIMAI:
                 ; 0000 06F4       // RELES:
                 ; 0000 06F5       {if((SKAMBUTIS_SKAMBA==1)&&(KELINTADIENIS<=5)){
                 _0x2BD:
001536 91a0 029e 	LDS  R26,_SKAMBUTIS_SKAMBA
001538 30a1      	CPI  R26,LOW(0x1)
001539 f421      	BRNE _0x2BF
00153a 91a0 02ac 	LDS  R26,_KELINTADIENIS
00153c 30a6      	CPI  R26,LOW(0x6)
00153d f008      	BRLO _0x2C0
                 _0x2BF:
00153e c002      	RJMP _0x2BE
                 _0x2C0:
                 ; 0000 06F6       PORTC.1 = 1;}
00153f 9aa9      	SBI  0x15,1
                 ; 0000 06F7       else
001540 c001      	RJMP _0x2C3
                 _0x2BE:
                 ; 0000 06F8       PORTC.1 = 0;}
001541 98a9      	CBI  0x15,1
                 _0x2C3:
                 ; 0000 06F9 
                 ; 0000 06FA       {if(ISKROVIMAS==1){
001542 91a0 026d 	LDS  R26,_ISKROVIMAS
001544 30a1      	CPI  R26,LOW(0x1)
001545 f411      	BRNE _0x2C6
                 ; 0000 06FB       PORTA.3 = 1;}
001546 9adb      	SBI  0x1B,3
                 ; 0000 06FC       else
001547 c001      	RJMP _0x2C9
                 _0x2C6:
                 ; 0000 06FD       PORTA.3 = 0;}
001548 98db      	CBI  0x1B,3
                 _0x2C9:
                 ; 0000 06FE 
                 ; 0000 06FF       {if(KROVIMAS==1){
001549 91a0 026c 	LDS  R26,_KROVIMAS
00154b 30a1      	CPI  R26,LOW(0x1)
00154c f411      	BRNE _0x2CC
                 ; 0000 0700       PORTA.4 = 1;}
00154d 9adc      	SBI  0x1B,4
                 ; 0000 0701       else
00154e c001      	RJMP _0x2CF
                 _0x2CC:
                 ; 0000 0702       PORTA.4 = 0;}
00154f 98dc      	CBI  0x1B,4
                 _0x2CF:
                 ; 0000 0703 
                 ; 0000 0704       //SEGMENTU
                 ; 0000 0705       {if(segm_a==1){
001550 91a0 0278 	LDS  R26,_segm_a
001552 30a1      	CPI  R26,LOW(0x1)
001553 f411      	BRNE _0x2D2
                 ; 0000 0706       PORTD.5 = 0;}
001554 9895      	CBI  0x12,5
                 ; 0000 0707       else
001555 c001      	RJMP _0x2D5
                 _0x2D2:
                 ; 0000 0708       PORTD.5 = 1;}
001556 9a95      	SBI  0x12,5
                 _0x2D5:
                 ; 0000 0709       {if(segm_b==1){
001557 91a0 0279 	LDS  R26,_segm_b
001559 30a1      	CPI  R26,LOW(0x1)
00155a f411      	BRNE _0x2D8
                 ; 0000 070A       PORTD.2 = 0;}
00155b 9892      	CBI  0x12,2
                 ; 0000 070B       else
00155c c001      	RJMP _0x2DB
                 _0x2D8:
                 ; 0000 070C       PORTD.2 = 1;}
00155d 9a92      	SBI  0x12,2
                 _0x2DB:
                 ; 0000 070D       {if(segm_c==1){
00155e 91a0 027a 	LDS  R26,_segm_c
001560 30a1      	CPI  R26,LOW(0x1)
001561 f411      	BRNE _0x2DE
                 ; 0000 070E       PORTD.1 = 0;}
001562 9891      	CBI  0x12,1
                 ; 0000 070F       else
001563 c001      	RJMP _0x2E1
                 _0x2DE:
                 ; 0000 0710       PORTD.1 = 1;}
001564 9a91      	SBI  0x12,1
                 _0x2E1:
                 ; 0000 0711       {if(segm_d==1){
001565 91a0 027b 	LDS  R26,_segm_d
001567 30a1      	CPI  R26,LOW(0x1)
001568 f411      	BRNE _0x2E4
                 ; 0000 0712       PORTD.3 = 0;}
001569 9893      	CBI  0x12,3
                 ; 0000 0713       else
00156a c001      	RJMP _0x2E7
                 _0x2E4:
                 ; 0000 0714       PORTD.3 = 1;}
00156b 9a93      	SBI  0x12,3
                 _0x2E7:
                 ; 0000 0715       {if(segm_e==1){
00156c 91a0 027c 	LDS  R26,_segm_e
00156e 30a1      	CPI  R26,LOW(0x1)
00156f f411      	BRNE _0x2EA
                 ; 0000 0716       PORTD.0 = 0;}
001570 9890      	CBI  0x12,0
                 ; 0000 0717       else
001571 c001      	RJMP _0x2ED
                 _0x2EA:
                 ; 0000 0718       PORTD.0 = 1;}
001572 9a90      	SBI  0x12,0
                 _0x2ED:
                 ; 0000 0719       {if(segm_f==1){
001573 91a0 027d 	LDS  R26,_segm_f
001575 30a1      	CPI  R26,LOW(0x1)
001576 f411      	BRNE _0x2F0
                 ; 0000 071A       PORTD.7 = 0;}
001577 9897      	CBI  0x12,7
                 ; 0000 071B       else
001578 c001      	RJMP _0x2F3
                 _0x2F0:
                 ; 0000 071C       PORTD.7 = 1;}
001579 9a97      	SBI  0x12,7
                 _0x2F3:
                 ; 0000 071D       {if(segm_g==1){
00157a 91a0 027e 	LDS  R26,_segm_g
00157c 30a1      	CPI  R26,LOW(0x1)
00157d f411      	BRNE _0x2F6
                 ; 0000 071E       PORTD.6 = 0;}
00157e 9896      	CBI  0x12,6
                 ; 0000 071F       else
00157f c001      	RJMP _0x2F9
                 _0x2F6:
                 ; 0000 0720       PORTD.6 = 1;}
001580 9a96      	SBI  0x12,6
                 _0x2F9:
                 ; 0000 0721       {if(segm_h==1){
001581 91a0 027f 	LDS  R26,_segm_h
001583 30a1      	CPI  R26,LOW(0x1)
001584 f411      	BRNE _0x2FC
                 ; 0000 0722       PORTD.4 = 0;}
001585 9894      	CBI  0x12,4
                 ; 0000 0723       else
001586 c001      	RJMP _0x2FF
                 _0x2FC:
                 ; 0000 0724       PORTD.4 = 1;}
001587 9a94      	SBI  0x12,4
                 _0x2FF:
                 ; 0000 0725 
                 ; 0000 0726       //SKAICIU:
                 ; 0000 0727       {if(OSC==0){
001588 91e0 026f 	LDS  R30,_OSC
00158a 30e0      	CPI  R30,0
00158b f411      	BRNE _0x302
                 ; 0000 0728       PORTB.3 = 1;}
00158c 9ac3      	SBI  0x18,3
                 ; 0000 0729       else              // SKAICIUS NR.0
00158d c001      	RJMP _0x305
                 _0x302:
                 ; 0000 072A       PORTB.3 = 0;}
00158e 98c3      	CBI  0x18,3
                 _0x305:
                 ; 0000 072B 
                 ; 0000 072C       {if(OSC==4){
00158f 91a0 026f 	LDS  R26,_OSC
001591 30a4      	CPI  R26,LOW(0x4)
001592 f411      	BRNE _0x308
                 ; 0000 072D       PORTB.5 = 1;}
001593 9ac5      	SBI  0x18,5
                 ; 0000 072E       else              // SKAICIUS NR.1
001594 c001      	RJMP _0x30B
                 _0x308:
                 ; 0000 072F       PORTB.5 = 0;}
001595 98c5      	CBI  0x18,5
                 _0x30B:
                 ; 0000 0730 
                 ; 0000 0731       {if(OSC==8){
001596 91a0 026f 	LDS  R26,_OSC
001598 30a8      	CPI  R26,LOW(0x8)
001599 f411      	BRNE _0x30E
                 ; 0000 0732       PORTB.2 = 1;}
00159a 9ac2      	SBI  0x18,2
                 ; 0000 0733       else              // SKAICIUS NR.2
00159b c001      	RJMP _0x311
                 _0x30E:
                 ; 0000 0734       PORTB.2 = 0;}
00159c 98c2      	CBI  0x18,2
                 _0x311:
                 ; 0000 0735 
                 ; 0000 0736       {if(OSC==12){
00159d 91a0 026f 	LDS  R26,_OSC
00159f 30ac      	CPI  R26,LOW(0xC)
0015a0 f411      	BRNE _0x314
                 ; 0000 0737       PORTB.0 = 1;}
0015a1 9ac0      	SBI  0x18,0
                 ; 0000 0738       else              // SKAICIUS NR.3
0015a2 c001      	RJMP _0x317
                 _0x314:
                 ; 0000 0739       PORTB.0 = 0;}
0015a3 98c0      	CBI  0x18,0
                 _0x317:
                 ; 0000 073A 
                 ; 0000 073B       {if(OSC==16){
0015a4 91a0 026f 	LDS  R26,_OSC
0015a6 31a0      	CPI  R26,LOW(0x10)
0015a7 f411      	BRNE _0x31A
                 ; 0000 073C       PORTB.1 = 1;}
0015a8 9ac1      	SBI  0x18,1
                 ; 0000 073D       else              // SKAICIUS NR.4
0015a9 c001      	RJMP _0x31D
                 _0x31A:
                 ; 0000 073E       PORTB.1 = 0;}
0015aa 98c1      	CBI  0x18,1
                 _0x31D:
                 ; 0000 073F 
                 ; 0000 0740       {if(OSC==20){
0015ab 91a0 026f 	LDS  R26,_OSC
0015ad 31a4      	CPI  R26,LOW(0x14)
0015ae f411      	BRNE _0x320
                 ; 0000 0741       PORTB.6 = 1;}
0015af 9ac6      	SBI  0x18,6
                 ; 0000 0742       else              // SKAICIUS NR.5
0015b0 c001      	RJMP _0x323
                 _0x320:
                 ; 0000 0743       PORTB.6 = 0;}
0015b1 98c6      	CBI  0x18,6
                 _0x323:
                 ; 0000 0744 
                 ; 0000 0745       {if(OSC==24){
0015b2 91a0 026f 	LDS  R26,_OSC
0015b4 31a8      	CPI  R26,LOW(0x18)
0015b5 f411      	BRNE _0x326
                 ; 0000 0746       PORTB.7 = 1;}
0015b6 9ac7      	SBI  0x18,7
                 ; 0000 0747       else              // SKAICIUS NR.6
0015b7 c001      	RJMP _0x329
                 _0x326:
                 ; 0000 0748       PORTB.7 = 0;}
0015b8 98c7      	CBI  0x18,7
                 _0x329:
                 ; 0000 0749 
                 ; 0000 074A       {if(OSC==28){
0015b9 91a0 026f 	LDS  R26,_OSC
0015bb 31ac      	CPI  R26,LOW(0x1C)
0015bc f411      	BRNE _0x32C
                 ; 0000 074B       PORTB.4 = 1;}
0015bd 9ac4      	SBI  0x18,4
                 ; 0000 074C       else              // SKAICIUS NR.7
0015be c001      	RJMP _0x32F
                 _0x32C:
                 ; 0000 074D       PORTB.4 = 0;}
0015bf 98c4      	CBI  0x18,4
                 _0x32F:
                 ; 0000 074E 
                 ; 0000 074F       //PIRMINIS FILTRAVIMAS:
                 ; 0000 0750       SKAMBUTIS_TURETU_SKAMBETI = 0;
0015c0 e0e0      	LDI  R30,LOW(0)
0015c1 93e0 029c 	STS  _SKAMBUTIS_TURETU_SKAMBETI,R30
                 ; 0000 0751       a = 33;
0015c3 e2e1      	LDI  R30,LOW(33)
0015c4 93e0 0286 	STS  _a,R30
                 ; 0000 0752       segm_a = 0;
0015c6 d0cc      	RCALL SUBOPT_0x19
                 ; 0000 0753       segm_b = 0;
                 ; 0000 0754       segm_c = 0;
0015c7 d0fb      	RCALL SUBOPT_0x1F
                 ; 0000 0755       segm_d = 0;
                 ; 0000 0756       segm_e = 0;
0015c8 d0c6      	RCALL SUBOPT_0x18
                 ; 0000 0757       segm_f = 0;
                 ; 0000 0758       segm_g = 0;
                 ; 0000 0759       segm_h = 0;
0015c9 e0e0      	LDI  R30,LOW(0)
0015ca 93e0 027f 	STS  _segm_h,R30
                 ; 0000 075A       DB_LAIKO_RODYMAS = 1;
0015cc e0e1      	LDI  R30,LOW(1)
0015cd 93e0 02a0 	STS  _DB_LAIKO_RODYMAS,R30
                 ; 0000 075B       SKAMBUTIS_SKAMBA = 0;
0015cf e0e0      	LDI  R30,LOW(0)
0015d0 93e0 029e 	STS  _SKAMBUTIS_SKAMBA,R30
                 ; 0000 075C       ISPEJAMASIS_SKAMBUTIS = 0;
0015d2 93e0 029f 	STS  _ISPEJAMASIS_SKAMBUTIS,R30
                 ; 0000 075D       }
                 ; 0000 075E while (1);}
0015d4 940c 0164 	JMP  _0x4
                 _0x332:
0015d6 cfff      	RJMP _0x332
                 
                 	.DSEG
                 _puse_sekundes:
000260           	.BYTE 0x2
                 _viena_minute5:
000262           	.BYTE 0x4
                 _viena_sekunde3:
000266           	.BYTE 0x4
                 _PILNAS:
00026a           	.BYTE 0x1
                 _TUSCIAS:
00026b           	.BYTE 0x1
                 _KROVIMAS:
00026c           	.BYTE 0x1
                 _ISKROVIMAS:
00026d           	.BYTE 0x1
                 _BATERIJOS_BUSENA:
00026e           	.BYTE 0x1
                 _OSC:
00026f           	.BYTE 0x1
                 _MYGTUKAS_1:
000270           	.BYTE 0x1
                 _MYGTUKAS_2:
000271           	.BYTE 0x1
                 _MYGTUKAS_3:
000272           	.BYTE 0x1
                 _MYGTUKAS_4:
000273           	.BYTE 0x1
                 _MYGTUKAS_5:
000274           	.BYTE 0x1
                 _MYGTUKAS_6:
000275           	.BYTE 0x1
                 _MYGTUKAS_7:
000276           	.BYTE 0x1
                 _MYGTUKAS_PASPAUSTAS:
000277           	.BYTE 0x1
                 _segm_a:
000278           	.BYTE 0x1
                 _segm_b:
000279           	.BYTE 0x1
                 _segm_c:
00027a           	.BYTE 0x1
                 _segm_d:
00027b           	.BYTE 0x1
                 _segm_e:
00027c           	.BYTE 0x1
                 _segm_f:
00027d           	.BYTE 0x1
                 _segm_g:
00027e           	.BYTE 0x1
                 _segm_h:
00027f           	.BYTE 0x1
                 _LAIKRODIS:
000280           	.BYTE 0x1
                 _sekundes:
000281           	.BYTE 0x1
                 _minutes:
000282           	.BYTE 0x1
                 _desimtys_minutes:
000283           	.BYTE 0x1
                 _valandos:
000284           	.BYTE 0x1
                 _desimtys_valandos:
000285           	.BYTE 0x1
                 _a:
000286           	.BYTE 0x1
                 _x:
000287           	.BYTE 0x1
                 _y:
000288           	.BYTE 0x1
                 _z:
000289           	.BYTE 0x1
                 _k:
00028a           	.BYTE 0x1
                 _a2:
00028b           	.BYTE 0x1
                 _b2:
00028c           	.BYTE 0x1
                 _c2:
00028d           	.BYTE 0x1
                 _d2:
00028e           	.BYTE 0x1
                 _b:
00028f           	.BYTE 0x1
                 _d:
000290           	.BYTE 0x1
                 _e:
000291           	.BYTE 0x1
                 _f:
000292           	.BYTE 0x1
                 _g:
000293           	.BYTE 0x1
                 _i:
000294           	.BYTE 0x1
                 _REDAGAVIMAS:
000295           	.BYTE 0x1
                 _REDAG_SK_NR:
000296           	.BYTE 0x1
                 _EILUTES_SKAICIUS:
000297           	.BYTE 0x1
                 _EIL_SK:
000298           	.BYTE 0x1
                 _BLYKCIOTI:
000299           	.BYTE 0x1
                 _PENKIOLIKA_SEKUNDZIU:
00029a           	.BYTE 0x1
                 _DESIMT_SEKUNDZIU:
00029b           	.BYTE 0x1
                 _SKAMBUTIS_TURETU_SKAMBETI:
00029c           	.BYTE 0x1
                 _Sesios_sekundes:
00029d           	.BYTE 0x1
                 _SKAMBUTIS_SKAMBA:
00029e           	.BYTE 0x1
                 _ISPEJAMASIS_SKAMBUTIS:
00029f           	.BYTE 0x1
                 _DB_LAIKO_RODYMAS:
0002a0           	.BYTE 0x1
                 _UZRAKINTA:
0002a1           	.BYTE 0x1
                 _UZRAKTO_KODAS_1:
0002a2           	.BYTE 0x1
                 _UZRAKTO_KODAS_2:
0002a3           	.BYTE 0x1
                 _UZRAKTO_KODAS_3:
0002a4           	.BYTE 0x1
                 _UZRAKTO_KODAS_4:
0002a5           	.BYTE 0x1
                 _REDAG_UZRAKT_SKAIC:
0002a6           	.BYTE 0x1
                 _a1:
0002a7           	.BYTE 0x1
                 _b1:
0002a8           	.BYTE 0x1
                 _c1:
0002a9           	.BYTE 0x1
                 _d1:
0002aa           	.BYTE 0x1
                 _KELINTADIENIO_PERZIURA:
0002ab           	.BYTE 0x1
                 _KELINTADIENIS:
0002ac           	.BYTE 0x1
                 _KELINTADIENIO_REDAGAVIMAS:
0002ad           	.BYTE 0x1
                 _SKAMBUTIS_1dh:
0002ae           	.BYTE 0x1
                 _SKAMBUTIS_1h:
0002af           	.BYTE 0x1
                 _SKAMBUTIS_1dm:
0002b0           	.BYTE 0x1
                 _SKAMBUTIS_1m:
0002b1           	.BYTE 0x1
                 _SKAMBUTIS_2dh:
0002b2           	.BYTE 0x1
                 _SKAMBUTIS_2h:
0002b3           	.BYTE 0x1
                 _SKAMBUTIS_2dm:
0002b4           	.BYTE 0x1
                 _SKAMBUTIS_2m:
0002b5           	.BYTE 0x1
                 _SKAMBUTIS_3dh:
0002b6           	.BYTE 0x1
                 _SKAMBUTIS_3h:
0002b7           	.BYTE 0x1
                 _SKAMBUTIS_3dm:
0002b8           	.BYTE 0x1
                 _SKAMBUTIS_3m:
0002b9           	.BYTE 0x1
                 _SKAMBUTIS_4dh:
0002ba           	.BYTE 0x1
                 _SKAMBUTIS_4h:
0002bb           	.BYTE 0x1
                 _SKAMBUTIS_4dm:
0002bc           	.BYTE 0x1
                 _SKAMBUTIS_4m:
0002bd           	.BYTE 0x1
                 _SKAMBUTIS_5dh:
0002be           	.BYTE 0x1
                 _SKAMBUTIS_5h:
0002bf           	.BYTE 0x1
                 _SKAMBUTIS_5dm:
0002c0           	.BYTE 0x1
                 _SKAMBUTIS_5m:
0002c1           	.BYTE 0x1
                 _SKAMBUTIS_6dh:
0002c2           	.BYTE 0x1
                 _SKAMBUTIS_6h:
0002c3           	.BYTE 0x1
                 _SKAMBUTIS_6dm:
0002c4           	.BYTE 0x1
                 _SKAMBUTIS_6m:
0002c5           	.BYTE 0x1
                 _SKAMBUTIS_7dh:
0002c6           	.BYTE 0x1
                 _SKAMBUTIS_7h:
0002c7           	.BYTE 0x1
                 _SKAMBUTIS_7dm:
0002c8           	.BYTE 0x1
                 _SKAMBUTIS_7m:
0002c9           	.BYTE 0x1
                 _SKAMBUTIS_8dh:
0002ca           	.BYTE 0x1
                 _SKAMBUTIS_8h:
0002cb           	.BYTE 0x1
                 _SKAMBUTIS_8dm:
0002cc           	.BYTE 0x1
                 _SKAMBUTIS_8m:
0002cd           	.BYTE 0x1
                 _SKAMBUTIS_9dh:
0002ce           	.BYTE 0x1
                 _SKAMBUTIS_9h:
0002cf           	.BYTE 0x1
                 _SKAMBUTIS_9dm:
0002d0           	.BYTE 0x1
                 _SKAMBUTIS_9m:
0002d1           	.BYTE 0x1
                 _SKAMBUTIS_10dh:
0002d2           	.BYTE 0x1
                 _SKAMBUTIS_10h:
0002d3           	.BYTE 0x1
                 _SKAMBUTIS_10dm:
0002d4           	.BYTE 0x1
                 _SKAMBUTIS_10m:
0002d5           	.BYTE 0x1
                 _SKAMBUTIS_11dh:
0002d6           	.BYTE 0x1
                 _SKAMBUTIS_11h:
0002d7           	.BYTE 0x1
                 _SKAMBUTIS_11dm:
0002d8           	.BYTE 0x1
                 _SKAMBUTIS_11m:
0002d9           	.BYTE 0x1
                 _SKAMBUTIS_12dh:
0002da           	.BYTE 0x1
                 _SKAMBUTIS_12h:
0002db           	.BYTE 0x1
                 _SKAMBUTIS_12dm:
0002dc           	.BYTE 0x1
                 _SKAMBUTIS_12m:
0002dd           	.BYTE 0x1
                 _SKAMBUTIS_13dh:
0002de           	.BYTE 0x1
                 _SKAMBUTIS_13h:
0002df           	.BYTE 0x1
                 _SKAMBUTIS_13dm:
0002e0           	.BYTE 0x1
                 _SKAMBUTIS_13m:
0002e1           	.BYTE 0x1
                 _SKAMBUTIS_14dh:
0002e2           	.BYTE 0x1
                 _SKAMBUTIS_14h:
0002e3           	.BYTE 0x1
                 _SKAMBUTIS_14dm:
0002e4           	.BYTE 0x1
                 _SKAMBUTIS_14m:
0002e5           	.BYTE 0x1
                 _SKAMBUTIS_15dh:
0002e6           	.BYTE 0x1
                 _SKAMBUTIS_15h:
0002e7           	.BYTE 0x1
                 _SKAMBUTIS_15dm:
0002e8           	.BYTE 0x1
                 _SKAMBUTIS_15m:
0002e9           	.BYTE 0x1
                 _SKAMBUTIS_16dh:
0002ea           	.BYTE 0x1
                 _SKAMBUTIS_16h:
0002eb           	.BYTE 0x1
                 _SKAMBUTIS_16dm:
0002ec           	.BYTE 0x1
                 _SKAMBUTIS_16m:
0002ed           	.BYTE 0x1
                 _SKAMBUTIS_17dh:
0002ee           	.BYTE 0x1
                 _SKAMBUTIS_17h:
0002ef           	.BYTE 0x1
                 _SKAMBUTIS_17dm:
0002f0           	.BYTE 0x1
                 _SKAMBUTIS_17m:
0002f1           	.BYTE 0x1
                 _SKAMBUTIS_18dh:
0002f2           	.BYTE 0x1
                 _SKAMBUTIS_18h:
0002f3           	.BYTE 0x1
                 _SKAMBUTIS_18dm:
0002f4           	.BYTE 0x1
                 _SKAMBUTIS_18m:
0002f5           	.BYTE 0x1
                 _SKAMBUTIS_19dh:
0002f6           	.BYTE 0x1
                 _SKAMBUTIS_19h:
0002f7           	.BYTE 0x1
                 _SKAMBUTIS_19dm:
0002f8           	.BYTE 0x1
                 _SKAMBUTIS_19m:
0002f9           	.BYTE 0x1
                 _SKAMBUTIS_20dh:
0002fa           	.BYTE 0x1
                 _SKAMBUTIS_20h:
0002fb           	.BYTE 0x1
                 _SKAMBUTIS_20dm:
0002fc           	.BYTE 0x1
                 _SKAMBUTIS_20m:
0002fd           	.BYTE 0x1
                 
                 	.CSEG
                 ;OPTIMIZER ADDED SUBROUTINE, CALLED 4 TIMES, CODE SIZE REDUCTION:3 WORDS
                 SUBOPT_0x0:
0015d7 e0a0      	LDI  R26,0
0015d8 99ca      	SBIC 0x19,2
0015d9 e0a1      	LDI  R26,1
0015da 30a0      	CPI  R26,LOW(0x0)
0015db 9508      	RET
                 
                 ;OPTIMIZER ADDED SUBROUTINE, CALLED 4 TIMES, CODE SIZE REDUCTION:3 WORDS
                 SUBOPT_0x1:
0015dc e0a0      	LDI  R26,0
0015dd 99c9      	SBIC 0x19,1
0015de e0a1      	LDI  R26,1
0015df 30a0      	CPI  R26,LOW(0x0)
0015e0 9508      	RET
                 
                 ;OPTIMIZER ADDED SUBROUTINE, CALLED 4 TIMES, CODE SIZE REDUCTION:3 WORDS
                 SUBOPT_0x2:
0015e1 e0a0      	LDI  R26,0
0015e2 99c8      	SBIC 0x19,0
0015e3 e0a1      	LDI  R26,1
0015e4 30a0      	CPI  R26,LOW(0x0)
0015e5 9508      	RET
                 
                 ;OPTIMIZER ADDED SUBROUTINE, CALLED 2 TIMES, CODE SIZE REDUCTION:3 WORDS
                 SUBOPT_0x3:
0015e6 93e0 0262 	STS  _viena_minute5,R30
0015e8 93f0 0263 	STS  _viena_minute5+1,R31
0015ea 9360 0264 	STS  _viena_minute5+2,R22
0015ec 9370 0265 	STS  _viena_minute5+3,R23
0015ee 9508      	RET
                 
                 ;OPTIMIZER ADDED SUBROUTINE, CALLED 2 TIMES, CODE SIZE REDUCTION:4 WORDS
                 SUBOPT_0x4:
0015ef e0e0      	LDI  R30,LOW(0)
0015f0 93e0 0262 	STS  _viena_minute5,R30
0015f2 93e0 0263 	STS  _viena_minute5+1,R30
0015f4 93e0 0264 	STS  _viena_minute5+2,R30
0015f6 93e0 0265 	STS  _viena_minute5+3,R30
0015f8 9508      	RET
                 
                 ;OPTIMIZER ADDED SUBROUTINE, CALLED 2 TIMES, CODE SIZE REDUCTION:5 WORDS
                 SUBOPT_0x5:
0015f9 91e0 0262 	LDS  R30,_viena_minute5
0015fb 91f0 0263 	LDS  R31,_viena_minute5+1
0015fd 9160 0264 	LDS  R22,_viena_minute5+2
0015ff 9170 0265 	LDS  R23,_viena_minute5+3
001601 940e 16f3 	CALL __CPD10
001603 9508      	RET
                 
                 ;OPTIMIZER ADDED SUBROUTINE, CALLED 2 TIMES, CODE SIZE REDUCTION:7 WORDS
                 SUBOPT_0x6:
001604 e0e0      	LDI  R30,LOW(0)
001605 93e0 02a7 	STS  _a1,R30
001607 93e0 02a8 	STS  _b1,R30
001609 93e0 02a9 	STS  _c1,R30
00160b 93e0 02aa 	STS  _d1,R30
00160d 9508      	RET
                 
                 ;OPTIMIZER ADDED SUBROUTINE, CALLED 15 TIMES, CODE SIZE REDUCTION:25 WORDS
                 SUBOPT_0x7:
00160e e0f0      	LDI  R31,0
00160f fde7      	SBRC R30,7
001610 efff      	SER  R31
001611 9731      	SBIW R30,1
001612 9508      	RET
                 
                 ;OPTIMIZER ADDED SUBROUTINE, CALLED 3 TIMES, CODE SIZE REDUCTION:1 WORDS
                 SUBOPT_0x8:
001613 e0e0      	LDI  R30,LOW(0)
001614 93e0 0295 	STS  _REDAGAVIMAS,R30
001616 9508      	RET
                 
                 ;OPTIMIZER ADDED SUBROUTINE, CALLED 2 TIMES, CODE SIZE REDUCTION:15 WORDS
                 SUBOPT_0x9:
001617 93e0 0270 	STS  _MYGTUKAS_1,R30
001619 e0e0      	LDI  R30,LOW(0)
00161a 93e0 0271 	STS  _MYGTUKAS_2,R30
00161c 93e0 0272 	STS  _MYGTUKAS_3,R30
00161e 93e0 0273 	STS  _MYGTUKAS_4,R30
001620 93e0 0274 	STS  _MYGTUKAS_5,R30
001622 93e0 0275 	STS  _MYGTUKAS_6,R30
001624 93e0 0276 	STS  _MYGTUKAS_7,R30
001626 9508      	RET
                 
                 ;OPTIMIZER ADDED SUBROUTINE, CALLED 2 TIMES, CODE SIZE REDUCTION:1 WORDS
                 SUBOPT_0xA:
001627 e0e0      	LDI  R30,LOW(0)
001628 93e0 02ab 	STS  _KELINTADIENIO_PERZIURA,R30
00162a 93e0 02ad 	STS  _KELINTADIENIO_REDAGAVIMAS,R30
00162c 9508      	RET
                 
                 ;OPTIMIZER ADDED SUBROUTINE, CALLED 4 TIMES, CODE SIZE REDUCTION:6 WORDS
                 SUBOPT_0xB:
00162d 93e0 0297 	STS  _EILUTES_SKAICIUS,R30
00162f e0e1      	LDI  R30,LOW(1)
001630 93e0 0293 	STS  _g,R30
001632 9508      	RET
                 
                 ;OPTIMIZER ADDED SUBROUTINE, CALLED 4 TIMES, CODE SIZE REDUCTION:6 WORDS
                 SUBOPT_0xC:
001633 93e0 0286 	STS  _a,R30
001635 e0e1      	LDI  R30,LOW(1)
001636 93e0 027f 	STS  _segm_h,R30
001638 9508      	RET
                 
                 ;OPTIMIZER ADDED SUBROUTINE, CALLED 9 TIMES, CODE SIZE REDUCTION:29 WORDS
                 SUBOPT_0xD:
001639 e0e1      	LDI  R30,LOW(1)
00163a 93e0 0278 	STS  _segm_a,R30
00163c 93e0 0279 	STS  _segm_b,R30
00163e 9508      	RET
                 
                 ;OPTIMIZER ADDED SUBROUTINE, CALLED 13 TIMES, CODE SIZE REDUCTION:45 WORDS
                 SUBOPT_0xE:
00163f e0e1      	LDI  R30,LOW(1)
001640 93e0 027a 	STS  _segm_c,R30
001642 93e0 027b 	STS  _segm_d,R30
001644 9508      	RET
                 
                 ;OPTIMIZER ADDED SUBROUTINE, CALLED 15 TIMES, CODE SIZE REDUCTION:53 WORDS
                 SUBOPT_0xF:
001645 e0e1      	LDI  R30,LOW(1)
001646 93e0 027c 	STS  _segm_e,R30
001648 93e0 027d 	STS  _segm_f,R30
00164a 9508      	RET
                 
                 ;OPTIMIZER ADDED SUBROUTINE, CALLED 3 TIMES, CODE SIZE REDUCTION:23 WORDS
                 SUBOPT_0x10:
00164b e0e0      	LDI  R30,LOW(0)
00164c 93e0 0278 	STS  _segm_a,R30
00164e e0e1      	LDI  R30,LOW(1)
00164f 93e0 0279 	STS  _segm_b,R30
001651 93e0 027a 	STS  _segm_c,R30
001653 e0e0      	LDI  R30,LOW(0)
001654 93e0 027b 	STS  _segm_d,R30
001656 93e0 027c 	STS  _segm_e,R30
001658 9508      	RET
                 
                 ;OPTIMIZER ADDED SUBROUTINE, CALLED 8 TIMES, CODE SIZE REDUCTION:25 WORDS
                 SUBOPT_0x11:
001659 e0e0      	LDI  R30,LOW(0)
00165a 93e0 027d 	STS  _segm_f,R30
00165c 93e0 027e 	STS  _segm_g,R30
00165e 9508      	RET
                 
                 ;OPTIMIZER ADDED SUBROUTINE, CALLED 3 TIMES, CODE SIZE REDUCTION:23 WORDS
                 SUBOPT_0x12:
00165f e0e0      	LDI  R30,LOW(0)
001660 93e0 027a 	STS  _segm_c,R30
001662 e0e1      	LDI  R30,LOW(1)
001663 93e0 027b 	STS  _segm_d,R30
001665 93e0 027c 	STS  _segm_e,R30
001667 e0e0      	LDI  R30,LOW(0)
001668 93e0 027d 	STS  _segm_f,R30
00166a e0e1      	LDI  R30,LOW(1)
00166b 93e0 027e 	STS  _segm_g,R30
00166d 9508      	RET
                 
                 ;OPTIMIZER ADDED SUBROUTINE, CALLED 2 TIMES, CODE SIZE REDUCTION:4 WORDS
                 SUBOPT_0x13:
00166e e0e0      	LDI  R30,LOW(0)
00166f 93e0 027c 	STS  _segm_e,R30
001671 93e0 027d 	STS  _segm_f,R30
001673 e0e1      	LDI  R30,LOW(1)
001674 93e0 027e 	STS  _segm_g,R30
001676 9508      	RET
                 
                 ;OPTIMIZER ADDED SUBROUTINE, CALLED 4 TIMES, CODE SIZE REDUCTION:9 WORDS
                 SUBOPT_0x14:
001677 e0e1      	LDI  R30,LOW(1)
001678 93e0 027d 	STS  _segm_f,R30
00167a 93e0 027e 	STS  _segm_g,R30
00167c 9508      	RET
                 
                 ;OPTIMIZER ADDED SUBROUTINE, CALLED 3 TIMES, CODE SIZE REDUCTION:9 WORDS
                 SUBOPT_0x15:
00167d e0e1      	LDI  R30,LOW(1)
00167e 93e0 0278 	STS  _segm_a,R30
001680 e0e0      	LDI  R30,LOW(0)
001681 93e0 0279 	STS  _segm_b,R30
001683 cfbb      	RJMP SUBOPT_0xE
                 
                 ;OPTIMIZER ADDED SUBROUTINE, CALLED 3 TIMES, CODE SIZE REDUCTION:3 WORDS
                 SUBOPT_0x16:
001684 e0e0      	LDI  R30,LOW(0)
001685 93e0 027c 	STS  _segm_e,R30
001687 cfef      	RJMP SUBOPT_0x14
                 
                 ;OPTIMIZER ADDED SUBROUTINE, CALLED 6 TIMES, CODE SIZE REDUCTION:17 WORDS
                 SUBOPT_0x17:
001688 e0e1      	LDI  R30,LOW(1)
001689 93e0 027a 	STS  _segm_c,R30
00168b e0e0      	LDI  R30,LOW(0)
00168c 93e0 027b 	STS  _segm_d,R30
00168e 9508      	RET
                 
                 ;OPTIMIZER ADDED SUBROUTINE, CALLED 6 TIMES, CODE SIZE REDUCTION:12 WORDS
                 SUBOPT_0x18:
00168f e0e0      	LDI  R30,LOW(0)
001690 93e0 027c 	STS  _segm_e,R30
001692 cfc6      	RJMP SUBOPT_0x11
                 
                 ;OPTIMIZER ADDED SUBROUTINE, CALLED 14 TIMES, CODE SIZE REDUCTION:49 WORDS
                 SUBOPT_0x19:
001693 e0e0      	LDI  R30,LOW(0)
001694 93e0 0278 	STS  _segm_a,R30
001696 93e0 0279 	STS  _segm_b,R30
001698 9508      	RET
                 
                 ;OPTIMIZER ADDED SUBROUTINE, CALLED 2 TIMES, CODE SIZE REDUCTION:9 WORDS
                 SUBOPT_0x1A:
001699 e0e1      	LDI  R30,LOW(1)
00169a 93e0 0278 	STS  _segm_a,R30
00169c e0e0      	LDI  R30,LOW(0)
00169d 93e0 0279 	STS  _segm_b,R30
00169f 93e0 027a 	STS  _segm_c,R30
0016a1 e0e1      	LDI  R30,LOW(1)
0016a2 93e0 027b 	STS  _segm_d,R30
0016a4 cfa0      	RJMP SUBOPT_0xF
                 
                 ;OPTIMIZER ADDED SUBROUTINE, CALLED 4 TIMES, CODE SIZE REDUCTION:9 WORDS
                 SUBOPT_0x1B:
0016a5 e0e0      	LDI  R30,LOW(0)
0016a6 93e0 0278 	STS  _segm_a,R30
0016a8 e0e1      	LDI  R30,LOW(1)
0016a9 93e0 0279 	STS  _segm_b,R30
0016ab 9508      	RET
                 
                 ;OPTIMIZER ADDED SUBROUTINE, CALLED 4 TIMES, CODE SIZE REDUCTION:18 WORDS
                 SUBOPT_0x1C:
0016ac e0e1      	LDI  R30,LOW(1)
0016ad 93e0 027c 	STS  _segm_e,R30
0016af e0e0      	LDI  R30,LOW(0)
0016b0 93e0 027d 	STS  _segm_f,R30
0016b2 e0e1      	LDI  R30,LOW(1)
0016b3 93e0 027e 	STS  _segm_g,R30
0016b5 9508      	RET
                 
                 ;OPTIMIZER ADDED SUBROUTINE, CALLED 2 TIMES, CODE SIZE REDUCTION:3 WORDS
                 SUBOPT_0x1D:
0016b6 e0e0      	LDI  R30,LOW(0)
0016b7 93e0 027a 	STS  _segm_c,R30
0016b9 93e0 027b 	STS  _segm_d,R30
0016bb cf89      	RJMP SUBOPT_0xF
                 
                 ;OPTIMIZER ADDED SUBROUTINE, CALLED 2 TIMES, CODE SIZE REDUCTION:3 WORDS
                 SUBOPT_0x1E:
0016bc e0e0      	LDI  R30,LOW(0)
0016bd 93e0 027a 	STS  _segm_c,R30
0016bf e0e1      	LDI  R30,LOW(1)
0016c0 93e0 027b 	STS  _segm_d,R30
0016c2 cf82      	RJMP SUBOPT_0xF
                 
                 ;OPTIMIZER ADDED SUBROUTINE, CALLED 4 TIMES, CODE SIZE REDUCTION:9 WORDS
                 SUBOPT_0x1F:
0016c3 e0e0      	LDI  R30,LOW(0)
0016c4 93e0 027a 	STS  _segm_c,R30
0016c6 93e0 027b 	STS  _segm_d,R30
0016c8 9508      	RET
                 
                 
                 	.CSEG
                 __ANEGW1:
0016c9 95f1      	NEG  R31
0016ca 95e1      	NEG  R30
0016cb 40f0      	SBCI R31,0
0016cc 9508      	RET
                 
                 __DIVW21U:
0016cd 2400      	CLR  R0
0016ce 2411      	CLR  R1
0016cf e190      	LDI  R25,16
                 __DIVW21U1:
0016d0 0faa      	LSL  R26
0016d1 1fbb      	ROL  R27
0016d2 1c00      	ROL  R0
0016d3 1c11      	ROL  R1
0016d4 1a0e      	SUB  R0,R30
0016d5 0a1f      	SBC  R1,R31
0016d6 f418      	BRCC __DIVW21U2
0016d7 0e0e      	ADD  R0,R30
0016d8 1e1f      	ADC  R1,R31
0016d9 c001      	RJMP __DIVW21U3
                 __DIVW21U2:
0016da 60a1      	SBR  R26,1
                 __DIVW21U3:
0016db 959a      	DEC  R25
0016dc f799      	BRNE __DIVW21U1
0016dd 01fd      	MOVW R30,R26
0016de 01d0      	MOVW R26,R0
0016df 9508      	RET
                 
                 __DIVW21:
0016e0 d004      	RCALL __CHKSIGNW
0016e1 dfeb      	RCALL __DIVW21U
0016e2 f40e      	BRTC __DIVW211
0016e3 dfe5      	RCALL __ANEGW1
                 __DIVW211:
0016e4 9508      	RET
                 
                 __CHKSIGNW:
0016e5 94e8      	CLT
0016e6 fff7      	SBRS R31,7
0016e7 c002      	RJMP __CHKSW1
0016e8 dfe0      	RCALL __ANEGW1
0016e9 9468      	SET
                 __CHKSW1:
0016ea ffb7      	SBRS R27,7
0016eb c006      	RJMP __CHKSW2
0016ec 95a0      	COM  R26
0016ed 95b0      	COM  R27
0016ee 9611      	ADIW R26,1
0016ef f800      	BLD  R0,0
0016f0 9403      	INC  R0
0016f1 fa00      	BST  R0,0
                 __CHKSW2:
0016f2 9508      	RET
                 
                 __CPD10:
0016f3 9730      	SBIW R30,0
0016f4 4060      	SBCI R22,0
0016f5 4070      	SBCI R23,0
0016f6 9508      	RET
                 
                 __CPD02:
0016f7 2400      	CLR  R0
0016f8 160a      	CP   R0,R26
0016f9 060b      	CPC  R0,R27
0016fa 0608      	CPC  R0,R24
0016fb 0609      	CPC  R0,R25
0016fc 9508      	RET
                 
                 ;END OF CODE MARKER
                 __END_OF_CODE:


RESOURCE USE INFORMATION
------------------------

Notice:
The register and instruction counts are symbol table hit counts,
and hence implicitly used resources are not counted, eg, the
'lpm' instruction without operands implicitly uses r0 and z,
none of which are counted.

x,y,z are separate entities in the symbol table and are
counted separately from r26..r31 here.

.dseg memory usage only counts static data declared with .byte

ATmega32 register use summary:
r0 :  14 r1 :   4 r2 :   0 r3 :   0 r4 :   6 r5 :   4 r6 :   4 r7 :   2 
r8 :   5 r9 :   3 r10:   5 r11:   3 r12:   5 r13:   3 r14:   0 r15:   0 
r16:   0 r17:   0 r18:   0 r19:   0 r20:   0 r21:   0 r22:  11 r23:   9 
r24:  10 r25:   7 r26:1266 r27:  13 r28:   1 r29:   1 r30:1725 r31:  38 
x  :   2 y  :   0 z  :   0 
Registers used: 23 out of 35 (65.7%)

ATmega32 instruction use summary:
.lds  :   0 .lds.l:   0 .sts  :   0 .sts.l:   0 adc   :   1 add   :   1 
adiw  :   7 and   :   0 andi  :   0 asr   :   0 bclr  :   0 bld   :   1 
brbc  :   0 brbs  :   0 brcc  :   1 brcs  :   0 break :   0 breq  : 157 
brge  :  10 brhc  :   0 brhs  :   0 brid  :   0 brie  :   0 brlo  :   1 
brlt  :   8 brmi  :   0 brne  : 501 brpl  :   0 brsh  :   1 brtc  :   1 
brts  :   0 brvc  :   0 brvs  :   0 bset  :   0 bst   :   1 call  :  49 
cbi   :  19 cbr   :   0 clc   :   0 clh   :   0 cli   :   1 cln   :   0 
clr   :  23 cls   :   0 clt   :   1 clv   :   0 clz   :   0 com   :   2 
cp    : 132 cpc   :  13 cpi   : 531 cpse  :   0 dec   :   3 des   :   0 
eor   :   0 fmul  :   0 fmuls :   0 fmulsu:   0 icall :   0 ijmp  :   0 
in    :   0 inc   :   1 jmp   :  32 ld    :   0 ldd   :   0 ldi   : 442 
lds   :1027 lpm   :   0 lsl   :   1 lsr   :   0 mov   :   0 movw  :  16 
mul   :   0 muls  :   1 mulsu :   0 neg   :   2 nop   :   0 or    :   0 
ori   :   0 out   :  38 pop   :   0 push  :   0 rcall :  97 ret   :  32 
reti  :   0 rjmp  : 190 rol   :   3 ror   :   0 sbc   :   2 sbci  :   9 
sbi   :  19 sbic  :   6 sbis  :  14 sbiw  :   4 sbr   :   1 sbrc  :   3 
sbrs  :   2 sec   :   0 seh   :   0 sei   :   0 sen   :   0 ser   :   3 
ses   :   0 set   :   1 sev   :   0 sez   :   0 sleep :   0 spm   :   0 
st    :   2 std   :   0 sts   : 665 sub   :   2 subi  :  32 swap  :   0 
tst   :   0 wdr   :   0 
Instructions used: 51 out of 116 (44.0%)

ATmega32 memory use summary [bytes]:
Segment   Begin    End      Code   Data   Used    Size   Use%
---------------------------------------------------------------
[.cseg] 0x000000 0x002dfa  11770      0  11770   32768  35.9%
[.dseg] 0x000060 0x0002fe      0    158    158    2048   7.7%
[.eseg] 0x000000 0x000000      0      0      0    1024   0.0%

Assembly complete, 0 errors, 5 warnings
