
AVRASM ver. 2.1.30  G:\-=PROGRAMAVIMAS=-\C PROGRAMOS\MAGNETO_VALDYMAS -=C=-\List\magnet.asm Sat Feb 18 17:47:22 2012

G:\-=PROGRAMAVIMAS=-\C PROGRAMOS\MAGNETO_VALDYMAS -=C=-\List\magnet.asm(1051): warning: Register r5 already defined by the .DEF directive
G:\-=PROGRAMAVIMAS=-\C PROGRAMOS\MAGNETO_VALDYMAS -=C=-\List\magnet.asm(1052): warning: Register r4 already defined by the .DEF directive
G:\-=PROGRAMAVIMAS=-\C PROGRAMOS\MAGNETO_VALDYMAS -=C=-\List\magnet.asm(1053): warning: Register r7 already defined by the .DEF directive
G:\-=PROGRAMAVIMAS=-\C PROGRAMOS\MAGNETO_VALDYMAS -=C=-\List\magnet.asm(1054): warning: Register r6 already defined by the .DEF directive
G:\-=PROGRAMAVIMAS=-\C PROGRAMOS\MAGNETO_VALDYMAS -=C=-\List\magnet.asm(1055): warning: Register r8 already defined by the .DEF directive
G:\-=PROGRAMAVIMAS=-\C PROGRAMOS\MAGNETO_VALDYMAS -=C=-\List\magnet.asm(1056): warning: Register r10 already defined by the .DEF directive
G:\-=PROGRAMAVIMAS=-\C PROGRAMOS\MAGNETO_VALDYMAS -=C=-\List\magnet.asm(1057): warning: Register r12 already defined by the .DEF directive
                 
                 
                 ;CodeVisionAVR C Compiler V2.04.4a Advanced
                 ;(C) Copyright 1998-2009 Pavel Haiduc, HP InfoTech s.r.l.
                 ;http://www.hpinfotech.com
                 
                 ;Chip type                : ATmega16
                 ;Program type             : Application
                 ;Clock frequency          : 4.000000 MHz
                 ;Memory model             : Small
                 ;Optimize for             : Size
                 ;(s)printf features       : int, width
                 ;(s)scanf features        : int, width
                 ;External RAM size        : 0
                 ;Data Stack size          : 256 byte(s)
                 ;Heap size                : 0 byte(s)
                 ;Promote 'char' to 'int'  : Yes
                 ;'char' is unsigned       : Yes
                 ;8 bit enums              : Yes
                 ;global 'const' stored in FLASH: No
                 ;Enhanced core instructions    : On
                 ;Smart register allocation     : On
                 ;Automatic register allocation : On
                 
                 	#pragma AVRPART ADMIN PART_NAME ATmega16
                 	#pragma AVRPART MEMORY PROG_FLASH 16384
                 	#pragma AVRPART MEMORY EEPROM 512
                 	#pragma AVRPART MEMORY INT_SRAM SIZE 1024
                 	#pragma AVRPART MEMORY INT_SRAM START_ADDR 0x60
                 
                 	.LISTMAC
                 	.EQU UDRE=0x5
                 	.EQU RXC=0x7
                 	.EQU USR=0xB
                 	.EQU UDR=0xC
                 	.EQU SPSR=0xE
                 	.EQU SPDR=0xF
                 	.EQU EERE=0x0
                 	.EQU EEWE=0x1
                 	.EQU EEMWE=0x2
                 	.EQU EECR=0x1C
                 	.EQU EEDR=0x1D
                 	.EQU EEARL=0x1E
                 	.EQU EEARH=0x1F
                 	.EQU WDTCR=0x21
                 	.EQU MCUCR=0x35
                 	.EQU GICR=0x3B
                 	.EQU SPL=0x3D
                 	.EQU SPH=0x3E
                 	.EQU SREG=0x3F
                 
                 	.DEF R0X0=R0
                 	.DEF R0X1=R1
                 	.DEF R0X2=R2
                 	.DEF R0X3=R3
                 	.DEF R0X4=R4
                 	.DEF R0X5=R5
                 	.DEF R0X6=R6
                 	.DEF R0X7=R7
                 	.DEF R0X8=R8
                 	.DEF R0X9=R9
                 	.DEF R0XA=R10
                 	.DEF R0XB=R11
                 	.DEF R0XC=R12
                 	.DEF R0XD=R13
                 	.DEF R0XE=R14
                 	.DEF R0XF=R15
                 	.DEF R0X10=R16
                 	.DEF R0X11=R17
                 	.DEF R0X12=R18
                 	.DEF R0X13=R19
                 	.DEF R0X14=R20
                 	.DEF R0X15=R21
                 	.DEF R0X16=R22
                 	.DEF R0X17=R23
                 	.DEF R0X18=R24
                 	.DEF R0X19=R25
                 	.DEF R0X1A=R26
                 	.DEF R0X1B=R27
                 	.DEF R0X1C=R28
                 	.DEF R0X1D=R29
                 	.DEF R0X1E=R30
                 	.DEF R0X1F=R31
                 
                 	.MACRO __CPD1N
                 	CPI  R30,LOW(@0)
                 	LDI  R26,HIGH(@0)
                 	CPC  R31,R26
                 	LDI  R26,BYTE3(@0)
                 	CPC  R22,R26
                 	LDI  R26,BYTE4(@0)
                 	CPC  R23,R26
                 	.ENDM
                 
                 	.MACRO __CPD2N
                 	CPI  R26,LOW(@0)
                 	LDI  R30,HIGH(@0)
                 	CPC  R27,R30
                 	LDI  R30,BYTE3(@0)
                 	CPC  R24,R30
                 	LDI  R30,BYTE4(@0)
                 	CPC  R25,R30
                 	.ENDM
                 
                 	.MACRO __CPWRR
                 	CP   R@0,R@2
                 	CPC  R@1,R@3
                 	.ENDM
                 
                 	.MACRO __CPWRN
                 	CPI  R@0,LOW(@2)
                 	LDI  R30,HIGH(@2)
                 	CPC  R@1,R30
                 	.ENDM
                 
                 	.MACRO __ADDB1MN
                 	SUBI R30,LOW(-@0-(@1))
                 	.ENDM
                 
                 	.MACRO __ADDB2MN
                 	SUBI R26,LOW(-@0-(@1))
                 	.ENDM
                 
                 	.MACRO __ADDW1MN
                 	SUBI R30,LOW(-@0-(@1))
                 	SBCI R31,HIGH(-@0-(@1))
                 	.ENDM
                 
                 	.MACRO __ADDW2MN
                 	SUBI R26,LOW(-@0-(@1))
                 	SBCI R27,HIGH(-@0-(@1))
                 	.ENDM
                 
                 	.MACRO __ADDW1FN
                 	SUBI R30,LOW(-2*@0-(@1))
                 	SBCI R31,HIGH(-2*@0-(@1))
                 	.ENDM
                 
                 	.MACRO __ADDD1FN
                 	SUBI R30,LOW(-2*@0-(@1))
                 	SBCI R31,HIGH(-2*@0-(@1))
                 	SBCI R22,BYTE3(-2*@0-(@1))
                 	.ENDM
                 
                 	.MACRO __ADDD1N
                 	SUBI R30,LOW(-@0)
                 	SBCI R31,HIGH(-@0)
                 	SBCI R22,BYTE3(-@0)
                 	SBCI R23,BYTE4(-@0)
                 	.ENDM
                 
                 	.MACRO __ADDD2N
                 	SUBI R26,LOW(-@0)
                 	SBCI R27,HIGH(-@0)
                 	SBCI R24,BYTE3(-@0)
                 	SBCI R25,BYTE4(-@0)
                 	.ENDM
                 
                 	.MACRO __SUBD1N
                 	SUBI R30,LOW(@0)
                 	SBCI R31,HIGH(@0)
                 	SBCI R22,BYTE3(@0)
                 	SBCI R23,BYTE4(@0)
                 	.ENDM
                 
                 	.MACRO __SUBD2N
                 	SUBI R26,LOW(@0)
                 	SBCI R27,HIGH(@0)
                 	SBCI R24,BYTE3(@0)
                 	SBCI R25,BYTE4(@0)
                 	.ENDM
                 
                 	.MACRO __ANDBMNN
                 	LDS  R30,@0+(@1)
                 	ANDI R30,LOW(@2)
                 	STS  @0+(@1),R30
                 	.ENDM
                 
                 	.MACRO __ANDWMNN
                 	LDS  R30,@0+(@1)
                 	ANDI R30,LOW(@2)
                 	STS  @0+(@1),R30
                 	LDS  R30,@0+(@1)+1
                 	ANDI R30,HIGH(@2)
                 	STS  @0+(@1)+1,R30
                 	.ENDM
                 
                 	.MACRO __ANDD1N
                 	ANDI R30,LOW(@0)
                 	ANDI R31,HIGH(@0)
                 	ANDI R22,BYTE3(@0)
                 	ANDI R23,BYTE4(@0)
                 	.ENDM
                 
                 	.MACRO __ANDD2N
                 	ANDI R26,LOW(@0)
                 	ANDI R27,HIGH(@0)
                 	ANDI R24,BYTE3(@0)
                 	ANDI R25,BYTE4(@0)
                 	.ENDM
                 
                 	.MACRO __ORBMNN
                 	LDS  R30,@0+(@1)
                 	ORI  R30,LOW(@2)
                 	STS  @0+(@1),R30
                 	.ENDM
                 
                 	.MACRO __ORWMNN
                 	LDS  R30,@0+(@1)
                 	ORI  R30,LOW(@2)
                 	STS  @0+(@1),R30
                 	LDS  R30,@0+(@1)+1
                 	ORI  R30,HIGH(@2)
                 	STS  @0+(@1)+1,R30
                 	.ENDM
                 
                 	.MACRO __ORD1N
                 	ORI  R30,LOW(@0)
                 	ORI  R31,HIGH(@0)
                 	ORI  R22,BYTE3(@0)
                 	ORI  R23,BYTE4(@0)
                 	.ENDM
                 
                 	.MACRO __ORD2N
                 	ORI  R26,LOW(@0)
                 	ORI  R27,HIGH(@0)
                 	ORI  R24,BYTE3(@0)
                 	ORI  R25,BYTE4(@0)
                 	.ENDM
                 
                 	.MACRO __DELAY_USB
                 	LDI  R24,LOW(@0)
                 __DELAY_USB_LOOP:
                 	DEC  R24
                 	BRNE __DELAY_USB_LOOP
                 	.ENDM
                 
                 	.MACRO __DELAY_USW
                 	LDI  R24,LOW(@0)
                 	LDI  R25,HIGH(@0)
                 __DELAY_USW_LOOP:
                 	SBIW R24,1
                 	BRNE __DELAY_USW_LOOP
                 	.ENDM
                 
                 	.MACRO __GETD1S
                 	LDD  R30,Y+@0
                 	LDD  R31,Y+@0+1
                 	LDD  R22,Y+@0+2
                 	LDD  R23,Y+@0+3
                 	.ENDM
                 
                 	.MACRO __GETD2S
                 	LDD  R26,Y+@0
                 	LDD  R27,Y+@0+1
                 	LDD  R24,Y+@0+2
                 	LDD  R25,Y+@0+3
                 	.ENDM
                 
                 	.MACRO __PUTD1S
                 	STD  Y+@0,R30
                 	STD  Y+@0+1,R31
                 	STD  Y+@0+2,R22
                 	STD  Y+@0+3,R23
                 	.ENDM
                 
                 	.MACRO __PUTD2S
                 	STD  Y+@0,R26
                 	STD  Y+@0+1,R27
                 	STD  Y+@0+2,R24
                 	STD  Y+@0+3,R25
                 	.ENDM
                 
                 	.MACRO __PUTDZ2
                 	STD  Z+@0,R26
                 	STD  Z+@0+1,R27
                 	STD  Z+@0+2,R24
                 	STD  Z+@0+3,R25
                 	.ENDM
                 
                 	.MACRO __CLRD1S
                 	STD  Y+@0,R30
                 	STD  Y+@0+1,R30
                 	STD  Y+@0+2,R30
                 	STD  Y+@0+3,R30
                 	.ENDM
                 
                 	.MACRO __POINTB1MN
                 	LDI  R30,LOW(@0+(@1))
                 	.ENDM
                 
                 	.MACRO __POINTW1MN
                 	LDI  R30,LOW(@0+(@1))
                 	LDI  R31,HIGH(@0+(@1))
                 	.ENDM
                 
                 	.MACRO __POINTD1M
                 	LDI  R30,LOW(@0)
                 	LDI  R31,HIGH(@0)
                 	LDI  R22,BYTE3(@0)
                 	LDI  R23,BYTE4(@0)
                 	.ENDM
                 
                 	.MACRO __POINTW1FN
                 	LDI  R30,LOW(2*@0+(@1))
                 	LDI  R31,HIGH(2*@0+(@1))
                 	.ENDM
                 
                 	.MACRO __POINTD1FN
                 	LDI  R30,LOW(2*@0+(@1))
                 	LDI  R31,HIGH(2*@0+(@1))
                 	LDI  R22,BYTE3(2*@0+(@1))
                 	LDI  R23,BYTE4(2*@0+(@1))
                 	.ENDM
                 
                 	.MACRO __POINTB2MN
                 	LDI  R26,LOW(@0+(@1))
                 	.ENDM
                 
                 	.MACRO __POINTW2MN
                 	LDI  R26,LOW(@0+(@1))
                 	LDI  R27,HIGH(@0+(@1))
                 	.ENDM
                 
                 	.MACRO __POINTBRM
                 	LDI  R@0,LOW(@1)
                 	.ENDM
                 
                 	.MACRO __POINTWRM
                 	LDI  R@0,LOW(@2)
                 	LDI  R@1,HIGH(@2)
                 	.ENDM
                 
                 	.MACRO __POINTBRMN
                 	LDI  R@0,LOW(@1+(@2))
                 	.ENDM
                 
                 	.MACRO __POINTWRMN
                 	LDI  R@0,LOW(@2+(@3))
                 	LDI  R@1,HIGH(@2+(@3))
                 	.ENDM
                 
                 	.MACRO __POINTWRFN
                 	LDI  R@0,LOW(@2*2+(@3))
                 	LDI  R@1,HIGH(@2*2+(@3))
                 	.ENDM
                 
                 	.MACRO __GETD1N
                 	LDI  R30,LOW(@0)
                 	LDI  R31,HIGH(@0)
                 	LDI  R22,BYTE3(@0)
                 	LDI  R23,BYTE4(@0)
                 	.ENDM
                 
                 	.MACRO __GETD2N
                 	LDI  R26,LOW(@0)
                 	LDI  R27,HIGH(@0)
                 	LDI  R24,BYTE3(@0)
                 	LDI  R25,BYTE4(@0)
                 	.ENDM
                 
                 	.MACRO __GETB1MN
                 	LDS  R30,@0+(@1)
                 	.ENDM
                 
                 	.MACRO __GETB1HMN
                 	LDS  R31,@0+(@1)
                 	.ENDM
                 
                 	.MACRO __GETW1MN
                 	LDS  R30,@0+(@1)
                 	LDS  R31,@0+(@1)+1
                 	.ENDM
                 
                 	.MACRO __GETD1MN
                 	LDS  R30,@0+(@1)
                 	LDS  R31,@0+(@1)+1
                 	LDS  R22,@0+(@1)+2
                 	LDS  R23,@0+(@1)+3
                 	.ENDM
                 
                 	.MACRO __GETBRMN
                 	LDS  R@0,@1+(@2)
                 	.ENDM
                 
                 	.MACRO __GETWRMN
                 	LDS  R@0,@2+(@3)
                 	LDS  R@1,@2+(@3)+1
                 	.ENDM
                 
                 	.MACRO __GETWRZ
                 	LDD  R@0,Z+@2
                 	LDD  R@1,Z+@2+1
                 	.ENDM
                 
                 	.MACRO __GETD2Z
                 	LDD  R26,Z+@0
                 	LDD  R27,Z+@0+1
                 	LDD  R24,Z+@0+2
                 	LDD  R25,Z+@0+3
                 	.ENDM
                 
                 	.MACRO __GETB2MN
                 	LDS  R26,@0+(@1)
                 	.ENDM
                 
                 	.MACRO __GETW2MN
                 	LDS  R26,@0+(@1)
                 	LDS  R27,@0+(@1)+1
                 	.ENDM
                 
                 	.MACRO __GETD2MN
                 	LDS  R26,@0+(@1)
                 	LDS  R27,@0+(@1)+1
                 	LDS  R24,@0+(@1)+2
                 	LDS  R25,@0+(@1)+3
                 	.ENDM
                 
                 	.MACRO __PUTB1MN
                 	STS  @0+(@1),R30
                 	.ENDM
                 
                 	.MACRO __PUTW1MN
                 	STS  @0+(@1),R30
                 	STS  @0+(@1)+1,R31
                 	.ENDM
                 
                 	.MACRO __PUTD1MN
                 	STS  @0+(@1),R30
                 	STS  @0+(@1)+1,R31
                 	STS  @0+(@1)+2,R22
                 	STS  @0+(@1)+3,R23
                 	.ENDM
                 
                 	.MACRO __PUTB1EN
                 	LDI  R26,LOW(@0+(@1))
                 	LDI  R27,HIGH(@0+(@1))
                 	CALL __EEPROMWRB
                 	.ENDM
                 
                 	.MACRO __PUTW1EN
                 	LDI  R26,LOW(@0+(@1))
                 	LDI  R27,HIGH(@0+(@1))
                 	CALL __EEPROMWRW
                 	.ENDM
                 
                 	.MACRO __PUTD1EN
                 	LDI  R26,LOW(@0+(@1))
                 	LDI  R27,HIGH(@0+(@1))
                 	CALL __EEPROMWRD
                 	.ENDM
                 
                 	.MACRO __PUTBR0MN
                 	STS  @0+(@1),R0
                 	.ENDM
                 
                 	.MACRO __PUTBMRN
                 	STS  @0+(@1),R@2
                 	.ENDM
                 
                 	.MACRO __PUTWMRN
                 	STS  @0+(@1),R@2
                 	STS  @0+(@1)+1,R@3
                 	.ENDM
                 
                 	.MACRO __PUTBZR
                 	STD  Z+@1,R@0
                 	.ENDM
                 
                 	.MACRO __PUTWZR
                 	STD  Z+@2,R@0
                 	STD  Z+@2+1,R@1
                 	.ENDM
                 
                 	.MACRO __GETW1R
                 	MOV  R30,R@0
                 	MOV  R31,R@1
                 	.ENDM
                 
                 	.MACRO __GETW2R
                 	MOV  R26,R@0
                 	MOV  R27,R@1
                 	.ENDM
                 
                 	.MACRO __GETWRN
                 	LDI  R@0,LOW(@2)
                 	LDI  R@1,HIGH(@2)
                 	.ENDM
                 
                 	.MACRO __PUTW1R
                 	MOV  R@0,R30
                 	MOV  R@1,R31
                 	.ENDM
                 
                 	.MACRO __PUTW2R
                 	MOV  R@0,R26
                 	MOV  R@1,R27
                 	.ENDM
                 
                 	.MACRO __ADDWRN
                 	SUBI R@0,LOW(-@2)
                 	SBCI R@1,HIGH(-@2)
                 	.ENDM
                 
                 	.MACRO __ADDWRR
                 	ADD  R@0,R@2
                 	ADC  R@1,R@3
                 	.ENDM
                 
                 	.MACRO __SUBWRN
                 	SUBI R@0,LOW(@2)
                 	SBCI R@1,HIGH(@2)
                 	.ENDM
                 
                 	.MACRO __SUBWRR
                 	SUB  R@0,R@2
                 	SBC  R@1,R@3
                 	.ENDM
                 
                 	.MACRO __ANDWRN
                 	ANDI R@0,LOW(@2)
                 	ANDI R@1,HIGH(@2)
                 	.ENDM
                 
                 	.MACRO __ANDWRR
                 	AND  R@0,R@2
                 	AND  R@1,R@3
                 	.ENDM
                 
                 	.MACRO __ORWRN
                 	ORI  R@0,LOW(@2)
                 	ORI  R@1,HIGH(@2)
                 	.ENDM
                 
                 	.MACRO __ORWRR
                 	OR   R@0,R@2
                 	OR   R@1,R@3
                 	.ENDM
                 
                 	.MACRO __EORWRR
                 	EOR  R@0,R@2
                 	EOR  R@1,R@3
                 	.ENDM
                 
                 	.MACRO __GETWRS
                 	LDD  R@0,Y+@2
                 	LDD  R@1,Y+@2+1
                 	.ENDM
                 
                 	.MACRO __PUTBSR
                 	STD  Y+@1,R@0
                 	.ENDM
                 
                 	.MACRO __PUTWSR
                 	STD  Y+@2,R@0
                 	STD  Y+@2+1,R@1
                 	.ENDM
                 
                 	.MACRO __MOVEWRR
                 	MOV  R@0,R@2
                 	MOV  R@1,R@3
                 	.ENDM
                 
                 	.MACRO __INWR
                 	IN   R@0,@2
                 	IN   R@1,@2+1
                 	.ENDM
                 
                 	.MACRO __OUTWR
                 	OUT  @2+1,R@1
                 	OUT  @2,R@0
                 	.ENDM
                 
                 	.MACRO __CALL1MN
                 	LDS  R30,@0+(@1)
                 	LDS  R31,@0+(@1)+1
                 	ICALL
                 	.ENDM
                 
                 	.MACRO __CALL1FN
                 	LDI  R30,LOW(2*@0+(@1))
                 	LDI  R31,HIGH(2*@0+(@1))
                 	CALL __GETW1PF
                 	ICALL
                 	.ENDM
                 
                 	.MACRO __CALL2EN
                 	LDI  R26,LOW(@0+(@1))
                 	LDI  R27,HIGH(@0+(@1))
                 	CALL __EEPROMRDW
                 	ICALL
                 	.ENDM
                 
                 	.MACRO __GETW1STACK
                 	IN   R26,SPL
                 	IN   R27,SPH
                 	ADIW R26,@0+1
                 	LD   R30,X+
                 	LD   R31,X
                 	.ENDM
                 
                 	.MACRO __GETD1STACK
                 	IN   R26,SPL
                 	IN   R27,SPH
                 	ADIW R26,@0+1
                 	LD   R30,X+
                 	LD   R31,X+
                 	LD   R22,X
                 	.ENDM
                 
                 	.MACRO __NBST
                 	BST  R@0,@1
                 	IN   R30,SREG
                 	LDI  R31,0x40
                 	EOR  R30,R31
                 	OUT  SREG,R30
                 	.ENDM
                 
                 
                 	.MACRO __PUTB1SN
                 	LDD  R26,Y+@0
                 	LDD  R27,Y+@0+1
                 	SUBI R26,LOW(-@1)
                 	SBCI R27,HIGH(-@1)
                 	ST   X,R30
                 	.ENDM
                 
                 	.MACRO __PUTW1SN
                 	LDD  R26,Y+@0
                 	LDD  R27,Y+@0+1
                 	SUBI R26,LOW(-@1)
                 	SBCI R27,HIGH(-@1)
                 	ST   X+,R30
                 	ST   X,R31
                 	.ENDM
                 
                 	.MACRO __PUTD1SN
                 	LDD  R26,Y+@0
                 	LDD  R27,Y+@0+1
                 	SUBI R26,LOW(-@1)
                 	SBCI R27,HIGH(-@1)
                 	CALL __PUTDP1
                 	.ENDM
                 
                 	.MACRO __PUTB1SNS
                 	LDD  R26,Y+@0
                 	LDD  R27,Y+@0+1
                 	ADIW R26,@1
                 	ST   X,R30
                 	.ENDM
                 
                 	.MACRO __PUTW1SNS
                 	LDD  R26,Y+@0
                 	LDD  R27,Y+@0+1
                 	ADIW R26,@1
                 	ST   X+,R30
                 	ST   X,R31
                 	.ENDM
                 
                 	.MACRO __PUTD1SNS
                 	LDD  R26,Y+@0
                 	LDD  R27,Y+@0+1
                 	ADIW R26,@1
                 	CALL __PUTDP1
                 	.ENDM
                 
                 	.MACRO __PUTB1PMN
                 	LDS  R26,@0
                 	LDS  R27,@0+1
                 	SUBI R26,LOW(-@1)
                 	SBCI R27,HIGH(-@1)
                 	ST   X,R30
                 	.ENDM
                 
                 	.MACRO __PUTW1PMN
                 	LDS  R26,@0
                 	LDS  R27,@0+1
                 	SUBI R26,LOW(-@1)
                 	SBCI R27,HIGH(-@1)
                 	ST   X+,R30
                 	ST   X,R31
                 	.ENDM
                 
                 	.MACRO __PUTD1PMN
                 	LDS  R26,@0
                 	LDS  R27,@0+1
                 	SUBI R26,LOW(-@1)
                 	SBCI R27,HIGH(-@1)
                 	CALL __PUTDP1
                 	.ENDM
                 
                 	.MACRO __PUTB1PMNS
                 	LDS  R26,@0
                 	LDS  R27,@0+1
                 	ADIW R26,@1
                 	ST   X,R30
                 	.ENDM
                 
                 	.MACRO __PUTW1PMNS
                 	LDS  R26,@0
                 	LDS  R27,@0+1
                 	ADIW R26,@1
                 	ST   X+,R30
                 	ST   X,R31
                 	.ENDM
                 
                 	.MACRO __PUTD1PMNS
                 	LDS  R26,@0
                 	LDS  R27,@0+1
                 	ADIW R26,@1
                 	CALL __PUTDP1
                 	.ENDM
                 
                 	.MACRO __PUTB1RN
                 	MOVW R26,R@0
                 	SUBI R26,LOW(-@1)
                 	SBCI R27,HIGH(-@1)
                 	ST   X,R30
                 	.ENDM
                 
                 	.MACRO __PUTW1RN
                 	MOVW R26,R@0
                 	SUBI R26,LOW(-@1)
                 	SBCI R27,HIGH(-@1)
                 	ST   X+,R30
                 	ST   X,R31
                 	.ENDM
                 
                 	.MACRO __PUTD1RN
                 	MOVW R26,R@0
                 	SUBI R26,LOW(-@1)
                 	SBCI R27,HIGH(-@1)
                 	CALL __PUTDP1
                 	.ENDM
                 
                 	.MACRO __PUTB1RNS
                 	MOVW R26,R@0
                 	ADIW R26,@1
                 	ST   X,R30
                 	.ENDM
                 
                 	.MACRO __PUTW1RNS
                 	MOVW R26,R@0
                 	ADIW R26,@1
                 	ST   X+,R30
                 	ST   X,R31
                 	.ENDM
                 
                 	.MACRO __PUTD1RNS
                 	MOVW R26,R@0
                 	ADIW R26,@1
                 	CALL __PUTDP1
                 	.ENDM
                 
                 	.MACRO __PUTB1RON
                 	MOV  R26,R@0
                 	MOV  R27,R@1
                 	SUBI R26,LOW(-@2)
                 	SBCI R27,HIGH(-@2)
                 	ST   X,R30
                 	.ENDM
                 
                 	.MACRO __PUTW1RON
                 	MOV  R26,R@0
                 	MOV  R27,R@1
                 	SUBI R26,LOW(-@2)
                 	SBCI R27,HIGH(-@2)
                 	ST   X+,R30
                 	ST   X,R31
                 	.ENDM
                 
                 	.MACRO __PUTD1RON
                 	MOV  R26,R@0
                 	MOV  R27,R@1
                 	SUBI R26,LOW(-@2)
                 	SBCI R27,HIGH(-@2)
                 	CALL __PUTDP1
                 	.ENDM
                 
                 	.MACRO __PUTB1RONS
                 	MOV  R26,R@0
                 	MOV  R27,R@1
                 	ADIW R26,@2
                 	ST   X,R30
                 	.ENDM
                 
                 	.MACRO __PUTW1RONS
                 	MOV  R26,R@0
                 	MOV  R27,R@1
                 	ADIW R26,@2
                 	ST   X+,R30
                 	ST   X,R31
                 	.ENDM
                 
                 	.MACRO __PUTD1RONS
                 	MOV  R26,R@0
                 	MOV  R27,R@1
                 	ADIW R26,@2
                 	CALL __PUTDP1
                 	.ENDM
                 
                 
                 	.MACRO __GETB1SX
                 	MOVW R30,R28
                 	SUBI R30,LOW(-@0)
                 	SBCI R31,HIGH(-@0)
                 	LD   R30,Z
                 	.ENDM
                 
                 	.MACRO __GETB1HSX
                 	MOVW R30,R28
                 	SUBI R30,LOW(-@0)
                 	SBCI R31,HIGH(-@0)
                 	LD   R31,Z
                 	.ENDM
                 
                 	.MACRO __GETW1SX
                 	MOVW R30,R28
                 	SUBI R30,LOW(-@0)
                 	SBCI R31,HIGH(-@0)
                 	LD   R0,Z+
                 	LD   R31,Z
                 	MOV  R30,R0
                 	.ENDM
                 
                 	.MACRO __GETD1SX
                 	MOVW R30,R28
                 	SUBI R30,LOW(-@0)
                 	SBCI R31,HIGH(-@0)
                 	LD   R0,Z+
                 	LD   R1,Z+
                 	LD   R22,Z+
                 	LD   R23,Z
                 	MOVW R30,R0
                 	.ENDM
                 
                 	.MACRO __GETB2SX
                 	MOVW R26,R28
                 	SUBI R26,LOW(-@0)
                 	SBCI R27,HIGH(-@0)
                 	LD   R26,X
                 	.ENDM
                 
                 	.MACRO __GETW2SX
                 	MOVW R26,R28
                 	SUBI R26,LOW(-@0)
                 	SBCI R27,HIGH(-@0)
                 	LD   R0,X+
                 	LD   R27,X
                 	MOV  R26,R0
                 	.ENDM
                 
                 	.MACRO __GETD2SX
                 	MOVW R26,R28
                 	SUBI R26,LOW(-@0)
                 	SBCI R27,HIGH(-@0)
                 	LD   R0,X+
                 	LD   R1,X+
                 	LD   R24,X+
                 	LD   R25,X
                 	MOVW R26,R0
                 	.ENDM
                 
                 	.MACRO __GETBRSX
                 	MOVW R30,R28
                 	SUBI R30,LOW(-@1)
                 	SBCI R31,HIGH(-@1)
                 	LD   R@0,Z
                 	.ENDM
                 
                 	.MACRO __GETWRSX
                 	MOVW R30,R28
                 	SUBI R30,LOW(-@2)
                 	SBCI R31,HIGH(-@2)
                 	LD   R@0,Z+
                 	LD   R@1,Z
                 	.ENDM
                 
                 	.MACRO __GETBRSX2
                 	MOVW R26,R28
                 	SUBI R26,LOW(-@1)
                 	SBCI R27,HIGH(-@1)
                 	LD   R@0,X
                 	.ENDM
                 
                 	.MACRO __GETWRSX2
                 	MOVW R26,R28
                 	SUBI R26,LOW(-@2)
                 	SBCI R27,HIGH(-@2)
                 	LD   R@0,X+
                 	LD   R@1,X
                 	.ENDM
                 
                 	.MACRO __LSLW8SX
                 	MOVW R30,R28
                 	SUBI R30,LOW(-@0)
                 	SBCI R31,HIGH(-@0)
                 	LD   R31,Z
                 	CLR  R30
                 	.ENDM
                 
                 	.MACRO __PUTB1SX
                 	MOVW R26,R28
                 	SUBI R26,LOW(-@0)
                 	SBCI R27,HIGH(-@0)
                 	ST   X,R30
                 	.ENDM
                 
                 	.MACRO __PUTW1SX
                 	MOVW R26,R28
                 	SUBI R26,LOW(-@0)
                 	SBCI R27,HIGH(-@0)
                 	ST   X+,R30
                 	ST   X,R31
                 	.ENDM
                 
                 	.MACRO __PUTD1SX
                 	MOVW R26,R28
                 	SUBI R26,LOW(-@0)
                 	SBCI R27,HIGH(-@0)
                 	ST   X+,R30
                 	ST   X+,R31
                 	ST   X+,R22
                 	ST   X,R23
                 	.ENDM
                 
                 	.MACRO __CLRW1SX
                 	MOVW R26,R28
                 	SUBI R26,LOW(-@0)
                 	SBCI R27,HIGH(-@0)
                 	ST   X+,R30
                 	ST   X,R30
                 	.ENDM
                 
                 	.MACRO __CLRD1SX
                 	MOVW R26,R28
                 	SUBI R26,LOW(-@0)
                 	SBCI R27,HIGH(-@0)
                 	ST   X+,R30
                 	ST   X+,R30
                 	ST   X+,R30
                 	ST   X,R30
                 	.ENDM
                 
                 	.MACRO __PUTB2SX
                 	MOVW R30,R28
                 	SUBI R30,LOW(-@0)
                 	SBCI R31,HIGH(-@0)
                 	ST   Z,R26
                 	.ENDM
                 
                 	.MACRO __PUTW2SX
                 	MOVW R30,R28
                 	SUBI R30,LOW(-@0)
                 	SBCI R31,HIGH(-@0)
                 	ST   Z+,R26
                 	ST   Z,R27
                 	.ENDM
                 
                 	.MACRO __PUTD2SX
                 	MOVW R30,R28
                 	SUBI R30,LOW(-@0)
                 	SBCI R31,HIGH(-@0)
                 	ST   Z+,R26
                 	ST   Z+,R27
                 	ST   Z+,R24
                 	ST   Z,R25
                 	.ENDM
                 
                 	.MACRO __PUTBSRX
                 	MOVW R30,R28
                 	SUBI R30,LOW(-@1)
                 	SBCI R31,HIGH(-@1)
                 	ST   Z,R@0
                 	.ENDM
                 
                 	.MACRO __PUTWSRX
                 	MOVW R30,R28
                 	SUBI R30,LOW(-@2)
                 	SBCI R31,HIGH(-@2)
                 	ST   Z+,R@0
                 	ST   Z,R@1
                 	.ENDM
                 
                 	.MACRO __PUTB1SNX
                 	MOVW R26,R28
                 	SUBI R26,LOW(-@0)
                 	SBCI R27,HIGH(-@0)
                 	LD   R0,X+
                 	LD   R27,X
                 	MOV  R26,R0
                 	SUBI R26,LOW(-@1)
                 	SBCI R27,HIGH(-@1)
                 	ST   X,R30
                 	.ENDM
                 
                 	.MACRO __PUTW1SNX
                 	MOVW R26,R28
                 	SUBI R26,LOW(-@0)
                 	SBCI R27,HIGH(-@0)
                 	LD   R0,X+
                 	LD   R27,X
                 	MOV  R26,R0
                 	SUBI R26,LOW(-@1)
                 	SBCI R27,HIGH(-@1)
                 	ST   X+,R30
                 	ST   X,R31
                 	.ENDM
                 
                 	.MACRO __PUTD1SNX
                 	MOVW R26,R28
                 	SUBI R26,LOW(-@0)
                 	SBCI R27,HIGH(-@0)
                 	LD   R0,X+
                 	LD   R27,X
                 	MOV  R26,R0
                 	SUBI R26,LOW(-@1)
                 	SBCI R27,HIGH(-@1)
                 	ST   X+,R30
                 	ST   X+,R31
                 	ST   X+,R22
                 	ST   X,R23
                 	.ENDM
                 
                 	.MACRO __MULBRR
                 	MULS R@0,R@1
                 	MOVW R30,R0
                 	.ENDM
                 
                 	.MACRO __MULBRRU
                 	MUL  R@0,R@1
                 	MOVW R30,R0
                 	.ENDM
                 
                 	.MACRO __MULBRR0
                 	MULS R@0,R@1
                 	.ENDM
                 
                 	.MACRO __MULBRRU0
                 	MUL  R@0,R@1
                 	.ENDM
                 
                 	.MACRO __MULBNWRU
                 	LDI  R26,@2
                 	MUL  R26,R@0
                 	MOVW R30,R0
                 	MUL  R26,R@1
                 	ADD  R31,R0
                 	.ENDM
                 
                 ;NAME DEFINITIONS FOR GLOBAL VARIABLES ALLOCATED TO REGISTERS
                 	.DEF _pasisveikinimas_baigtas=R5
                 	.DEF _x=R4
                 	.DEF _y=R7
                 	.DEF _z=R6
                 	.DEF _VIENA_SEKUNDE=R8
                 	.DEF _PUSE_SEKUNDES=R10
                 	.DEF _KETVIRTADALIS_SEKUNDES=R12
                 
                 	.CSEG
                 	.ORG 0x00
                 
                 ;INTERRUPT VECTORS
000000 940c 002a 	JMP  __RESET
000002 940c 0000 	JMP  0x00
000004 940c 0000 	JMP  0x00
000006 940c 0000 	JMP  0x00
000008 940c 0000 	JMP  0x00
00000a 940c 0000 	JMP  0x00
00000c 940c 0000 	JMP  0x00
00000e 940c 0000 	JMP  0x00
000010 940c 0000 	JMP  0x00
000012 940c 0000 	JMP  0x00
000014 940c 0000 	JMP  0x00
000016 940c 0000 	JMP  0x00
000018 940c 0000 	JMP  0x00
00001a 940c 0000 	JMP  0x00
00001c 940c 0000 	JMP  0x00
00001e 940c 0000 	JMP  0x00
000020 940c 0000 	JMP  0x00
000022 940c 0000 	JMP  0x00
000024 940c 0000 	JMP  0x00
000026 940c 0000 	JMP  0x00
000028 940c 0000 	JMP  0x00
                 
                 __RESET:
00002a 94f8      	CLI
00002b 27ee      	CLR  R30
00002c bbec      	OUT  EECR,R30
                 
                 ;INTERRUPT VECTORS ARE PLACED
                 ;AT THE START OF FLASH
00002d e0f1      	LDI  R31,1
00002e bffb      	OUT  GICR,R31
00002f bfeb      	OUT  GICR,R30
000030 bfe5      	OUT  MCUCR,R30
                 
                 ;DISABLE WATCHDOG
000031 e1f8      	LDI  R31,0x18
000032 bdf1      	OUT  WDTCR,R31
000033 bde1      	OUT  WDTCR,R30
                 
                 ;CLEAR R2-R14
000034 e08d      	LDI  R24,(14-2)+1
000035 e0a2      	LDI  R26,2
000036 27bb      	CLR  R27
                 __CLEAR_REG:
000037 93ed      	ST   X+,R30
000038 958a      	DEC  R24
000039 f7e9      	BRNE __CLEAR_REG
                 
                 ;CLEAR SRAM
00003a e080      	LDI  R24,LOW(0x400)
00003b e094      	LDI  R25,HIGH(0x400)
00003c e6a0      	LDI  R26,0x60
                 __CLEAR_SRAM:
00003d 93ed      	ST   X+,R30
00003e 9701      	SBIW R24,1
00003f f7e9      	BRNE __CLEAR_SRAM
                 
                 ;STACK POINTER INITIALIZATION
000040 e5ef      	LDI  R30,LOW(0x45F)
000041 bfed      	OUT  SPL,R30
000042 e0e4      	LDI  R30,HIGH(0x45F)
000043 bfee      	OUT  SPH,R30
                 
                 ;DATA STACK POINTER INITIALIZATION
000044 e6c0      	LDI  R28,LOW(0x160)
000045 e0d1      	LDI  R29,HIGH(0x160)
                 
000046 940c 0048 	JMP  _main
                 
                 	.ESEG
                 	.ORG 0
                 
                 	.DSEG
                 	.ORG 0x160
                 
                 	.CSEG
                 ;/*****************************************************
                 ;Project :
                 ;Version :
                 ;Date    : 7/14/2010
                 ;Author  : NeVaDa
                 ;Company : namai
                 ;Comments:
                 ;
                 ;
                 ;Chip type               : ATmega16
                 ;Program type            : Application
                 ;AVR Core Clock frequency: 4.000000 MHz
                 ;Memory model            : Small
                 ;External RAM size       : 0
                 ;Data Stack size         : 256
                 ;*****************************************************/
                 ;
                 ;#include <mega16.h>
                 	#ifndef __SLEEP_DEFINED__
                 	#define __SLEEP_DEFINED__
                 	.EQU __se_bit=0x40
                 	.EQU __sm_mask=0xB0
                 	.EQU __sm_powerdown=0x20
                 	.EQU __sm_powersave=0x30
                 	.EQU __sm_standby=0xA0
                 	.EQU __sm_ext_standby=0xB0
                 	.EQU __sm_adc_noise_red=0x10
                 	.SET power_ctrl_reg=mcucr
                 	#endif
                 ;
                 ;void oscilatorius();
                 ;
                 ;void inputai();
                 ;void outputai();
                 ;
                 ;void sekundes_ir_jos_daliu_trukme_ciklais();
                 ;void sekundes_trukmes_keitimas();
                 ;
                 ;void dabartinis_laikas();
                 ;void dabartinio_laiko_skaiciavimas();
                 ;
                 ;void pasisveikinimas();
                 ;
                 ;void padeciu_medis();
                 ;
                 ;void blyksintis_skaicius();
                 ;
                 ;void fontai();
                 ;
                 ;void kondensatoriaus_busena();
                 ;
                 ;void mosfet_valdymas();
                 ;
                 ;
                 ;
                 ;char pasisveikinimas_baigtas;
                 ;
                 ;signed char x,y,z;
                 ;
                 ;unsigned int VIENA_SEKUNDE, PUSE_SEKUNDES, KETVIRTADALIS_SEKUNDES;
                 ;
                 ;char OSC;
                 ;
                 ;char a, segm_a, segm_b, segm_c, segm_d, segm_e, segm_f,
                 ;segm_g, segm_h;
                 ;
                 ;char MYGTUKAS_1, MYGTUKAS_2, MYGTUKAS_3, MYGTUKAS_4,
                 ;MYGTUKAS_5, MYGTUKAS_6, MYGTUKAS_7, mygtuko_OSR;
                 ;
                 ;char kondensatorius_tuscias, kondensatorius_vidutinis,
                 ;kondensatorius_pilnas, kondensatoriaus_rodymo_padetis;
                 ;unsigned int kondensatoriaus_rodymo_laikas;
                 ;
                 ;unsigned int pasisveikinimo_laikas1;
                 ;char pasisveikinimo_laikas2;
                 ;
                 ;char REDAGAVIMAS;
                 ;
                 ;char SKAICIUS_DEGA;
                 ;unsigned int blyksincio_skaiciaus_laiko_paskutinis_ciklas,
                 ;blyksincio_skaiciaus_laikas,
                 ;blyksincio_skaiciaus_laiko_vidurinysis_ciklas;
                 ;
                 ;unsigned int viena_laikrodzio_sekunde;
                 ;signed char laikrodzio_sekundes,
                 ;laikrodzio_minutes, laikrodzio_valandos;
                 ;
                 ;char begancio_uzraso_DABAR_padetis;
                 ;unsigned int begancio_uzraso_DABAR_laikas;
                 ;
                 ;char pfet_kairysis, pfet_desinysis,
                 ;nfet_kairysis, nfet_desinysis;
                 ;
                 ;
                 ;
                 ;void main(void){
                 ; 0000 0055 void main(void){
                 
                 	.CSEG
                 _main:
                 ; 0000 0056  // 0 in ; 1 out ;
                 ; 0000 0057 PORTA = 0;
000048 e0e0      	LDI  R30,LOW(0)
000049 bbeb      	OUT  0x1B,R30
                 ; 0000 0058 DDRA = 0b00011110;
00004a e1ee      	LDI  R30,LOW(30)
00004b bbea      	OUT  0x1A,R30
                 ; 0000 0059 
                 ; 0000 005A PORTB = 0;
00004c e0e0      	LDI  R30,LOW(0)
00004d bbe8      	OUT  0x18,R30
                 ; 0000 005B DDRB = 0b00011110;
00004e e1ee      	LDI  R30,LOW(30)
00004f bbe7      	OUT  0x17,R30
                 ; 0000 005C 
                 ; 0000 005D PORTC = 0;
000050 e0e0      	LDI  R30,LOW(0)
000051 bbe5      	OUT  0x15,R30
                 ; 0000 005E DDRC = 0b11111111;
000052 efef      	LDI  R30,LOW(255)
000053 bbe4      	OUT  0x14,R30
                 ; 0000 005F 
                 ; 0000 0060 PORTD = 0;
000054 e0e0      	LDI  R30,LOW(0)
000055 bbe2      	OUT  0x12,R30
                 ; 0000 0061 DDRD = 0b00011000;
000056 e1e8      	LDI  R30,LOW(24)
000057 bbe1      	OUT  0x11,R30
                 ; 0000 0062 
                 ; 0000 0063 // Timer/Counter 0 initialization
                 ; 0000 0064 // Clock source: System Clock
                 ; 0000 0065 // Clock value: Timer 0 Stopped
                 ; 0000 0066 // Mode: Normal top=FFh
                 ; 0000 0067 // OC0 output: Disconnected
                 ; 0000 0068 TCCR0=0x00;
000058 e0e0      	LDI  R30,LOW(0)
000059 bfe3      	OUT  0x33,R30
                 ; 0000 0069 TCNT0=0x00;
00005a bfe2      	OUT  0x32,R30
                 ; 0000 006A OCR0=0x00;
00005b bfec      	OUT  0x3C,R30
                 ; 0000 006B 
                 ; 0000 006C // Timer/Counter 1 initialization
                 ; 0000 006D // Clock source: System Clock
                 ; 0000 006E // Clock value: Timer1 Stopped
                 ; 0000 006F // Mode: Normal top=FFFFh
                 ; 0000 0070 // OC1A output: Discon.
                 ; 0000 0071 // OC1B output: Discon.
                 ; 0000 0072 // Noise Canceler: Off
                 ; 0000 0073 // Input Capture on Falling Edge
                 ; 0000 0074 // Timer1 Overflow Interrupt: Off
                 ; 0000 0075 // Input Capture Interrupt: Off
                 ; 0000 0076 // Compare A Match Interrupt: Off
                 ; 0000 0077 // Compare B Match Interrupt: Off
                 ; 0000 0078 TCCR1A=0x00;
00005c bdef      	OUT  0x2F,R30
                 ; 0000 0079 TCCR1B=0x00;
00005d bdee      	OUT  0x2E,R30
                 ; 0000 007A TCNT1H=0x00;
00005e bded      	OUT  0x2D,R30
                 ; 0000 007B TCNT1L=0x00;
00005f bdec      	OUT  0x2C,R30
                 ; 0000 007C ICR1H=0x00;
000060 bde7      	OUT  0x27,R30
                 ; 0000 007D ICR1L=0x00;
000061 bde6      	OUT  0x26,R30
                 ; 0000 007E OCR1AH=0x00;
000062 bdeb      	OUT  0x2B,R30
                 ; 0000 007F OCR1AL=0x00;
000063 bdea      	OUT  0x2A,R30
                 ; 0000 0080 OCR1BH=0x00;
000064 bde9      	OUT  0x29,R30
                 ; 0000 0081 OCR1BL=0x00;
000065 bde8      	OUT  0x28,R30
                 ; 0000 0082 
                 ; 0000 0083 // Timer/Counter 2 initialization
                 ; 0000 0084 // Clock source: System Clock
                 ; 0000 0085 // Clock value: Timer2 Stopped
                 ; 0000 0086 // Mode: Normal top=FFh
                 ; 0000 0087 // OC2 output: Disconnected
                 ; 0000 0088 ASSR=0x00;
000066 bde2      	OUT  0x22,R30
                 ; 0000 0089 TCCR2=0x00;
000067 bde5      	OUT  0x25,R30
                 ; 0000 008A TCNT2=0x00;
000068 bde4      	OUT  0x24,R30
                 ; 0000 008B OCR2=0x00;
000069 bde3      	OUT  0x23,R30
                 ; 0000 008C 
                 ; 0000 008D // External Interrupt(s) initialization
                 ; 0000 008E // INT0: Off
                 ; 0000 008F // INT1: Off
                 ; 0000 0090 // INT2: Off
                 ; 0000 0091 MCUCR=0x00;
00006a bfe5      	OUT  0x35,R30
                 ; 0000 0092 MCUCSR=0x00;
00006b bfe4      	OUT  0x34,R30
                 ; 0000 0093 
                 ; 0000 0094 // Timer(s)/Counter(s) Interrupt(s) initialization
                 ; 0000 0095 TIMSK=0x00;
00006c bfe9      	OUT  0x39,R30
                 ; 0000 0096 
                 ; 0000 0097 // Analog Comparator initialization
                 ; 0000 0098 // Analog Comparator: Off
                 ; 0000 0099 // Analog Comparator Input Capture by Timer/Counter 1: Off
                 ; 0000 009A ACSR=0x80;
00006d e8e0      	LDI  R30,LOW(128)
00006e b9e8      	OUT  0x8,R30
                 ; 0000 009B SFIOR=0x00;
00006f e0e0      	LDI  R30,LOW(0)
000070 bfe0      	OUT  0x30,R30
                 ; 0000 009C 
                 ; 0000 009D VIENA_SEKUNDE = 11400;
000071 e8e8      	LDI  R30,LOW(11400)
000072 e2fc      	LDI  R31,HIGH(11400)
000073 014f      	MOVW R8,R30
                 ; 0000 009E sekundes_ir_jos_daliu_trukme_ciklais();
000074 d0d6      	RCALL _sekundes_ir_jos_daliu_trukme_ciklais
                 ; 0000 009F 
                 ; 0000 00A0 
                 ; 0000 00A1 
                 ; 0000 00A2 while(pasisveikinimas_baigtas==0){
                 _0x3:
000075 2055      	TST  R5
000076 f429      	BRNE _0x5
                 ; 0000 00A3 oscilatorius();
000077 d0c6      	RCALL _oscilatorius
                 ; 0000 00A4 pasisveikinimas();
000078 d0db      	RCALL _pasisveikinimas
                 ; 0000 00A5 fontai();
000079 d2bf      	RCALL _fontai
                 ; 0000 00A6 outputai();}
00007a d511      	RCALL _outputai
00007b cff9      	RJMP _0x3
                 _0x5:
                 ; 0000 00A7 
                 ; 0000 00A8 while (1){
                 _0x6:
                 ; 0000 00A9 oscilatorius();
00007c d0c1      	RCALL _oscilatorius
                 ; 0000 00AA mosfet_valdymas();
00007d 940e 159d 	CALL _mosfet_valdymas
                 ; 0000 00AB inputai();
00007f d009      	RCALL _inputai
                 ; 0000 00AC sekundes_ir_jos_daliu_trukme_ciklais();
000080 d0ca      	RCALL _sekundes_ir_jos_daliu_trukme_ciklais
                 ; 0000 00AD padeciu_medis();
000081 d429      	RCALL _padeciu_medis
                 ; 0000 00AE dabartinio_laiko_skaiciavimas();
000082 940e 1553 	CALL _dabartinio_laiko_skaiciavimas
                 ; 0000 00AF blyksintis_skaicius();
000084 d47e      	RCALL _blyksintis_skaicius
                 ; 0000 00B0 fontai();
000085 d2b3      	RCALL _fontai
                 ; 0000 00B1 outputai();}}
000086 d505      	RCALL _outputai
000087 cff4      	RJMP _0x6
                 _0x9:
000088 cfff      	RJMP _0x9
                 ;
                 ;
                 ;
                 ;void inputai(){
                 ; 0000 00B5 void inputai(){
                 _inputai:
                 ; 0000 00B6 
                 ; 0000 00B7 //MYGTUKAI
                 ; 0000 00B8 MYGTUKAS_1 = 0;
000089 940e 15ec 	CALL SUBOPT_0x0
                 ; 0000 00B9 MYGTUKAS_2 = 0;
                 ; 0000 00BA MYGTUKAS_3 = 0;
00008b 93e0 016c 	STS  _MYGTUKAS_3,R30
                 ; 0000 00BB MYGTUKAS_4 = 0;
00008d e0e0      	LDI  R30,LOW(0)
00008e 93e0 016d 	STS  _MYGTUKAS_4,R30
                 ; 0000 00BC MYGTUKAS_5 = 0;
000090 93e0 016e 	STS  _MYGTUKAS_5,R30
                 ; 0000 00BD MYGTUKAS_6 = 0;
000092 93e0 016f 	STS  _MYGTUKAS_6,R30
                 ; 0000 00BE MYGTUKAS_7 = 0;
000094 93e0 0170 	STS  _MYGTUKAS_7,R30
                 ; 0000 00BF 
                 ; 0000 00C0 if((PIND.6==1)&&(PIND.5==1)&&(PIND.7==0)&&
                 ; 0000 00C1 (mygtuko_OSR==0)){
000096 9b86      	SBIS 0x10,6
000097 c009      	RJMP _0xB
000098 9b85      	SBIS 0x10,5
000099 c007      	RJMP _0xB
00009a 940e 15f2 	CALL SUBOPT_0x1
00009c f421      	BRNE _0xB
00009d 91a0 0171 	LDS  R26,_mygtuko_OSR
00009f 30a0      	CPI  R26,LOW(0x0)
0000a0 f009      	BREQ _0xC
                 _0xB:
0000a1 c004      	RJMP _0xA
                 _0xC:
                 ; 0000 00C2 mygtuko_OSR = 1;
0000a2 940e 15f7 	CALL SUBOPT_0x2
                 ; 0000 00C3 MYGTUKAS_1 = 1;}
0000a4 93e0 016a 	STS  _MYGTUKAS_1,R30
                 ; 0000 00C4 
                 ; 0000 00C5 if((PIND.6==1)&&(PIND.5==0)&&(PIND.7==1)&&
                 _0xA:
                 ; 0000 00C6 (mygtuko_OSR==0)){
0000a6 9b86      	SBIS 0x10,6
0000a7 c009      	RJMP _0xE
0000a8 940e 15fb 	CALL SUBOPT_0x3
0000aa f431      	BRNE _0xE
0000ab 9b87      	SBIS 0x10,7
0000ac c004      	RJMP _0xE
0000ad 91a0 0171 	LDS  R26,_mygtuko_OSR
0000af 30a0      	CPI  R26,LOW(0x0)
0000b0 f009      	BREQ _0xF
                 _0xE:
0000b1 c004      	RJMP _0xD
                 _0xF:
                 ; 0000 00C7 mygtuko_OSR = 1;
0000b2 940e 15f7 	CALL SUBOPT_0x2
                 ; 0000 00C8 MYGTUKAS_2 = 1;}
0000b4 93e0 016b 	STS  _MYGTUKAS_2,R30
                 ; 0000 00C9 
                 ; 0000 00CA if((PIND.6==1)&&(PIND.5==0)&&(PIND.7==0)&&
                 _0xD:
                 ; 0000 00CB (mygtuko_OSR==0)){
0000b6 9b86      	SBIS 0x10,6
0000b7 c00a      	RJMP _0x11
0000b8 940e 15fb 	CALL SUBOPT_0x3
0000ba f439      	BRNE _0x11
0000bb 940e 15f2 	CALL SUBOPT_0x1
0000bd f421      	BRNE _0x11
0000be 91a0 0171 	LDS  R26,_mygtuko_OSR
0000c0 30a0      	CPI  R26,LOW(0x0)
0000c1 f009      	BREQ _0x12
                 _0x11:
0000c2 c004      	RJMP _0x10
                 _0x12:
                 ; 0000 00CC mygtuko_OSR = 1;
0000c3 940e 15f7 	CALL SUBOPT_0x2
                 ; 0000 00CD MYGTUKAS_3 = 1;}
0000c5 93e0 016c 	STS  _MYGTUKAS_3,R30
                 ; 0000 00CE 
                 ; 0000 00CF if((PIND.6==0)&&(PIND.5==0)&&(PIND.7==1)&&
                 _0x10:
                 ; 0000 00D0 (mygtuko_OSR==0)){
0000c7 940e 1600 	CALL SUBOPT_0x4
0000c9 f449      	BRNE _0x14
0000ca 940e 15fb 	CALL SUBOPT_0x3
0000cc f431      	BRNE _0x14
0000cd 9b87      	SBIS 0x10,7
0000ce c004      	RJMP _0x14
0000cf 91a0 0171 	LDS  R26,_mygtuko_OSR
0000d1 30a0      	CPI  R26,LOW(0x0)
0000d2 f009      	BREQ _0x15
                 _0x14:
0000d3 c004      	RJMP _0x13
                 _0x15:
                 ; 0000 00D1 mygtuko_OSR = 1;
0000d4 940e 15f7 	CALL SUBOPT_0x2
                 ; 0000 00D2 MYGTUKAS_4 = 1;}
0000d6 93e0 016d 	STS  _MYGTUKAS_4,R30
                 ; 0000 00D3 
                 ; 0000 00D4 if((PIND.6==0)&&(PIND.5==0)&&(PIND.7==0)&&
                 _0x13:
                 ; 0000 00D5 (mygtuko_OSR==0)){
0000d8 940e 1600 	CALL SUBOPT_0x4
0000da f451      	BRNE _0x17
0000db 940e 15fb 	CALL SUBOPT_0x3
0000dd f439      	BRNE _0x17
0000de 940e 15f2 	CALL SUBOPT_0x1
0000e0 f421      	BRNE _0x17
0000e1 91a0 0171 	LDS  R26,_mygtuko_OSR
0000e3 30a0      	CPI  R26,LOW(0x0)
0000e4 f009      	BREQ _0x18
                 _0x17:
0000e5 c004      	RJMP _0x16
                 _0x18:
                 ; 0000 00D6 mygtuko_OSR = 1;
0000e6 940e 15f7 	CALL SUBOPT_0x2
                 ; 0000 00D7 MYGTUKAS_5 = 1;}
0000e8 93e0 016e 	STS  _MYGTUKAS_5,R30
                 ; 0000 00D8 
                 ; 0000 00D9 if((PIND.6==0)&&(PIND.5==1)&&(PIND.7==0)&&
                 _0x16:
                 ; 0000 00DA (mygtuko_OSR==0)){
0000ea 940e 1600 	CALL SUBOPT_0x4
0000ec f449      	BRNE _0x1A
0000ed 9b85      	SBIS 0x10,5
0000ee c007      	RJMP _0x1A
0000ef 940e 15f2 	CALL SUBOPT_0x1
0000f1 f421      	BRNE _0x1A
0000f2 91a0 0171 	LDS  R26,_mygtuko_OSR
0000f4 30a0      	CPI  R26,LOW(0x0)
0000f5 f009      	BREQ _0x1B
                 _0x1A:
0000f6 c004      	RJMP _0x19
                 _0x1B:
                 ; 0000 00DB mygtuko_OSR = 1;
0000f7 940e 15f7 	CALL SUBOPT_0x2
                 ; 0000 00DC MYGTUKAS_6 = 1;}
0000f9 93e0 016f 	STS  _MYGTUKAS_6,R30
                 ; 0000 00DD 
                 ; 0000 00DE if((PIND.6==0)&&(PIND.5==1)&&(PIND.7==1)&&
                 _0x19:
                 ; 0000 00DF (mygtuko_OSR==0)){
0000fb 940e 1600 	CALL SUBOPT_0x4
0000fd f441      	BRNE _0x1D
0000fe 9b85      	SBIS 0x10,5
0000ff c006      	RJMP _0x1D
000100 9b87      	SBIS 0x10,7
000101 c004      	RJMP _0x1D
000102 91a0 0171 	LDS  R26,_mygtuko_OSR
000104 30a0      	CPI  R26,LOW(0x0)
000105 f009      	BREQ _0x1E
                 _0x1D:
000106 c004      	RJMP _0x1C
                 _0x1E:
                 ; 0000 00E0 mygtuko_OSR = 1;
000107 940e 15f7 	CALL SUBOPT_0x2
                 ; 0000 00E1 MYGTUKAS_7 = 1;}
000109 93e0 0170 	STS  _MYGTUKAS_7,R30
                 ; 0000 00E2 
                 ; 0000 00E3 
                 ; 0000 00E4 if((PIND.6==1)&&(PIND.5==1)&&(PIND.7==1)){
                 _0x1C:
00010b 9b86      	SBIS 0x10,6
00010c c004      	RJMP _0x20
00010d 9b85      	SBIS 0x10,5
00010e c002      	RJMP _0x20
00010f 9987      	SBIC 0x10,7
000110 c001      	RJMP _0x21
                 _0x20:
000111 c003      	RJMP _0x1F
                 _0x21:
                 ; 0000 00E5 mygtuko_OSR = 0;}
000112 e0e0      	LDI  R30,LOW(0)
000113 93e0 0171 	STS  _mygtuko_OSR,R30
                 ; 0000 00E6 
                 ; 0000 00E7 
                 ; 0000 00E8 //ITAMPOS
                 ; 0000 00E9 kondensatorius_tuscias = 0;
                 _0x1F:
000115 e0e0      	LDI  R30,LOW(0)
000116 93e0 0172 	STS  _kondensatorius_tuscias,R30
                 ; 0000 00EA kondensatorius_vidutinis = 0;
000118 93e0 0173 	STS  _kondensatorius_vidutinis,R30
                 ; 0000 00EB kondensatorius_pilnas = 0;
00011a 93e0 0174 	STS  _kondensatorius_pilnas,R30
                 ; 0000 00EC 
                 ; 0000 00ED if((PIND.3==0)&&(PIND.4==0)){
00011c e0a0      	LDI  R26,0
00011d 9983      	SBIC 0x10,3
00011e e0a1      	LDI  R26,1
00011f 30a0      	CPI  R26,LOW(0x0)
000120 f429      	BRNE _0x23
000121 e0a0      	LDI  R26,0
000122 9984      	SBIC 0x10,4
000123 e0a1      	LDI  R26,1
000124 30a0      	CPI  R26,LOW(0x0)
000125 f009      	BREQ _0x24
                 _0x23:
000126 c003      	RJMP _0x22
                 _0x24:
                 ; 0000 00EE kondensatorius_tuscias = 1;}
000127 e0e1      	LDI  R30,LOW(1)
000128 93e0 0172 	STS  _kondensatorius_tuscias,R30
                 ; 0000 00EF if((PIND.3==1)&&(PIND.4==0)){
                 _0x22:
00012a 9b83      	SBIS 0x10,3
00012b c005      	RJMP _0x26
00012c e0a0      	LDI  R26,0
00012d 9984      	SBIC 0x10,4
00012e e0a1      	LDI  R26,1
00012f 30a0      	CPI  R26,LOW(0x0)
000130 f009      	BREQ _0x27
                 _0x26:
000131 c003      	RJMP _0x25
                 _0x27:
                 ; 0000 00F0 kondensatorius_vidutinis = 1;}
000132 e0e1      	LDI  R30,LOW(1)
000133 93e0 0173 	STS  _kondensatorius_vidutinis,R30
                 ; 0000 00F1 if((PIND.3==1)&&(PIND.4==1)){
                 _0x25:
000135 9b83      	SBIS 0x10,3
000136 c002      	RJMP _0x29
000137 9984      	SBIC 0x10,4
000138 c001      	RJMP _0x2A
                 _0x29:
000139 c003      	RJMP _0x28
                 _0x2A:
                 ; 0000 00F2 kondensatorius_pilnas = 1;}}
00013a e0e1      	LDI  R30,LOW(1)
00013b 93e0 0174 	STS  _kondensatorius_pilnas,R30
                 _0x28:
00013d 9508      	RET
                 ;
                 ;
                 ;
                 ;void oscilatorius(){
                 ; 0000 00F6 void oscilatorius(){
                 _oscilatorius:
                 ; 0000 00F7 OSC = OSC + 1;
00013e 91e0 0160 	LDS  R30,_OSC
000140 5fef      	SUBI R30,-LOW(1)
000141 93e0 0160 	STS  _OSC,R30
                 ; 0000 00F8     if(OSC>=31){
000143 91a0 0160 	LDS  R26,_OSC
000145 31af      	CPI  R26,LOW(0x1F)
000146 f018      	BRLO _0x2B
                 ; 0000 00F9     OSC = 0;
000147 e0e0      	LDI  R30,LOW(0)
000148 93e0 0160 	STS  _OSC,R30
                 ; 0000 00FA     }
                 ; 0000 00FB }
                 _0x2B:
00014a 9508      	RET
                 ;
                 ;
                 ;// +
                 ;void sekundes_ir_jos_daliu_trukme_ciklais(){
                 ; 0000 00FF void sekundes_ir_jos_daliu_trukme_ciklais(){
                 _sekundes_ir_jos_daliu_trukme_ciklais:
                 ; 0000 0100 PUSE_SEKUNDES = VIENA_SEKUNDE / 2;
00014b 01f4      	MOVW R30,R8
00014c 95f6      	LSR  R31
00014d 95e7      	ROR  R30
00014e 015f      	MOVW R10,R30
                 ; 0000 0101 KETVIRTADALIS_SEKUNDES = VIENA_SEKUNDE / 4;}
00014f 01f4      	MOVW R30,R8
000150 940e 16e2 	CALL __LSRW2
000152 016f      	MOVW R12,R30
000153 9508      	RET
                 ;
                 ;
                 ;// +
                 ;void pasisveikinimas(){
                 ; 0000 0105 void pasisveikinimas(){
                 _pasisveikinimas:
                 ; 0000 0106 pasisveikinimo_laikas1 = pasisveikinimo_laikas1 + 1;
000154 91e0 0178 	LDS  R30,_pasisveikinimo_laikas1
000156 91f0 0179 	LDS  R31,_pasisveikinimo_laikas1+1
000158 9631      	ADIW R30,1
000159 93e0 0178 	STS  _pasisveikinimo_laikas1,R30
00015b 93f0 0179 	STS  _pasisveikinimo_laikas1+1,R31
                 ; 0000 0107 if(pasisveikinimo_laikas1>=VIENA_SEKUNDE){
00015d 91a0 0178 	LDS  R26,_pasisveikinimo_laikas1
00015f 91b0 0179 	LDS  R27,_pasisveikinimo_laikas1+1
000161 15a8      	CP   R26,R8
000162 05b9      	CPC  R27,R9
000163 f050      	BRLO _0x2C
                 ; 0000 0108 pasisveikinimo_laikas2 = pasisveikinimo_laikas2 + 1;
000164 91e0 017a 	LDS  R30,_pasisveikinimo_laikas2
000166 5fef      	SUBI R30,-LOW(1)
000167 93e0 017a 	STS  _pasisveikinimo_laikas2,R30
                 ; 0000 0109 pasisveikinimo_laikas1 = 0;}
000169 e0e0      	LDI  R30,LOW(0)
00016a 93e0 0178 	STS  _pasisveikinimo_laikas1,R30
00016c 93e0 0179 	STS  _pasisveikinimo_laikas1+1,R30
                 ; 0000 010A 
                 ; 0000 010B if(pasisveikinimo_laikas2==1){
                 _0x2C:
00016e 91a0 017a 	LDS  R26,_pasisveikinimo_laikas2
000170 30a1      	CPI  R26,LOW(0x1)
000171 f439      	BRNE _0x2D
                 ; 0000 010C if(OSC==28){
000172 91a0 0160 	LDS  R26,_OSC
000174 31ac      	CPI  R26,LOW(0x1C)
000175 f419      	BRNE _0x2E
                 ; 0000 010D a = 17;}}
000176 e1e1      	LDI  R30,LOW(17)
000177 93e0 0161 	STS  _a,R30
                 _0x2E:
                 ; 0000 010E if(pasisveikinimo_laikas2==2){
                 _0x2D:
000179 91a0 017a 	LDS  R26,_pasisveikinimo_laikas2
00017b 30a2      	CPI  R26,LOW(0x2)
00017c f471      	BRNE _0x2F
                 ; 0000 010F if(OSC==24){
00017d 91a0 0160 	LDS  R26,_OSC
00017f 31a8      	CPI  R26,LOW(0x18)
000180 f419      	BRNE _0x30
                 ; 0000 0110 a = 17;}
000181 e1e1      	LDI  R30,LOW(17)
000182 93e0 0161 	STS  _a,R30
                 ; 0000 0111 if(OSC==28){
                 _0x30:
000184 91a0 0160 	LDS  R26,_OSC
000186 31ac      	CPI  R26,LOW(0x1C)
000187 f419      	BRNE _0x31
                 ; 0000 0112 a = 15;}}
000188 e0ef      	LDI  R30,LOW(15)
000189 93e0 0161 	STS  _a,R30
                 _0x31:
                 ; 0000 0113 if(pasisveikinimo_laikas2==3){
                 _0x2F:
00018b 91a0 017a 	LDS  R26,_pasisveikinimo_laikas2
00018d 30a3      	CPI  R26,LOW(0x3)
00018e f4a9      	BRNE _0x32
                 ; 0000 0114 if(OSC==20){
00018f 91a0 0160 	LDS  R26,_OSC
000191 31a4      	CPI  R26,LOW(0x14)
000192 f419      	BRNE _0x33
                 ; 0000 0115 a = 17;}
000193 e1e1      	LDI  R30,LOW(17)
000194 93e0 0161 	STS  _a,R30
                 ; 0000 0116 if(OSC==24){
                 _0x33:
000196 91a0 0160 	LDS  R26,_OSC
000198 31a8      	CPI  R26,LOW(0x18)
000199 f419      	BRNE _0x34
                 ; 0000 0117 a = 15;}
00019a e0ef      	LDI  R30,LOW(15)
00019b 93e0 0161 	STS  _a,R30
                 ; 0000 0118 if(OSC==28){
                 _0x34:
00019d 91a0 0160 	LDS  R26,_OSC
00019f 31ac      	CPI  R26,LOW(0x1C)
0001a0 f419      	BRNE _0x35
                 ; 0000 0119 a = 22;}}
0001a1 e1e6      	LDI  R30,LOW(22)
0001a2 93e0 0161 	STS  _a,R30
                 _0x35:
                 ; 0000 011A if(pasisveikinimo_laikas2==4){
                 _0x32:
0001a4 91a0 017a 	LDS  R26,_pasisveikinimo_laikas2
0001a6 30a4      	CPI  R26,LOW(0x4)
0001a7 f4e1      	BRNE _0x36
                 ; 0000 011B if(OSC==16){
0001a8 91a0 0160 	LDS  R26,_OSC
0001aa 31a0      	CPI  R26,LOW(0x10)
0001ab f419      	BRNE _0x37
                 ; 0000 011C a = 17;}
0001ac e1e1      	LDI  R30,LOW(17)
0001ad 93e0 0161 	STS  _a,R30
                 ; 0000 011D if(OSC==20){
                 _0x37:
0001af 91a0 0160 	LDS  R26,_OSC
0001b1 31a4      	CPI  R26,LOW(0x14)
0001b2 f419      	BRNE _0x38
                 ; 0000 011E a = 15;}
0001b3 e0ef      	LDI  R30,LOW(15)
0001b4 93e0 0161 	STS  _a,R30
                 ; 0000 011F if(OSC==24){
                 _0x38:
0001b6 91a0 0160 	LDS  R26,_OSC
0001b8 31a8      	CPI  R26,LOW(0x18)
0001b9 f419      	BRNE _0x39
                 ; 0000 0120 a = 22;}
0001ba e1e6      	LDI  R30,LOW(22)
0001bb 93e0 0161 	STS  _a,R30
                 ; 0000 0121 if(OSC==28){
                 _0x39:
0001bd 91a0 0160 	LDS  R26,_OSC
0001bf 31ac      	CPI  R26,LOW(0x1C)
0001c0 f419      	BRNE _0x3A
                 ; 0000 0122 a = 22;}}
0001c1 e1e6      	LDI  R30,LOW(22)
0001c2 93e0 0161 	STS  _a,R30
                 _0x3A:
                 ; 0000 0123 if(pasisveikinimo_laikas2==5){
                 _0x36:
0001c4 91a0 017a 	LDS  R26,_pasisveikinimo_laikas2
0001c6 30a5      	CPI  R26,LOW(0x5)
0001c7 f519      	BRNE _0x3B
                 ; 0000 0124 if(OSC==12){
0001c8 91a0 0160 	LDS  R26,_OSC
0001ca 30ac      	CPI  R26,LOW(0xC)
0001cb f419      	BRNE _0x3C
                 ; 0000 0125 a = 17;}
0001cc e1e1      	LDI  R30,LOW(17)
0001cd 93e0 0161 	STS  _a,R30
                 ; 0000 0126 if(OSC==16){
                 _0x3C:
0001cf 91a0 0160 	LDS  R26,_OSC
0001d1 31a0      	CPI  R26,LOW(0x10)
0001d2 f419      	BRNE _0x3D
                 ; 0000 0127 a = 15;}
0001d3 e0ef      	LDI  R30,LOW(15)
0001d4 93e0 0161 	STS  _a,R30
                 ; 0000 0128 if(OSC==20){
                 _0x3D:
0001d6 91a0 0160 	LDS  R26,_OSC
0001d8 31a4      	CPI  R26,LOW(0x14)
0001d9 f419      	BRNE _0x3E
                 ; 0000 0129 a = 22;}
0001da e1e6      	LDI  R30,LOW(22)
0001db 93e0 0161 	STS  _a,R30
                 ; 0000 012A if(OSC==24){
                 _0x3E:
0001dd 91a0 0160 	LDS  R26,_OSC
0001df 31a8      	CPI  R26,LOW(0x18)
0001e0 f419      	BRNE _0x3F
                 ; 0000 012B a = 22;}
0001e1 e1e6      	LDI  R30,LOW(22)
0001e2 93e0 0161 	STS  _a,R30
                 ; 0000 012C if(OSC==28){
                 _0x3F:
0001e4 91a0 0160 	LDS  R26,_OSC
0001e6 31ac      	CPI  R26,LOW(0x1C)
0001e7 f419      	BRNE _0x40
                 ; 0000 012D a = 0;}}
0001e8 e0e0      	LDI  R30,LOW(0)
0001e9 93e0 0161 	STS  _a,R30
                 _0x40:
                 ; 0000 012E if(pasisveikinimo_laikas2==6){
                 _0x3B:
0001eb 91a0 017a 	LDS  R26,_pasisveikinimo_laikas2
0001ed 30a6      	CPI  R26,LOW(0x6)
0001ee f519      	BRNE _0x41
                 ; 0000 012F if(OSC==8){
0001ef 91a0 0160 	LDS  R26,_OSC
0001f1 30a8      	CPI  R26,LOW(0x8)
0001f2 f419      	BRNE _0x42
                 ; 0000 0130 a = 17;}
0001f3 e1e1      	LDI  R30,LOW(17)
0001f4 93e0 0161 	STS  _a,R30
                 ; 0000 0131 if(OSC==12){
                 _0x42:
0001f6 91a0 0160 	LDS  R26,_OSC
0001f8 30ac      	CPI  R26,LOW(0xC)
0001f9 f419      	BRNE _0x43
                 ; 0000 0132 a = 15;}
0001fa e0ef      	LDI  R30,LOW(15)
0001fb 93e0 0161 	STS  _a,R30
                 ; 0000 0133 if(OSC==16){
                 _0x43:
0001fd 91a0 0160 	LDS  R26,_OSC
0001ff 31a0      	CPI  R26,LOW(0x10)
000200 f419      	BRNE _0x44
                 ; 0000 0134 a = 22;}
000201 e1e6      	LDI  R30,LOW(22)
000202 93e0 0161 	STS  _a,R30
                 ; 0000 0135 if(OSC==20){
                 _0x44:
000204 91a0 0160 	LDS  R26,_OSC
000206 31a4      	CPI  R26,LOW(0x14)
000207 f419      	BRNE _0x45
                 ; 0000 0136 a = 22;}
000208 e1e6      	LDI  R30,LOW(22)
000209 93e0 0161 	STS  _a,R30
                 ; 0000 0137 if(OSC==24){
                 _0x45:
00020b 91a0 0160 	LDS  R26,_OSC
00020d 31a8      	CPI  R26,LOW(0x18)
00020e f419      	BRNE _0x46
                 ; 0000 0138 a = 0;}}
00020f e0e0      	LDI  R30,LOW(0)
000210 93e0 0161 	STS  _a,R30
                 _0x46:
                 ; 0000 0139 if(pasisveikinimo_laikas2==7){
                 _0x41:
000212 91a0 017a 	LDS  R26,_pasisveikinimo_laikas2
000214 30a7      	CPI  R26,LOW(0x7)
000215 f519      	BRNE _0x47
                 ; 0000 013A if(OSC==4){
000216 91a0 0160 	LDS  R26,_OSC
000218 30a4      	CPI  R26,LOW(0x4)
000219 f419      	BRNE _0x48
                 ; 0000 013B a = 17;}
00021a e1e1      	LDI  R30,LOW(17)
00021b 93e0 0161 	STS  _a,R30
                 ; 0000 013C if(OSC==8){
                 _0x48:
00021d 91a0 0160 	LDS  R26,_OSC
00021f 30a8      	CPI  R26,LOW(0x8)
000220 f419      	BRNE _0x49
                 ; 0000 013D a = 15;}
000221 e0ef      	LDI  R30,LOW(15)
000222 93e0 0161 	STS  _a,R30
                 ; 0000 013E if(OSC==12){
                 _0x49:
000224 91a0 0160 	LDS  R26,_OSC
000226 30ac      	CPI  R26,LOW(0xC)
000227 f419      	BRNE _0x4A
                 ; 0000 013F a = 22;}
000228 e1e6      	LDI  R30,LOW(22)
000229 93e0 0161 	STS  _a,R30
                 ; 0000 0140 if(OSC==16){
                 _0x4A:
00022b 91a0 0160 	LDS  R26,_OSC
00022d 31a0      	CPI  R26,LOW(0x10)
00022e f419      	BRNE _0x4B
                 ; 0000 0141 a = 22;}
00022f e1e6      	LDI  R30,LOW(22)
000230 93e0 0161 	STS  _a,R30
                 ; 0000 0142 if(OSC==20){
                 _0x4B:
000232 91a0 0160 	LDS  R26,_OSC
000234 31a4      	CPI  R26,LOW(0x14)
000235 f419      	BRNE _0x4C
                 ; 0000 0143 a = 0;}}
000236 e0e0      	LDI  R30,LOW(0)
000237 93e0 0161 	STS  _a,R30
                 _0x4C:
                 ; 0000 0144 if(pasisveikinimo_laikas2==8){
                 _0x47:
000239 91a0 017a 	LDS  R26,_pasisveikinimo_laikas2
00023b 30a8      	CPI  R26,LOW(0x8)
00023c f519      	BRNE _0x4D
                 ; 0000 0145 if(OSC==0){
00023d 91e0 0160 	LDS  R30,_OSC
00023f 30e0      	CPI  R30,0
000240 f419      	BRNE _0x4E
                 ; 0000 0146 a = 17;}
000241 e1e1      	LDI  R30,LOW(17)
000242 93e0 0161 	STS  _a,R30
                 ; 0000 0147 if(OSC==4){
                 _0x4E:
000244 91a0 0160 	LDS  R26,_OSC
000246 30a4      	CPI  R26,LOW(0x4)
000247 f419      	BRNE _0x4F
                 ; 0000 0148 a = 15;}
000248 e0ef      	LDI  R30,LOW(15)
000249 93e0 0161 	STS  _a,R30
                 ; 0000 0149 if(OSC==8){
                 _0x4F:
00024b 91a0 0160 	LDS  R26,_OSC
00024d 30a8      	CPI  R26,LOW(0x8)
00024e f419      	BRNE _0x50
                 ; 0000 014A a = 22;}
00024f e1e6      	LDI  R30,LOW(22)
000250 93e0 0161 	STS  _a,R30
                 ; 0000 014B if(OSC==12){
                 _0x50:
000252 91a0 0160 	LDS  R26,_OSC
000254 30ac      	CPI  R26,LOW(0xC)
000255 f419      	BRNE _0x51
                 ; 0000 014C a = 22;}
000256 e1e6      	LDI  R30,LOW(22)
000257 93e0 0161 	STS  _a,R30
                 ; 0000 014D if(OSC==16){
                 _0x51:
000259 91a0 0160 	LDS  R26,_OSC
00025b 31a0      	CPI  R26,LOW(0x10)
00025c f419      	BRNE _0x52
                 ; 0000 014E a = 0;}}
00025d e0e0      	LDI  R30,LOW(0)
00025e 93e0 0161 	STS  _a,R30
                 _0x52:
                 ; 0000 014F if(pasisveikinimo_laikas2==10){
                 _0x4D:
000260 91a0 017a 	LDS  R26,_pasisveikinimo_laikas2
000262 30aa      	CPI  R26,LOW(0xA)
000263 f519      	BRNE _0x53
                 ; 0000 0150 if(OSC==0){
000264 91e0 0160 	LDS  R30,_OSC
000266 30e0      	CPI  R30,0
000267 f419      	BRNE _0x54
                 ; 0000 0151 a = 17;}
000268 e1e1      	LDI  R30,LOW(17)
000269 93e0 0161 	STS  _a,R30
                 ; 0000 0152 if(OSC==4){
                 _0x54:
00026b 91a0 0160 	LDS  R26,_OSC
00026d 30a4      	CPI  R26,LOW(0x4)
00026e f419      	BRNE _0x55
                 ; 0000 0153 a = 15;}
00026f e0ef      	LDI  R30,LOW(15)
000270 93e0 0161 	STS  _a,R30
                 ; 0000 0154 if(OSC==8){
                 _0x55:
000272 91a0 0160 	LDS  R26,_OSC
000274 30a8      	CPI  R26,LOW(0x8)
000275 f419      	BRNE _0x56
                 ; 0000 0155 a = 22;}
000276 e1e6      	LDI  R30,LOW(22)
000277 93e0 0161 	STS  _a,R30
                 ; 0000 0156 if(OSC==12){
                 _0x56:
000279 91a0 0160 	LDS  R26,_OSC
00027b 30ac      	CPI  R26,LOW(0xC)
00027c f419      	BRNE _0x57
                 ; 0000 0157 a = 22;}
00027d e1e6      	LDI  R30,LOW(22)
00027e 93e0 0161 	STS  _a,R30
                 ; 0000 0158 if(OSC==16){
                 _0x57:
000280 91a0 0160 	LDS  R26,_OSC
000282 31a0      	CPI  R26,LOW(0x10)
000283 f419      	BRNE _0x58
                 ; 0000 0159 a = 0;}}
000284 e0e0      	LDI  R30,LOW(0)
000285 93e0 0161 	STS  _a,R30
                 _0x58:
                 ; 0000 015A if(pasisveikinimo_laikas2==12){
                 _0x53:
000287 91a0 017a 	LDS  R26,_pasisveikinimo_laikas2
000289 30ac      	CPI  R26,LOW(0xC)
00028a f519      	BRNE _0x59
                 ; 0000 015B if(OSC==0){
00028b 91e0 0160 	LDS  R30,_OSC
00028d 30e0      	CPI  R30,0
00028e f419      	BRNE _0x5A
                 ; 0000 015C a = 17;}
00028f e1e1      	LDI  R30,LOW(17)
000290 93e0 0161 	STS  _a,R30
                 ; 0000 015D if(OSC==4){
                 _0x5A:
000292 91a0 0160 	LDS  R26,_OSC
000294 30a4      	CPI  R26,LOW(0x4)
000295 f419      	BRNE _0x5B
                 ; 0000 015E a = 15;}
000296 e0ef      	LDI  R30,LOW(15)
000297 93e0 0161 	STS  _a,R30
                 ; 0000 015F if(OSC==8){
                 _0x5B:
000299 91a0 0160 	LDS  R26,_OSC
00029b 30a8      	CPI  R26,LOW(0x8)
00029c f419      	BRNE _0x5C
                 ; 0000 0160 a = 22;}
00029d e1e6      	LDI  R30,LOW(22)
00029e 93e0 0161 	STS  _a,R30
                 ; 0000 0161 if(OSC==12){
                 _0x5C:
0002a0 91a0 0160 	LDS  R26,_OSC
0002a2 30ac      	CPI  R26,LOW(0xC)
0002a3 f419      	BRNE _0x5D
                 ; 0000 0162 a = 22;}
0002a4 e1e6      	LDI  R30,LOW(22)
0002a5 93e0 0161 	STS  _a,R30
                 ; 0000 0163 if(OSC==16){
                 _0x5D:
0002a7 91a0 0160 	LDS  R26,_OSC
0002a9 31a0      	CPI  R26,LOW(0x10)
0002aa f419      	BRNE _0x5E
                 ; 0000 0164 a = 0;}}
0002ab e0e0      	LDI  R30,LOW(0)
0002ac 93e0 0161 	STS  _a,R30
                 _0x5E:
                 ; 0000 0165 if(pasisveikinimo_laikas2==14){
                 _0x59:
0002ae 91a0 017a 	LDS  R26,_pasisveikinimo_laikas2
0002b0 30ae      	CPI  R26,LOW(0xE)
0002b1 f519      	BRNE _0x5F
                 ; 0000 0166 if(OSC==0){
0002b2 91e0 0160 	LDS  R30,_OSC
0002b4 30e0      	CPI  R30,0
0002b5 f419      	BRNE _0x60
                 ; 0000 0167 a = 17;}
0002b6 e1e1      	LDI  R30,LOW(17)
0002b7 93e0 0161 	STS  _a,R30
                 ; 0000 0168 if(OSC==4){
                 _0x60:
0002b9 91a0 0160 	LDS  R26,_OSC
0002bb 30a4      	CPI  R26,LOW(0x4)
0002bc f419      	BRNE _0x61
                 ; 0000 0169 a = 15;}
0002bd e0ef      	LDI  R30,LOW(15)
0002be 93e0 0161 	STS  _a,R30
                 ; 0000 016A if(OSC==8){
                 _0x61:
0002c0 91a0 0160 	LDS  R26,_OSC
0002c2 30a8      	CPI  R26,LOW(0x8)
0002c3 f419      	BRNE _0x62
                 ; 0000 016B a = 22;}
0002c4 e1e6      	LDI  R30,LOW(22)
0002c5 93e0 0161 	STS  _a,R30
                 ; 0000 016C if(OSC==12){
                 _0x62:
0002c7 91a0 0160 	LDS  R26,_OSC
0002c9 30ac      	CPI  R26,LOW(0xC)
0002ca f419      	BRNE _0x63
                 ; 0000 016D a = 22;}
0002cb e1e6      	LDI  R30,LOW(22)
0002cc 93e0 0161 	STS  _a,R30
                 ; 0000 016E if(OSC==16){
                 _0x63:
0002ce 91a0 0160 	LDS  R26,_OSC
0002d0 31a0      	CPI  R26,LOW(0x10)
0002d1 f419      	BRNE _0x64
                 ; 0000 016F a = 0;}}
0002d2 e0e0      	LDI  R30,LOW(0)
0002d3 93e0 0161 	STS  _a,R30
                 _0x64:
                 ; 0000 0170 if(pasisveikinimo_laikas2==15){
                 _0x5F:
0002d5 91a0 017a 	LDS  R26,_pasisveikinimo_laikas2
0002d7 30af      	CPI  R26,LOW(0xF)
0002d8 f4e1      	BRNE _0x65
                 ; 0000 0171 if(OSC==0){
0002d9 91e0 0160 	LDS  R30,_OSC
0002db 30e0      	CPI  R30,0
0002dc f419      	BRNE _0x66
                 ; 0000 0172 a = 15;}
0002dd e0ef      	LDI  R30,LOW(15)
0002de 93e0 0161 	STS  _a,R30
                 ; 0000 0173 if(OSC==4){
                 _0x66:
0002e0 91a0 0160 	LDS  R26,_OSC
0002e2 30a4      	CPI  R26,LOW(0x4)
0002e3 f419      	BRNE _0x67
                 ; 0000 0174 a = 22;}
0002e4 e1e6      	LDI  R30,LOW(22)
0002e5 93e0 0161 	STS  _a,R30
                 ; 0000 0175 if(OSC==8){
                 _0x67:
0002e7 91a0 0160 	LDS  R26,_OSC
0002e9 30a8      	CPI  R26,LOW(0x8)
0002ea f419      	BRNE _0x68
                 ; 0000 0176 a = 22;}
0002eb e1e6      	LDI  R30,LOW(22)
0002ec 93e0 0161 	STS  _a,R30
                 ; 0000 0177 if(OSC==12){
                 _0x68:
0002ee 91a0 0160 	LDS  R26,_OSC
0002f0 30ac      	CPI  R26,LOW(0xC)
0002f1 f419      	BRNE _0x69
                 ; 0000 0178 a = 0;}}
0002f2 e0e0      	LDI  R30,LOW(0)
0002f3 93e0 0161 	STS  _a,R30
                 _0x69:
                 ; 0000 0179 if(pasisveikinimo_laikas2==16){
                 _0x65:
0002f5 91a0 017a 	LDS  R26,_pasisveikinimo_laikas2
0002f7 31a0      	CPI  R26,LOW(0x10)
0002f8 f4a9      	BRNE _0x6A
                 ; 0000 017A if(OSC==0){
0002f9 91e0 0160 	LDS  R30,_OSC
0002fb 30e0      	CPI  R30,0
0002fc f419      	BRNE _0x6B
                 ; 0000 017B a = 22;}
0002fd e1e6      	LDI  R30,LOW(22)
0002fe 93e0 0161 	STS  _a,R30
                 ; 0000 017C if(OSC==4){
                 _0x6B:
000300 91a0 0160 	LDS  R26,_OSC
000302 30a4      	CPI  R26,LOW(0x4)
000303 f419      	BRNE _0x6C
                 ; 0000 017D a = 22;}
000304 e1e6      	LDI  R30,LOW(22)
000305 93e0 0161 	STS  _a,R30
                 ; 0000 017E if(OSC==8){
                 _0x6C:
000307 91a0 0160 	LDS  R26,_OSC
000309 30a8      	CPI  R26,LOW(0x8)
00030a f419      	BRNE _0x6D
                 ; 0000 017F a = 0;}}
00030b e0e0      	LDI  R30,LOW(0)
00030c 93e0 0161 	STS  _a,R30
                 _0x6D:
                 ; 0000 0180 if(pasisveikinimo_laikas2==17){
                 _0x6A:
00030e 91a0 017a 	LDS  R26,_pasisveikinimo_laikas2
000310 31a1      	CPI  R26,LOW(0x11)
000311 f471      	BRNE _0x6E
                 ; 0000 0181 if(OSC==0){
000312 91e0 0160 	LDS  R30,_OSC
000314 30e0      	CPI  R30,0
000315 f419      	BRNE _0x6F
                 ; 0000 0182 a = 22;}
000316 e1e6      	LDI  R30,LOW(22)
000317 93e0 0161 	STS  _a,R30
                 ; 0000 0183 if(OSC==4){
                 _0x6F:
000319 91a0 0160 	LDS  R26,_OSC
00031b 30a4      	CPI  R26,LOW(0x4)
00031c f419      	BRNE _0x70
                 ; 0000 0184 a = 0;}}
00031d e0e0      	LDI  R30,LOW(0)
00031e 93e0 0161 	STS  _a,R30
                 _0x70:
                 ; 0000 0185 if(pasisveikinimo_laikas2==18){
                 _0x6E:
000320 91a0 017a 	LDS  R26,_pasisveikinimo_laikas2
000322 31a2      	CPI  R26,LOW(0x12)
000323 f439      	BRNE _0x71
                 ; 0000 0186 if(OSC==0){
000324 91e0 0160 	LDS  R30,_OSC
000326 30e0      	CPI  R30,0
000327 f419      	BRNE _0x72
                 ; 0000 0187 a = 0;}}
000328 e0e0      	LDI  R30,LOW(0)
000329 93e0 0161 	STS  _a,R30
                 _0x72:
                 ; 0000 0188 if(pasisveikinimo_laikas2==20){
                 _0x71:
00032b 91a0 017a 	LDS  R26,_pasisveikinimo_laikas2
00032d 31a4      	CPI  R26,LOW(0x14)
00032e f449      	BRNE _0x73
                 ; 0000 0189 pasisveikinimas_baigtas = 1;
00032f e0e1      	LDI  R30,LOW(1)
000330 2e5e      	MOV  R5,R30
                 ; 0000 018A pasisveikinimo_laikas1 = 0;
000331 e0e0      	LDI  R30,LOW(0)
000332 93e0 0178 	STS  _pasisveikinimo_laikas1,R30
000334 93e0 0179 	STS  _pasisveikinimo_laikas1+1,R30
                 ; 0000 018B pasisveikinimo_laikas2 = 0;}}
000336 93e0 017a 	STS  _pasisveikinimo_laikas2,R30
                 _0x73:
000338 9508      	RET
                 ;
                 ;
                 ;// +
                 ;void fontai(){
                 ; 0000 018F void fontai(){
                 _fontai:
                 ; 0000 0190 //SKAICIAI IR RAIDES:
                 ; 0000 0191 // a==10 (A)
                 ; 0000 0192 // a==11 (b)
                 ; 0000 0193 // a==12 (c)
                 ; 0000 0194 // a==13 (C)
                 ; 0000 0195 // a==14 (d)
                 ; 0000 0196 // a==15 (E)
                 ; 0000 0197 // a==16 (F)
                 ; 0000 0198 // a==17 (H)
                 ; 0000 0199 // a==18 (h)
                 ; 0000 019A // a==19 (I)
                 ; 0000 019B // a==20 (i)
                 ; 0000 019C // a==21 (J)
                 ; 0000 019D // a==22 (L)
                 ; 0000 019E // a==23 (o)
                 ; 0000 019F // a==24 (P)
                 ; 0000 01A0 // a==25 (S)
                 ; 0000 01A1 // a==26 (t)
                 ; 0000 01A2 // a==27 (u)
                 ; 0000 01A3 // a==28 (U)
                 ; 0000 01A4 // a==29 (Z)
                 ; 0000 01A5 // a==30 (r)
                 ; 0000 01A6 // a==31 (_)
                 ; 0000 01A7 // a==32 (-)
                 ; 0000 01A8 // a==33 ( )
                 ; 0000 01A9 // a==34 (n)
                 ; 0000 01AA 
                 ; 0000 01AB 
                 ; 0000 01AC if(a == 0){
000339 91e0 0161 	LDS  R30,_a
00033b 30e0      	CPI  R30,0
00033c f449      	BRNE _0x74
                 ; 0000 01AD segm_a = 1;
00033d 940e 1605 	CALL SUBOPT_0x5
                 ; 0000 01AE segm_b = 1;
                 ; 0000 01AF segm_c = 1;
00033f 940e 160b 	CALL SUBOPT_0x6
                 ; 0000 01B0 segm_d = 1;
                 ; 0000 01B1 segm_e = 1;
000341 940e 1611 	CALL SUBOPT_0x7
                 ; 0000 01B2 segm_f = 1;
                 ; 0000 01B3 segm_g = 0;}
000343 e0e0      	LDI  R30,LOW(0)
000344 93e0 0168 	STS  _segm_g,R30
                 ; 0000 01B4 if(a == 1){
                 _0x74:
000346 91a0 0161 	LDS  R26,_a
000348 30a1      	CPI  R26,LOW(0x1)
000349 f421      	BRNE _0x75
                 ; 0000 01B5 segm_a = 0;
00034a 940e 1617 	CALL SUBOPT_0x8
                 ; 0000 01B6 segm_b = 1;
                 ; 0000 01B7 segm_c = 1;
                 ; 0000 01B8 segm_d = 0;
                 ; 0000 01B9 segm_e = 0;
                 ; 0000 01BA segm_f = 0;
00034c 940e 1625 	CALL SUBOPT_0x9
                 ; 0000 01BB segm_g = 0;}
                 ; 0000 01BC if(a == 2){
                 _0x75:
00034e 91a0 0161 	LDS  R26,_a
000350 30a2      	CPI  R26,LOW(0x2)
000351 f421      	BRNE _0x76
                 ; 0000 01BD segm_a = 1;
000352 940e 1605 	CALL SUBOPT_0x5
                 ; 0000 01BE segm_b = 1;
                 ; 0000 01BF segm_c = 0;
000354 940e 162b 	CALL SUBOPT_0xA
                 ; 0000 01C0 segm_d = 1;
                 ; 0000 01C1 segm_e = 1;
                 ; 0000 01C2 segm_f = 0;
                 ; 0000 01C3 segm_g = 1;}
                 ; 0000 01C4 if(a == 3){
                 _0x76:
000356 91a0 0161 	LDS  R26,_a
000358 30a3      	CPI  R26,LOW(0x3)
000359 f431      	BRNE _0x77
                 ; 0000 01C5 segm_a = 1;
00035a 940e 1605 	CALL SUBOPT_0x5
                 ; 0000 01C6 segm_b = 1;
                 ; 0000 01C7 segm_c = 1;
00035c 940e 160b 	CALL SUBOPT_0x6
                 ; 0000 01C8 segm_d = 1;
                 ; 0000 01C9 segm_e = 0;
00035e 940e 163a 	CALL SUBOPT_0xB
                 ; 0000 01CA segm_f = 0;
                 ; 0000 01CB segm_g = 1;}
                 ; 0000 01CC if(a == 4){
                 _0x77:
000360 91a0 0161 	LDS  R26,_a
000362 30a4      	CPI  R26,LOW(0x4)
000363 f421      	BRNE _0x78
                 ; 0000 01CD segm_a = 0;
000364 940e 1617 	CALL SUBOPT_0x8
                 ; 0000 01CE segm_b = 1;
                 ; 0000 01CF segm_c = 1;
                 ; 0000 01D0 segm_d = 0;
                 ; 0000 01D1 segm_e = 0;
                 ; 0000 01D2 segm_f = 1;
000366 940e 1643 	CALL SUBOPT_0xC
                 ; 0000 01D3 segm_g = 1;}
                 ; 0000 01D4 if(a == 5){
                 _0x78:
000368 91a0 0161 	LDS  R26,_a
00036a 30a5      	CPI  R26,LOW(0x5)
00036b f421      	BRNE _0x79
                 ; 0000 01D5 segm_a = 1;
00036c 940e 1649 	CALL SUBOPT_0xD
                 ; 0000 01D6 segm_b = 0;
                 ; 0000 01D7 segm_c = 1;
                 ; 0000 01D8 segm_d = 1;
                 ; 0000 01D9 segm_e = 0;
00036e 940e 1650 	CALL SUBOPT_0xE
                 ; 0000 01DA segm_f = 1;
                 ; 0000 01DB segm_g = 1;}
                 ; 0000 01DC if(a == 6){
                 _0x79:
000370 91a0 0161 	LDS  R26,_a
000372 30a6      	CPI  R26,LOW(0x6)
000373 f439      	BRNE _0x7A
                 ; 0000 01DD segm_a = 1;
000374 940e 1649 	CALL SUBOPT_0xD
                 ; 0000 01DE segm_b = 0;
                 ; 0000 01DF segm_c = 1;
                 ; 0000 01E0 segm_d = 1;
                 ; 0000 01E1 segm_e = 1;
000376 940e 1611 	CALL SUBOPT_0x7
                 ; 0000 01E2 segm_f = 1;
                 ; 0000 01E3 segm_g = 1;}
000378 e0e1      	LDI  R30,LOW(1)
000379 93e0 0168 	STS  _segm_g,R30
                 ; 0000 01E4 if(a == 7){
                 _0x7A:
00037b 91a0 0161 	LDS  R26,_a
00037d 30a7      	CPI  R26,LOW(0x7)
00037e f431      	BRNE _0x7B
                 ; 0000 01E5 segm_a = 1;
00037f 940e 1605 	CALL SUBOPT_0x5
                 ; 0000 01E6 segm_b = 1;
                 ; 0000 01E7 segm_c = 1;
000381 940e 1654 	CALL SUBOPT_0xF
                 ; 0000 01E8 segm_d = 0;
                 ; 0000 01E9 segm_e = 0;
000383 940e 165b 	CALL SUBOPT_0x10
                 ; 0000 01EA segm_f = 0;
                 ; 0000 01EB segm_g = 0;}
                 ; 0000 01EC if(a == 8){
                 _0x7B:
000385 91a0 0161 	LDS  R26,_a
000387 30a8      	CPI  R26,LOW(0x8)
000388 f449      	BRNE _0x7C
                 ; 0000 01ED segm_a = 1;
000389 940e 1605 	CALL SUBOPT_0x5
                 ; 0000 01EE segm_b = 1;
                 ; 0000 01EF segm_c = 1;
00038b 940e 160b 	CALL SUBOPT_0x6
                 ; 0000 01F0 segm_d = 1;
                 ; 0000 01F1 segm_e = 1;
00038d 940e 1611 	CALL SUBOPT_0x7
                 ; 0000 01F2 segm_f = 1;
                 ; 0000 01F3 segm_g = 1;}
00038f e0e1      	LDI  R30,LOW(1)
000390 93e0 0168 	STS  _segm_g,R30
                 ; 0000 01F4 if(a == 9){
                 _0x7C:
000392 91a0 0161 	LDS  R26,_a
000394 30a9      	CPI  R26,LOW(0x9)
000395 f431      	BRNE _0x7D
                 ; 0000 01F5 segm_a = 1;
000396 940e 1605 	CALL SUBOPT_0x5
                 ; 0000 01F6 segm_b = 1;
                 ; 0000 01F7 segm_c = 1;
000398 940e 160b 	CALL SUBOPT_0x6
                 ; 0000 01F8 segm_d = 1;
                 ; 0000 01F9 segm_e = 0;
00039a 940e 1650 	CALL SUBOPT_0xE
                 ; 0000 01FA segm_f = 1;
                 ; 0000 01FB segm_g = 1;}
                 ; 0000 01FC if(a ==10){
                 _0x7D:
00039c 91a0 0161 	LDS  R26,_a
00039e 30aa      	CPI  R26,LOW(0xA)
00039f f449      	BRNE _0x7E
                 ; 0000 01FD segm_a = 1;
0003a0 940e 1605 	CALL SUBOPT_0x5
                 ; 0000 01FE segm_b = 1;
                 ; 0000 01FF segm_c = 1;
0003a2 940e 1654 	CALL SUBOPT_0xF
                 ; 0000 0200 segm_d = 0;
                 ; 0000 0201 segm_e = 1;
0003a4 940e 1611 	CALL SUBOPT_0x7
                 ; 0000 0202 segm_f = 1;
                 ; 0000 0203 segm_g = 1;}
0003a6 e0e1      	LDI  R30,LOW(1)
0003a7 93e0 0168 	STS  _segm_g,R30
                 ; 0000 0204 if(a ==11){
                 _0x7E:
0003a9 91a0 0161 	LDS  R26,_a
0003ab 30ab      	CPI  R26,LOW(0xB)
0003ac f449      	BRNE _0x7F
                 ; 0000 0205 segm_a = 0;
0003ad 940e 165f 	CALL SUBOPT_0x11
                 ; 0000 0206 segm_b = 0;
                 ; 0000 0207 segm_c = 1;
0003af 940e 160b 	CALL SUBOPT_0x6
                 ; 0000 0208 segm_d = 1;
                 ; 0000 0209 segm_e = 1;
0003b1 940e 1611 	CALL SUBOPT_0x7
                 ; 0000 020A segm_f = 1;
                 ; 0000 020B segm_g = 1;}
0003b3 e0e1      	LDI  R30,LOW(1)
0003b4 93e0 0168 	STS  _segm_g,R30
                 ; 0000 020C if(a ==12){
                 _0x7F:
0003b6 91a0 0161 	LDS  R26,_a
0003b8 30ac      	CPI  R26,LOW(0xC)
0003b9 f421      	BRNE _0x80
                 ; 0000 020D segm_a = 0;
0003ba 940e 165f 	CALL SUBOPT_0x11
                 ; 0000 020E segm_b = 0;
                 ; 0000 020F segm_c = 0;
0003bc 940e 162b 	CALL SUBOPT_0xA
                 ; 0000 0210 segm_d = 1;
                 ; 0000 0211 segm_e = 1;
                 ; 0000 0212 segm_f = 0;
                 ; 0000 0213 segm_g = 1;}
                 ; 0000 0214 if(a ==13){
                 _0x80:
0003be 91a0 0161 	LDS  R26,_a
0003c0 30ad      	CPI  R26,LOW(0xD)
0003c1 f429      	BRNE _0x81
                 ; 0000 0215 segm_a = 1;
0003c2 940e 1665 	CALL SUBOPT_0x12
                 ; 0000 0216 segm_b = 0;
                 ; 0000 0217 segm_c = 0;
                 ; 0000 0218 segm_d = 1;
                 ; 0000 0219 segm_e = 1;
                 ; 0000 021A segm_f = 1;
                 ; 0000 021B segm_g = 0;}
0003c4 e0e0      	LDI  R30,LOW(0)
0003c5 93e0 0168 	STS  _segm_g,R30
                 ; 0000 021C if(a ==14){
                 _0x81:
0003c7 91a0 0161 	LDS  R26,_a
0003c9 30ae      	CPI  R26,LOW(0xE)
0003ca f431      	BRNE _0x82
                 ; 0000 021D segm_a = 0;
0003cb 940e 1671 	CALL SUBOPT_0x13
                 ; 0000 021E segm_b = 1;
                 ; 0000 021F segm_c = 1;
0003cd 940e 160b 	CALL SUBOPT_0x6
                 ; 0000 0220 segm_d = 1;
                 ; 0000 0221 segm_e = 1;
0003cf 940e 1678 	CALL SUBOPT_0x14
                 ; 0000 0222 segm_f = 0;
                 ; 0000 0223 segm_g = 1;}
                 ; 0000 0224 if(a ==15){
                 _0x82:
0003d1 91a0 0161 	LDS  R26,_a
0003d3 30af      	CPI  R26,LOW(0xF)
0003d4 f429      	BRNE _0x83
                 ; 0000 0225 segm_a = 1;
0003d5 940e 1665 	CALL SUBOPT_0x12
                 ; 0000 0226 segm_b = 0;
                 ; 0000 0227 segm_c = 0;
                 ; 0000 0228 segm_d = 1;
                 ; 0000 0229 segm_e = 1;
                 ; 0000 022A segm_f = 1;
                 ; 0000 022B segm_g = 1;}
0003d7 e0e1      	LDI  R30,LOW(1)
0003d8 93e0 0168 	STS  _segm_g,R30
                 ; 0000 022C if(a ==16){
                 _0x83:
0003da 91a0 0161 	LDS  R26,_a
0003dc 31a0      	CPI  R26,LOW(0x10)
0003dd f459      	BRNE _0x84
                 ; 0000 022D segm_a = 1;
0003de e0e1      	LDI  R30,LOW(1)
0003df 93e0 0162 	STS  _segm_a,R30
                 ; 0000 022E segm_b = 0;
0003e1 e0e0      	LDI  R30,LOW(0)
0003e2 93e0 0163 	STS  _segm_b,R30
                 ; 0000 022F segm_c = 0;
0003e4 940e 1682 	CALL SUBOPT_0x15
                 ; 0000 0230 segm_d = 0;
                 ; 0000 0231 segm_e = 1;
                 ; 0000 0232 segm_f = 1;
                 ; 0000 0233 segm_g = 1;}
0003e6 e0e1      	LDI  R30,LOW(1)
0003e7 93e0 0168 	STS  _segm_g,R30
                 ; 0000 0234 if(a ==17){
                 _0x84:
0003e9 91a0 0161 	LDS  R26,_a
0003eb 31a1      	CPI  R26,LOW(0x11)
0003ec f449      	BRNE _0x85
                 ; 0000 0235 segm_a = 0;
0003ed 940e 1671 	CALL SUBOPT_0x13
                 ; 0000 0236 segm_b = 1;
                 ; 0000 0237 segm_c = 1;
0003ef 940e 1654 	CALL SUBOPT_0xF
                 ; 0000 0238 segm_d = 0;
                 ; 0000 0239 segm_e = 1;
0003f1 940e 1611 	CALL SUBOPT_0x7
                 ; 0000 023A segm_f = 1;
                 ; 0000 023B segm_g = 1;}
0003f3 e0e1      	LDI  R30,LOW(1)
0003f4 93e0 0168 	STS  _segm_g,R30
                 ; 0000 023C if(a ==18){
                 _0x85:
0003f6 91a0 0161 	LDS  R26,_a
0003f8 31a2      	CPI  R26,LOW(0x12)
0003f9 f449      	BRNE _0x86
                 ; 0000 023D segm_a = 0;
0003fa 940e 165f 	CALL SUBOPT_0x11
                 ; 0000 023E segm_b = 0;
                 ; 0000 023F segm_c = 1;
0003fc 940e 1654 	CALL SUBOPT_0xF
                 ; 0000 0240 segm_d = 0;
                 ; 0000 0241 segm_e = 1;
0003fe 940e 1611 	CALL SUBOPT_0x7
                 ; 0000 0242 segm_f = 1;
                 ; 0000 0243 segm_g = 1;}
000400 e0e1      	LDI  R30,LOW(1)
000401 93e0 0168 	STS  _segm_g,R30
                 ; 0000 0244 if(a ==19){
                 _0x86:
000403 91a0 0161 	LDS  R26,_a
000405 31a3      	CPI  R26,LOW(0x13)
000406 f421      	BRNE _0x87
                 ; 0000 0245 segm_a = 0;
000407 940e 1617 	CALL SUBOPT_0x8
                 ; 0000 0246 segm_b = 1;
                 ; 0000 0247 segm_c = 1;
                 ; 0000 0248 segm_d = 0;
                 ; 0000 0249 segm_e = 0;
                 ; 0000 024A segm_f = 0;
000409 940e 1625 	CALL SUBOPT_0x9
                 ; 0000 024B segm_g = 0;}
                 ; 0000 024C if(a ==20){
                 _0x87:
00040b 91a0 0161 	LDS  R26,_a
00040d 31a4      	CPI  R26,LOW(0x14)
00040e f431      	BRNE _0x88
                 ; 0000 024D segm_a = 0;
00040f 940e 165f 	CALL SUBOPT_0x11
                 ; 0000 024E segm_b = 0;
                 ; 0000 024F segm_c = 1;
000411 940e 1654 	CALL SUBOPT_0xF
                 ; 0000 0250 segm_d = 0;
                 ; 0000 0251 segm_e = 0;
000413 940e 165b 	CALL SUBOPT_0x10
                 ; 0000 0252 segm_f = 0;
                 ; 0000 0253 segm_g = 0;}
                 ; 0000 0254 if(a ==21){
                 _0x88:
000415 91a0 0161 	LDS  R26,_a
000417 31a5      	CPI  R26,LOW(0x15)
000418 f431      	BRNE _0x89
                 ; 0000 0255 segm_a = 0;
000419 940e 1671 	CALL SUBOPT_0x13
                 ; 0000 0256 segm_b = 1;
                 ; 0000 0257 segm_c = 1;
00041b 940e 160b 	CALL SUBOPT_0x6
                 ; 0000 0258 segm_d = 1;
                 ; 0000 0259 segm_e = 0;
00041d 940e 165b 	CALL SUBOPT_0x10
                 ; 0000 025A segm_f = 0;
                 ; 0000 025B segm_g = 0;}
                 ; 0000 025C if(a ==22){
                 _0x89:
00041f 91a0 0161 	LDS  R26,_a
000421 31a6      	CPI  R26,LOW(0x16)
000422 f439      	BRNE _0x8A
                 ; 0000 025D segm_a = 0;
000423 940e 165f 	CALL SUBOPT_0x11
                 ; 0000 025E segm_b = 0;
                 ; 0000 025F segm_c = 0;
000425 940e 1688 	CALL SUBOPT_0x16
                 ; 0000 0260 segm_d = 1;
                 ; 0000 0261 segm_e = 1;
                 ; 0000 0262 segm_f = 1;
                 ; 0000 0263 segm_g = 0;}
000427 e0e0      	LDI  R30,LOW(0)
000428 93e0 0168 	STS  _segm_g,R30
                 ; 0000 0264 if(a ==23){
                 _0x8A:
00042a 91a0 0161 	LDS  R26,_a
00042c 31a7      	CPI  R26,LOW(0x17)
00042d f431      	BRNE _0x8B
                 ; 0000 0265 segm_a = 0;
00042e 940e 165f 	CALL SUBOPT_0x11
                 ; 0000 0266 segm_b = 0;
                 ; 0000 0267 segm_c = 1;
000430 940e 160b 	CALL SUBOPT_0x6
                 ; 0000 0268 segm_d = 1;
                 ; 0000 0269 segm_e = 1;
000432 940e 1678 	CALL SUBOPT_0x14
                 ; 0000 026A segm_f = 0;
                 ; 0000 026B segm_g = 1;}
                 ; 0000 026C if(a ==24){
                 _0x8B:
000434 91a0 0161 	LDS  R26,_a
000436 31a8      	CPI  R26,LOW(0x18)
000437 f439      	BRNE _0x8C
                 ; 0000 026D segm_a = 1;
000438 940e 1605 	CALL SUBOPT_0x5
                 ; 0000 026E segm_b = 1;
                 ; 0000 026F segm_c = 0;
00043a 940e 1682 	CALL SUBOPT_0x15
                 ; 0000 0270 segm_d = 0;
                 ; 0000 0271 segm_e = 1;
                 ; 0000 0272 segm_f = 1;
                 ; 0000 0273 segm_g = 1;}
00043c e0e1      	LDI  R30,LOW(1)
00043d 93e0 0168 	STS  _segm_g,R30
                 ; 0000 0274 if(a ==25){
                 _0x8C:
00043f 91a0 0161 	LDS  R26,_a
000441 31a9      	CPI  R26,LOW(0x19)
000442 f421      	BRNE _0x8D
                 ; 0000 0275 segm_a = 1;
000443 940e 1649 	CALL SUBOPT_0xD
                 ; 0000 0276 segm_b = 0;
                 ; 0000 0277 segm_c = 1;
                 ; 0000 0278 segm_d = 1;
                 ; 0000 0279 segm_e = 0;
000445 940e 1650 	CALL SUBOPT_0xE
                 ; 0000 027A segm_f = 1;
                 ; 0000 027B segm_g = 1;}
                 ; 0000 027C if(a ==26){
                 _0x8D:
000447 91a0 0161 	LDS  R26,_a
000449 31aa      	CPI  R26,LOW(0x1A)
00044a f439      	BRNE _0x8E
                 ; 0000 027D segm_a = 0;
00044b 940e 165f 	CALL SUBOPT_0x11
                 ; 0000 027E segm_b = 0;
                 ; 0000 027F segm_c = 0;
00044d 940e 1688 	CALL SUBOPT_0x16
                 ; 0000 0280 segm_d = 1;
                 ; 0000 0281 segm_e = 1;
                 ; 0000 0282 segm_f = 1;
                 ; 0000 0283 segm_g = 1;}
00044f e0e1      	LDI  R30,LOW(1)
000450 93e0 0168 	STS  _segm_g,R30
                 ; 0000 0284 if(a ==27){
                 _0x8E:
000452 91a0 0161 	LDS  R26,_a
000454 31ab      	CPI  R26,LOW(0x1B)
000455 f449      	BRNE _0x8F
                 ; 0000 0285 segm_a = 0;
000456 940e 165f 	CALL SUBOPT_0x11
                 ; 0000 0286 segm_b = 0;
                 ; 0000 0287 segm_c = 1;
000458 940e 160b 	CALL SUBOPT_0x6
                 ; 0000 0288 segm_d = 1;
                 ; 0000 0289 segm_e = 1;
00045a e0e1      	LDI  R30,LOW(1)
00045b 93e0 0166 	STS  _segm_e,R30
                 ; 0000 028A segm_f = 0;
00045d 940e 1625 	CALL SUBOPT_0x9
                 ; 0000 028B segm_g = 0;}
                 ; 0000 028C if(a ==28){
                 _0x8F:
00045f 91a0 0161 	LDS  R26,_a
000461 31ac      	CPI  R26,LOW(0x1C)
000462 f449      	BRNE _0x90
                 ; 0000 028D segm_a = 0;
000463 940e 1671 	CALL SUBOPT_0x13
                 ; 0000 028E segm_b = 1;
                 ; 0000 028F segm_c = 1;
000465 940e 160b 	CALL SUBOPT_0x6
                 ; 0000 0290 segm_d = 1;
                 ; 0000 0291 segm_e = 1;
000467 940e 1611 	CALL SUBOPT_0x7
                 ; 0000 0292 segm_f = 1;
                 ; 0000 0293 segm_g = 0;}
000469 e0e0      	LDI  R30,LOW(0)
00046a 93e0 0168 	STS  _segm_g,R30
                 ; 0000 0294 if(a ==29){
                 _0x90:
00046c 91a0 0161 	LDS  R26,_a
00046e 31ad      	CPI  R26,LOW(0x1D)
00046f f421      	BRNE _0x91
                 ; 0000 0295 segm_a = 1;
000470 940e 1605 	CALL SUBOPT_0x5
                 ; 0000 0296 segm_b = 1;
                 ; 0000 0297 segm_c = 0;
000472 940e 162b 	CALL SUBOPT_0xA
                 ; 0000 0298 segm_d = 1;
                 ; 0000 0299 segm_e = 1;
                 ; 0000 029A segm_f = 0;
                 ; 0000 029B segm_g = 1;}
                 ; 0000 029C if(a ==30){
                 _0x91:
000474 91a0 0161 	LDS  R26,_a
000476 31ae      	CPI  R26,LOW(0x1E)
000477 f431      	BRNE _0x92
                 ; 0000 029D segm_a = 0;
000478 940e 165f 	CALL SUBOPT_0x11
                 ; 0000 029E segm_b = 0;
                 ; 0000 029F segm_c = 0;
00047a 940e 168f 	CALL SUBOPT_0x17
                 ; 0000 02A0 segm_d = 0;
                 ; 0000 02A1 segm_e = 1;
00047c 940e 1678 	CALL SUBOPT_0x14
                 ; 0000 02A2 segm_f = 0;
                 ; 0000 02A3 segm_g = 1;}
                 ; 0000 02A4 if(a ==31){
                 _0x92:
00047e 91a0 0161 	LDS  R26,_a
000480 31af      	CPI  R26,LOW(0x1F)
000481 f451      	BRNE _0x93
                 ; 0000 02A5 segm_a = 0;
000482 940e 165f 	CALL SUBOPT_0x11
                 ; 0000 02A6 segm_b = 0;
                 ; 0000 02A7 segm_c = 0;
000484 e0e0      	LDI  R30,LOW(0)
000485 93e0 0164 	STS  _segm_c,R30
                 ; 0000 02A8 segm_d = 1;
000487 e0e1      	LDI  R30,LOW(1)
000488 93e0 0165 	STS  _segm_d,R30
                 ; 0000 02A9 segm_e = 0;
00048a 940e 165b 	CALL SUBOPT_0x10
                 ; 0000 02AA segm_f = 0;
                 ; 0000 02AB segm_g = 0;}
                 ; 0000 02AC if(a ==32){
                 _0x93:
00048c 91a0 0161 	LDS  R26,_a
00048e 32a0      	CPI  R26,LOW(0x20)
00048f f431      	BRNE _0x94
                 ; 0000 02AD segm_a = 0;
000490 940e 165f 	CALL SUBOPT_0x11
                 ; 0000 02AE segm_b = 0;
                 ; 0000 02AF segm_c = 0;
000492 940e 168f 	CALL SUBOPT_0x17
                 ; 0000 02B0 segm_d = 0;
                 ; 0000 02B1 segm_e = 0;
000494 940e 163a 	CALL SUBOPT_0xB
                 ; 0000 02B2 segm_f = 0;
                 ; 0000 02B3 segm_g = 1;}
                 ; 0000 02B4 if(a ==33){
                 _0x94:
000496 91a0 0161 	LDS  R26,_a
000498 32a1      	CPI  R26,LOW(0x21)
000499 f431      	BRNE _0x95
                 ; 0000 02B5 segm_a = 0;
00049a 940e 165f 	CALL SUBOPT_0x11
                 ; 0000 02B6 segm_b = 0;
                 ; 0000 02B7 segm_c = 0;
00049c 940e 168f 	CALL SUBOPT_0x17
                 ; 0000 02B8 segm_d = 0;
                 ; 0000 02B9 segm_e = 0;
00049e 940e 165b 	CALL SUBOPT_0x10
                 ; 0000 02BA segm_f = 0;
                 ; 0000 02BB segm_g = 0;}
                 ; 0000 02BC if(a ==34){
                 _0x95:
0004a0 91a0 0161 	LDS  R26,_a
0004a2 32a2      	CPI  R26,LOW(0x22)
0004a3 f431      	BRNE _0x96
                 ; 0000 02BD segm_a = 0;
0004a4 940e 165f 	CALL SUBOPT_0x11
                 ; 0000 02BE segm_b = 0;
                 ; 0000 02BF segm_c = 1;
0004a6 940e 1654 	CALL SUBOPT_0xF
                 ; 0000 02C0 segm_d = 0;
                 ; 0000 02C1 segm_e = 1;
0004a8 940e 1678 	CALL SUBOPT_0x14
                 ; 0000 02C2 segm_f = 0;
                 ; 0000 02C3 segm_g = 1;}}
                 _0x96:
0004aa 9508      	RET
                 ;
                 ;
                 ;
                 ;void padeciu_medis(){
                 ; 0000 02C7 void padeciu_medis(){
                 _padeciu_medis:
                 ; 0000 02C8 
                 ; 0000 02C9 if(MYGTUKAS_7==1){
0004ab 91a0 0170 	LDS  R26,_MYGTUKAS_7
0004ad 30a1      	CPI  R26,LOW(0x1)
0004ae f429      	BRNE _0x97
                 ; 0000 02CA MYGTUKAS_7 = 0;
0004af e0e0      	LDI  R30,LOW(0)
0004b0 93e0 0170 	STS  _MYGTUKAS_7,R30
                 ; 0000 02CB x = 0;
0004b2 2444      	CLR  R4
                 ; 0000 02CC y = 0;}
0004b3 2477      	CLR  R7
                 ; 0000 02CD 
                 ; 0000 02CE if(x==0){
                 _0x97:
0004b4 2044      	TST  R4
0004b5 f439      	BRNE _0x98
                 ; 0000 02CF 
                 ; 0000 02D0 if(y==0){
0004b6 2077      	TST  R7
0004b7 f409      	BRNE _0x99
                 ; 0000 02D1 dabartinis_laikas();}
0004b8 d178      	RCALL _dabartinis_laikas
                 ; 0000 02D2 if(y==1){
                 _0x99:
0004b9 e0e1      	LDI  R30,LOW(1)
0004ba 15e7      	CP   R30,R7
0004bb f409      	BRNE _0x9A
                 ; 0000 02D3 sekundes_trukmes_keitimas();}}
0004bc d335      	RCALL _sekundes_trukmes_keitimas
                 _0x9A:
                 ; 0000 02D4 
                 ; 0000 02D5 
                 ; 0000 02D6 if(x==1){
                 _0x98:
0004bd e0e1      	LDI  R30,LOW(1)
0004be 15e4      	CP   R30,R4
0004bf f419      	BRNE _0x9B
                 ; 0000 02D7 
                 ; 0000 02D8 if(y==0){
0004c0 2077      	TST  R7
0004c1 f409      	BRNE _0x9C
                 ; 0000 02D9 kondensatoriaus_busena();}}
0004c2 d47f      	RCALL _kondensatoriaus_busena
                 _0x9C:
                 ; 0000 02DA 
                 ; 0000 02DB 
                 ; 0000 02DC if(REDAGAVIMAS==0){
                 _0x9B:
0004c3 91e0 017b 	LDS  R30,_REDAGAVIMAS
0004c5 30e0      	CPI  R30,0
0004c6 f5d9      	BRNE _0x9D
                 ; 0000 02DD if(MYGTUKAS_1==1){
0004c7 91a0 016a 	LDS  R26,_MYGTUKAS_1
0004c9 30a1      	CPI  R26,LOW(0x1)
0004ca f439      	BRNE _0x9E
                 ; 0000 02DE if((x==0)&&(y==0)){    //kordinates kurios leidzia padidinti y
0004cb e0e0      	LDI  R30,LOW(0)
0004cc 15e4      	CP   R30,R4
0004cd f411      	BRNE _0xA0
0004ce 15e7      	CP   R30,R7
0004cf f009      	BREQ _0xA1
                 _0xA0:
0004d0 c001      	RJMP _0x9F
                 _0xA1:
                 ; 0000 02DF y = y + 1;}}
0004d1 9473      	INC  R7
                 _0x9F:
                 ; 0000 02E0 if(MYGTUKAS_5==1){
                 _0x9E:
0004d2 91a0 016e 	LDS  R26,_MYGTUKAS_5
0004d4 30a1      	CPI  R26,LOW(0x1)
0004d5 f459      	BRNE _0xA2
                 ; 0000 02E1 if((x==0)&&(y==1)){    //kordinates kurios leidzia sumazinti y
0004d6 e0e0      	LDI  R30,LOW(0)
0004d7 15e4      	CP   R30,R4
0004d8 f419      	BRNE _0xA4
0004d9 e0e1      	LDI  R30,LOW(1)
0004da 15e7      	CP   R30,R7
0004db f009      	BREQ _0xA5
                 _0xA4:
0004dc c004      	RJMP _0xA3
                 _0xA5:
                 ; 0000 02E2 y = y - 1;}}
0004dd 2de7      	MOV  R30,R7
0004de 940e 1695 	CALL SUBOPT_0x18
0004e0 2e7e      	MOV  R7,R30
                 _0xA3:
                 ; 0000 02E3 if(MYGTUKAS_4==1){
                 _0xA2:
0004e1 91a0 016d 	LDS  R26,_MYGTUKAS_4
0004e3 30a1      	CPI  R26,LOW(0x1)
0004e4 f439      	BRNE _0xA6
                 ; 0000 02E4 if((x==0)&&(y==0)){    //kordinates kurios leidzia padidinti x
0004e5 e0e0      	LDI  R30,LOW(0)
0004e6 15e4      	CP   R30,R4
0004e7 f411      	BRNE _0xA8
0004e8 15e7      	CP   R30,R7
0004e9 f009      	BREQ _0xA9
                 _0xA8:
0004ea c001      	RJMP _0xA7
                 _0xA9:
                 ; 0000 02E5 x = x + 1;}}
0004eb 9443      	INC  R4
                 _0xA7:
                 ; 0000 02E6 if(MYGTUKAS_2==1){
                 _0xA6:
0004ec 91a0 016b 	LDS  R26,_MYGTUKAS_2
0004ee 30a1      	CPI  R26,LOW(0x1)
0004ef f459      	BRNE _0xAA
                 ; 0000 02E7 if((x==1)&&(y==0)){    //kordinates kurios leidzia sumazinti x
0004f0 e0e1      	LDI  R30,LOW(1)
0004f1 15e4      	CP   R30,R4
0004f2 f419      	BRNE _0xAC
0004f3 e0e0      	LDI  R30,LOW(0)
0004f4 15e7      	CP   R30,R7
0004f5 f009      	BREQ _0xAD
                 _0xAC:
0004f6 c004      	RJMP _0xAB
                 _0xAD:
                 ; 0000 02E8 x = x - 1;}}
0004f7 2de4      	MOV  R30,R4
0004f8 940e 1695 	CALL SUBOPT_0x18
0004fa 2e4e      	MOV  R4,R30
                 _0xAB:
                 ; 0000 02E9 MYGTUKAS_1 = 0;
                 _0xAA:
0004fb 940e 15ec 	CALL SUBOPT_0x0
                 ; 0000 02EA MYGTUKAS_2 = 0;
                 ; 0000 02EB MYGTUKAS_4 = 0;
0004fd 93e0 016d 	STS  _MYGTUKAS_4,R30
                 ; 0000 02EC MYGTUKAS_5 = 0;}
0004ff e0e0      	LDI  R30,LOW(0)
000500 93e0 016e 	STS  _MYGTUKAS_5,R30
                 ; 0000 02ED 
                 ; 0000 02EE 
                 ; 0000 02EF 
                 ; 0000 02F0 }                      //kordinates kuriose negalima redaguoti
                 _0x9D:
000502 9508      	RET
                 ;
                 ;
                 ;// +
                 ;void blyksintis_skaicius(){
                 ; 0000 02F4 void blyksintis_skaicius(){
                 _blyksintis_skaicius:
                 ; 0000 02F5 blyksincio_skaiciaus_laiko_paskutinis_ciklas = PUSE_SEKUNDES;
                +
000503 92a0 017d+STS _blyksincio_skaiciaus_laiko_paskutinis_ciklas + ( 0 ) , R10
000505 92b0 017e+STS _blyksincio_skaiciaus_laiko_paskutinis_ciklas + ( 0 ) + 1 , R11
                 	__PUTWMRN _blyksincio_skaiciaus_laiko_paskutinis_ciklas,0,10,11
                 ; 0000 02F6 if(REDAGAVIMAS==1){
000507 91a0 017b 	LDS  R26,_REDAGAVIMAS
000509 30a1      	CPI  R26,LOW(0x1)
00050a f011      	BREQ PC+3
00050b 940c 058b 	JMP _0xAE
                 ; 0000 02F7 blyksincio_skaiciaus_laikas = blyksincio_skaiciaus_laikas + 1;
00050d 91e0 017f 	LDS  R30,_blyksincio_skaiciaus_laikas
00050f 91f0 0180 	LDS  R31,_blyksincio_skaiciaus_laikas+1
000511 9631      	ADIW R30,1
000512 93e0 017f 	STS  _blyksincio_skaiciaus_laikas,R30
000514 93f0 0180 	STS  _blyksincio_skaiciaus_laikas+1,R31
                 ; 0000 02F8 
                 ; 0000 02F9 if(blyksincio_skaiciaus_laikas>=
                 ; 0000 02FA blyksincio_skaiciaus_laiko_paskutinis_ciklas){
000516 91e0 017d 	LDS  R30,_blyksincio_skaiciaus_laiko_paskutinis_ciklas
000518 91f0 017e 	LDS  R31,_blyksincio_skaiciaus_laiko_paskutinis_ciklas+1
00051a 91a0 017f 	LDS  R26,_blyksincio_skaiciaus_laikas
00051c 91b0 0180 	LDS  R27,_blyksincio_skaiciaus_laikas+1
00051e 17ae      	CP   R26,R30
00051f 07bf      	CPC  R27,R31
000520 f028      	BRLO _0xAF
                 ; 0000 02FB blyksincio_skaiciaus_laikas = 0;}
000521 e0e0      	LDI  R30,LOW(0)
000522 93e0 017f 	STS  _blyksincio_skaiciaus_laikas,R30
000524 93e0 0180 	STS  _blyksincio_skaiciaus_laikas+1,R30
                 ; 0000 02FC 
                 ; 0000 02FD 
                 ; 0000 02FE blyksincio_skaiciaus_laiko_vidurinysis_ciklas =
                 _0xAF:
                 ; 0000 02FF blyksincio_skaiciaus_laiko_paskutinis_ciklas / 2;
000526 91e0 017d 	LDS  R30,_blyksincio_skaiciaus_laiko_paskutinis_ciklas
000528 91f0 017e 	LDS  R31,_blyksincio_skaiciaus_laiko_paskutinis_ciklas+1
00052a 95f6      	LSR  R31
00052b 95e7      	ROR  R30
00052c 93e0 0181 	STS  _blyksincio_skaiciaus_laiko_vidurinysis_ciklas,R30
00052e 93f0 0182 	STS  _blyksincio_skaiciaus_laiko_vidurinysis_ciklas+1,R31
                 ; 0000 0300 
                 ; 0000 0301 SKAICIUS_DEGA = blyksincio_skaiciaus_laikas /
                 ; 0000 0302 blyksincio_skaiciaus_laiko_vidurinysis_ciklas;
000530 91a0 017f 	LDS  R26,_blyksincio_skaiciaus_laikas
000532 91b0 0180 	LDS  R27,_blyksincio_skaiciaus_laikas+1
000534 940e 16f4 	CALL __DIVW21U
000536 93e0 017c 	STS  _SKAICIUS_DEGA,R30
                 ; 0000 0303 
                 ; 0000 0304 if(SKAICIUS_DEGA==0){
000538 30e0      	CPI  R30,0
000539 f011      	BREQ PC+3
00053a 940c 058b 	JMP _0xB0
                 ; 0000 0305 if(z==-4){
00053c efec      	LDI  R30,LOW(252)
00053d 15e6      	CP   R30,R6
00053e f439      	BRNE _0xB1
                 ; 0000 0306 if(OSC==0){
00053f 91e0 0160 	LDS  R30,_OSC
000541 30e0      	CPI  R30,0
000542 f419      	BRNE _0xB2
                 ; 0000 0307 a = 33;}}
000543 e2e1      	LDI  R30,LOW(33)
000544 93e0 0161 	STS  _a,R30
                 _0xB2:
                 ; 0000 0308 if(z==-3){
                 _0xB1:
000546 efed      	LDI  R30,LOW(253)
000547 15e6      	CP   R30,R6
000548 f439      	BRNE _0xB3
                 ; 0000 0309 if(OSC==4){
000549 91a0 0160 	LDS  R26,_OSC
00054b 30a4      	CPI  R26,LOW(0x4)
00054c f419      	BRNE _0xB4
                 ; 0000 030A a = 33;}}
00054d e2e1      	LDI  R30,LOW(33)
00054e 93e0 0161 	STS  _a,R30
                 _0xB4:
                 ; 0000 030B if(z==-2){
                 _0xB3:
000550 efee      	LDI  R30,LOW(254)
000551 15e6      	CP   R30,R6
000552 f439      	BRNE _0xB5
                 ; 0000 030C if(OSC==8){
000553 91a0 0160 	LDS  R26,_OSC
000555 30a8      	CPI  R26,LOW(0x8)
000556 f419      	BRNE _0xB6
                 ; 0000 030D a = 33;}}
000557 e2e1      	LDI  R30,LOW(33)
000558 93e0 0161 	STS  _a,R30
                 _0xB6:
                 ; 0000 030E if(z==-1){
                 _0xB5:
00055a efef      	LDI  R30,LOW(255)
00055b 15e6      	CP   R30,R6
00055c f439      	BRNE _0xB7
                 ; 0000 030F if(OSC==12){
00055d 91a0 0160 	LDS  R26,_OSC
00055f 30ac      	CPI  R26,LOW(0xC)
000560 f419      	BRNE _0xB8
                 ; 0000 0310 a = 33;}}
000561 e2e1      	LDI  R30,LOW(33)
000562 93e0 0161 	STS  _a,R30
                 _0xB8:
                 ; 0000 0311 if(z==0){
                 _0xB7:
000564 2066      	TST  R6
000565 f439      	BRNE _0xB9
                 ; 0000 0312 if(OSC==16){
000566 91a0 0160 	LDS  R26,_OSC
000568 31a0      	CPI  R26,LOW(0x10)
000569 f419      	BRNE _0xBA
                 ; 0000 0313 a = 33;}}
00056a e2e1      	LDI  R30,LOW(33)
00056b 93e0 0161 	STS  _a,R30
                 _0xBA:
                 ; 0000 0314 if(z==1){
                 _0xB9:
00056d e0e1      	LDI  R30,LOW(1)
00056e 15e6      	CP   R30,R6
00056f f439      	BRNE _0xBB
                 ; 0000 0315 if(OSC==20){
000570 91a0 0160 	LDS  R26,_OSC
000572 31a4      	CPI  R26,LOW(0x14)
000573 f419      	BRNE _0xBC
                 ; 0000 0316 a = 33;}}
000574 e2e1      	LDI  R30,LOW(33)
000575 93e0 0161 	STS  _a,R30
                 _0xBC:
                 ; 0000 0317 if(z==2){
                 _0xBB:
000577 e0e2      	LDI  R30,LOW(2)
000578 15e6      	CP   R30,R6
000579 f439      	BRNE _0xBD
                 ; 0000 0318 if(OSC==24){
00057a 91a0 0160 	LDS  R26,_OSC
00057c 31a8      	CPI  R26,LOW(0x18)
00057d f419      	BRNE _0xBE
                 ; 0000 0319 a = 33;}}
00057e e2e1      	LDI  R30,LOW(33)
00057f 93e0 0161 	STS  _a,R30
                 _0xBE:
                 ; 0000 031A if(z==3){
                 _0xBD:
000581 e0e3      	LDI  R30,LOW(3)
000582 15e6      	CP   R30,R6
000583 f439      	BRNE _0xBF
                 ; 0000 031B if(OSC==28){
000584 91a0 0160 	LDS  R26,_OSC
000586 31ac      	CPI  R26,LOW(0x1C)
000587 f419      	BRNE _0xC0
                 ; 0000 031C a = 33;}}}}}
000588 e2e1      	LDI  R30,LOW(33)
000589 93e0 0161 	STS  _a,R30
                 _0xC0:
                 _0xBF:
                 _0xB0:
                 _0xAE:
00058b 9508      	RET
                 ;
                 ;
                 ;
                 ;void outputai(){
                 ; 0000 0320 void outputai(){
                 _outputai:
                 ; 0000 0321 {if(segm_a==1){
00058c 91a0 0162 	LDS  R26,_segm_a
00058e 30a1      	CPI  R26,LOW(0x1)
00058f f411      	BRNE _0xC1
                 ; 0000 0322 PORTC.6 = 0;}
000590 98ae      	CBI  0x15,6
                 ; 0000 0323 else
000591 c001      	RJMP _0xC4
                 _0xC1:
                 ; 0000 0324 PORTC.6 = 1;}
000592 9aae      	SBI  0x15,6
                 _0xC4:
                 ; 0000 0325 {if(segm_b==1){
000593 91a0 0163 	LDS  R26,_segm_b
000595 30a1      	CPI  R26,LOW(0x1)
000596 f411      	BRNE _0xC7
                 ; 0000 0326 PORTC.0 = 0;}
000597 98a8      	CBI  0x15,0
                 ; 0000 0327 else
000598 c001      	RJMP _0xCA
                 _0xC7:
                 ; 0000 0328 PORTC.0 = 1;}
000599 9aa8      	SBI  0x15,0
                 _0xCA:
                 ; 0000 0329 {if(segm_c==1){
00059a 91a0 0164 	LDS  R26,_segm_c
00059c 30a1      	CPI  R26,LOW(0x1)
00059d f411      	BRNE _0xCD
                 ; 0000 032A PORTC.2 = 0;}
00059e 98aa      	CBI  0x15,2
                 ; 0000 032B else
00059f c001      	RJMP _0xD0
                 _0xCD:
                 ; 0000 032C PORTC.2 = 1;}
0005a0 9aaa      	SBI  0x15,2
                 _0xD0:
                 ; 0000 032D {if(segm_d==1){
0005a1 91a0 0165 	LDS  R26,_segm_d
0005a3 30a1      	CPI  R26,LOW(0x1)
0005a4 f411      	BRNE _0xD3
                 ; 0000 032E PORTC.4 = 0;}
0005a5 98ac      	CBI  0x15,4
                 ; 0000 032F else
0005a6 c001      	RJMP _0xD6
                 _0xD3:
                 ; 0000 0330 PORTC.4 = 1;}
0005a7 9aac      	SBI  0x15,4
                 _0xD6:
                 ; 0000 0331 {if(segm_e==1){
0005a8 91a0 0166 	LDS  R26,_segm_e
0005aa 30a1      	CPI  R26,LOW(0x1)
0005ab f411      	BRNE _0xD9
                 ; 0000 0332 PORTC.5 = 0;}
0005ac 98ad      	CBI  0x15,5
                 ; 0000 0333 else
0005ad c001      	RJMP _0xDC
                 _0xD9:
                 ; 0000 0334 PORTC.5 = 1;}
0005ae 9aad      	SBI  0x15,5
                 _0xDC:
                 ; 0000 0335 {if(segm_f==1){
0005af 91a0 0167 	LDS  R26,_segm_f
0005b1 30a1      	CPI  R26,LOW(0x1)
0005b2 f411      	BRNE _0xDF
                 ; 0000 0336 PORTC.7 = 0;}
0005b3 98af      	CBI  0x15,7
                 ; 0000 0337 else
0005b4 c001      	RJMP _0xE2
                 _0xDF:
                 ; 0000 0338 PORTC.7 = 1;}
0005b5 9aaf      	SBI  0x15,7
                 _0xE2:
                 ; 0000 0339 {if(segm_g==1){
0005b6 91a0 0168 	LDS  R26,_segm_g
0005b8 30a1      	CPI  R26,LOW(0x1)
0005b9 f411      	BRNE _0xE5
                 ; 0000 033A PORTC.1 = 0;}
0005ba 98a9      	CBI  0x15,1
                 ; 0000 033B else
0005bb c001      	RJMP _0xE8
                 _0xE5:
                 ; 0000 033C PORTC.1 = 1;}
0005bc 9aa9      	SBI  0x15,1
                 _0xE8:
                 ; 0000 033D {if(segm_h==1){
0005bd 91a0 0169 	LDS  R26,_segm_h
0005bf 30a1      	CPI  R26,LOW(0x1)
0005c0 f411      	BRNE _0xEB
                 ; 0000 033E PORTC.3 = 0;}
0005c1 98ab      	CBI  0x15,3
                 ; 0000 033F else
0005c2 c001      	RJMP _0xEE
                 _0xEB:
                 ; 0000 0340 PORTC.3 = 1;}
0005c3 9aab      	SBI  0x15,3
                 _0xEE:
                 ; 0000 0341 
                 ; 0000 0342 a = 40;
0005c4 e2e8      	LDI  R30,LOW(40)
0005c5 93e0 0161 	STS  _a,R30
                 ; 0000 0343 segm_a = 0;
0005c7 940e 165f 	CALL SUBOPT_0x11
                 ; 0000 0344 segm_b = 0;
                 ; 0000 0345 segm_c = 0;
0005c9 940e 168f 	CALL SUBOPT_0x17
                 ; 0000 0346 segm_d = 0;
                 ; 0000 0347 segm_e = 0;
0005cb 940e 165b 	CALL SUBOPT_0x10
                 ; 0000 0348 segm_f = 0;
                 ; 0000 0349 segm_g = 0;
                 ; 0000 034A segm_h = 0;
0005cd e0e0      	LDI  R30,LOW(0)
0005ce 93e0 0169 	STS  _segm_h,R30
                 ; 0000 034B 
                 ; 0000 034C PORTA.1 = 0;   // A
0005d0 98d9      	CBI  0x1B,1
                 ; 0000 034D PORTA.4 = 0;   // B
0005d1 98dc      	CBI  0x1B,4
                 ; 0000 034E PORTA.3 = 0;   // C
0005d2 98db      	CBI  0x1B,3
                 ; 0000 034F PORTA.2 = 0;   // D
0005d3 98da      	CBI  0x1B,2
                 ; 0000 0350 
                 ; 0000 0351 if(OSC==0){
0005d4 91e0 0160 	LDS  R30,_OSC
0005d6 30e0      	CPI  R30,0
0005d7 f421      	BRNE _0xF9
                 ; 0000 0352 PORTA.1 = 0;
0005d8 98d9      	CBI  0x1B,1
                 ; 0000 0353 PORTA.4 = 0;
0005d9 98dc      	CBI  0x1B,4
                 ; 0000 0354 PORTA.3 = 1;
0005da 9adb      	SBI  0x1B,3
                 ; 0000 0355 PORTA.2 = 0;}
0005db 98da      	CBI  0x1B,2
                 ; 0000 0356 if(OSC==4){
                 _0xF9:
0005dc 91a0 0160 	LDS  R26,_OSC
0005de 30a4      	CPI  R26,LOW(0x4)
0005df f421      	BRNE _0x102
                 ; 0000 0357 PORTA.1 = 1;
0005e0 9ad9      	SBI  0x1B,1
                 ; 0000 0358 PORTA.4 = 1;
0005e1 9adc      	SBI  0x1B,4
                 ; 0000 0359 PORTA.3 = 0;
0005e2 98db      	CBI  0x1B,3
                 ; 0000 035A PORTA.2 = 0;}
0005e3 98da      	CBI  0x1B,2
                 ; 0000 035B if(OSC==8){
                 _0x102:
0005e4 91a0 0160 	LDS  R26,_OSC
0005e6 30a8      	CPI  R26,LOW(0x8)
0005e7 f421      	BRNE _0x10B
                 ; 0000 035C PORTA.1 = 1;
0005e8 9ad9      	SBI  0x1B,1
                 ; 0000 035D PORTA.4 = 1;
0005e9 9adc      	SBI  0x1B,4
                 ; 0000 035E PORTA.3 = 1;
0005ea 9adb      	SBI  0x1B,3
                 ; 0000 035F PORTA.2 = 0;}
0005eb 98da      	CBI  0x1B,2
                 ; 0000 0360 if(OSC==12){
                 _0x10B:
0005ec 91a0 0160 	LDS  R26,_OSC
0005ee 30ac      	CPI  R26,LOW(0xC)
0005ef f421      	BRNE _0x114
                 ; 0000 0361 PORTA.1 = 0;
0005f0 98d9      	CBI  0x1B,1
                 ; 0000 0362 PORTA.4 = 1;
0005f1 9adc      	SBI  0x1B,4
                 ; 0000 0363 PORTA.3 = 0;
0005f2 98db      	CBI  0x1B,3
                 ; 0000 0364 PORTA.2 = 0;}
0005f3 98da      	CBI  0x1B,2
                 ; 0000 0365 if(OSC==16){
                 _0x114:
0005f4 91a0 0160 	LDS  R26,_OSC
0005f6 31a0      	CPI  R26,LOW(0x10)
0005f7 f421      	BRNE _0x11D
                 ; 0000 0366 PORTA.1 = 0;
0005f8 98d9      	CBI  0x1B,1
                 ; 0000 0367 PORTA.4 = 1;
0005f9 9adc      	SBI  0x1B,4
                 ; 0000 0368 PORTA.3 = 1;
0005fa 9adb      	SBI  0x1B,3
                 ; 0000 0369 PORTA.2 = 0;}
0005fb 98da      	CBI  0x1B,2
                 ; 0000 036A if(OSC==20){
                 _0x11D:
0005fc 91a0 0160 	LDS  R26,_OSC
0005fe 31a4      	CPI  R26,LOW(0x14)
0005ff f421      	BRNE _0x126
                 ; 0000 036B PORTA.1 = 1;
000600 9ad9      	SBI  0x1B,1
                 ; 0000 036C PORTA.4 = 0;
000601 98dc      	CBI  0x1B,4
                 ; 0000 036D PORTA.3 = 0;
000602 98db      	CBI  0x1B,3
                 ; 0000 036E PORTA.2 = 0;}
000603 98da      	CBI  0x1B,2
                 ; 0000 036F if(OSC==24){
                 _0x126:
000604 91a0 0160 	LDS  R26,_OSC
000606 31a8      	CPI  R26,LOW(0x18)
000607 f421      	BRNE _0x12F
                 ; 0000 0370 PORTA.1 = 1;
000608 9ad9      	SBI  0x1B,1
                 ; 0000 0371 PORTA.4 = 0;
000609 98dc      	CBI  0x1B,4
                 ; 0000 0372 PORTA.3 = 1;
00060a 9adb      	SBI  0x1B,3
                 ; 0000 0373 PORTA.2 = 0;}
00060b 98da      	CBI  0x1B,2
                 ; 0000 0374 if(OSC==28){
                 _0x12F:
00060c 91a0 0160 	LDS  R26,_OSC
00060e 31ac      	CPI  R26,LOW(0x1C)
00060f f421      	BRNE _0x138
                 ; 0000 0375 PORTA.1 = 0;
000610 98d9      	CBI  0x1B,1
                 ; 0000 0376 PORTA.4 = 0;
000611 98dc      	CBI  0x1B,4
                 ; 0000 0377 PORTA.3 = 0;
000612 98db      	CBI  0x1B,3
                 ; 0000 0378 PORTA.2 = 1;}
000613 9ada      	SBI  0x1B,2
                 ; 0000 0379 
                 ; 0000 037A     if(pfet_kairysis==1){
                 _0x138:
000614 91a0 018b 	LDS  R26,_pfet_kairysis
000616 30a1      	CPI  R26,LOW(0x1)
000617 f411      	BRNE _0x141
                 ; 0000 037B     PORTB.1 = 1;
000618 9ac1      	SBI  0x18,1
                 ; 0000 037C     }
                 ; 0000 037D     else{
000619 c001      	RJMP _0x144
                 _0x141:
                 ; 0000 037E     PORTB.1 = 0;
00061a 98c1      	CBI  0x18,1
                 ; 0000 037F     }
                 _0x144:
                 ; 0000 0380 
                 ; 0000 0381     if(pfet_desinysis==1){
00061b 91a0 018c 	LDS  R26,_pfet_desinysis
00061d 30a1      	CPI  R26,LOW(0x1)
00061e f411      	BRNE _0x147
                 ; 0000 0382     PORTB.2 = 1;
00061f 9ac2      	SBI  0x18,2
                 ; 0000 0383     }
                 ; 0000 0384     else{
000620 c001      	RJMP _0x14A
                 _0x147:
                 ; 0000 0385     PORTB.2 = 0;
000621 98c2      	CBI  0x18,2
                 ; 0000 0386     }
                 _0x14A:
                 ; 0000 0387 
                 ; 0000 0388     if(nfet_desinysis==1){
000622 91a0 018e 	LDS  R26,_nfet_desinysis
000624 30a1      	CPI  R26,LOW(0x1)
000625 f411      	BRNE _0x14D
                 ; 0000 0389     PORTB.3 = 1;
000626 9ac3      	SBI  0x18,3
                 ; 0000 038A     }
                 ; 0000 038B     else{
000627 c001      	RJMP _0x150
                 _0x14D:
                 ; 0000 038C     PORTB.3 = 0;
000628 98c3      	CBI  0x18,3
                 ; 0000 038D     }
                 _0x150:
                 ; 0000 038E 
                 ; 0000 038F     if(nfet_kairysis==1){
000629 91a0 018d 	LDS  R26,_nfet_kairysis
00062b 30a1      	CPI  R26,LOW(0x1)
00062c f411      	BRNE _0x153
                 ; 0000 0390     PORTB.4 = 1;
00062d 9ac4      	SBI  0x18,4
                 ; 0000 0391     }
                 ; 0000 0392     else{
00062e c001      	RJMP _0x156
                 _0x153:
                 ; 0000 0393     PORTB.4 = 0;
00062f 98c4      	CBI  0x18,4
                 ; 0000 0394     }
                 _0x156:
                 ; 0000 0395 }
000630 9508      	RET
                 ;
                 ;
                 ;// +
                 ;void dabartinis_laikas(){
                 ; 0000 0399 void dabartinis_laikas(){
                 _dabartinis_laikas:
                 ; 0000 039A if((MYGTUKAS_6==1)&&(REDAGAVIMAS==0)){
000631 91a0 016f 	LDS  R26,_MYGTUKAS_6
000633 30a1      	CPI  R26,LOW(0x1)
000634 f421      	BRNE _0x15A
000635 91a0 017b 	LDS  R26,_REDAGAVIMAS
000637 30a0      	CPI  R26,LOW(0x0)
000638 f009      	BREQ _0x15B
                 _0x15A:
000639 c003      	RJMP _0x159
                 _0x15B:
                 ; 0000 039B REDAGAVIMAS = 1;
00063a 940e 169a 	CALL SUBOPT_0x19
                 ; 0000 039C MYGTUKAS_6 = 0;
                 ; 0000 039D z = 0;}
00063c 2466      	CLR  R6
                 ; 0000 039E if(((MYGTUKAS_6==1)||(MYGTUKAS_3==1))&&(REDAGAVIMAS==1)){
                 _0x159:
00063d 91a0 016f 	LDS  R26,_MYGTUKAS_6
00063f 30a1      	CPI  R26,LOW(0x1)
000640 f021      	BREQ _0x15D
000641 91a0 016c 	LDS  R26,_MYGTUKAS_3
000643 30a1      	CPI  R26,LOW(0x1)
000644 f421      	BRNE _0x15F
                 _0x15D:
000645 91a0 017b 	LDS  R26,_REDAGAVIMAS
000647 30a1      	CPI  R26,LOW(0x1)
000648 f009      	BREQ _0x160
                 _0x15F:
000649 c003      	RJMP _0x15C
                 _0x160:
                 ; 0000 039F REDAGAVIMAS = 0;}
00064a e0e0      	LDI  R30,LOW(0)
00064b 93e0 017b 	STS  _REDAGAVIMAS,R30
                 ; 0000 03A0 MYGTUKAS_6 = 0;
                 _0x15C:
00064d e0e0      	LDI  R30,LOW(0)
00064e 93e0 016f 	STS  _MYGTUKAS_6,R30
                 ; 0000 03A1 
                 ; 0000 03A2 if(REDAGAVIMAS==1){
000650 91a0 017b 	LDS  R26,_REDAGAVIMAS
000652 30a1      	CPI  R26,LOW(0x1)
000653 f011      	BREQ PC+3
000654 940c 06e8 	JMP _0x161
                 ; 0000 03A3 viena_laikrodzio_sekunde = 0;
000656 93e0 0183 	STS  _viena_laikrodzio_sekunde,R30
000658 93e0 0184 	STS  _viena_laikrodzio_sekunde+1,R30
                 ; 0000 03A4 laikrodzio_sekundes = 0;
00065a 93e0 0185 	STS  _laikrodzio_sekundes,R30
                 ; 0000 03A5 
                 ; 0000 03A6 if(MYGTUKAS_2==1){
00065c 91a0 016b 	LDS  R26,_MYGTUKAS_2
00065e 30a1      	CPI  R26,LOW(0x1)
00065f f439      	BRNE _0x162
                 ; 0000 03A7 z = z - 1;
000660 2de6      	MOV  R30,R6
000661 940e 1695 	CALL SUBOPT_0x18
000663 2e6e      	MOV  R6,R30
                 ; 0000 03A8 MYGTUKAS_2 = 0;}
000664 e0e0      	LDI  R30,LOW(0)
000665 93e0 016b 	STS  _MYGTUKAS_2,R30
                 ; 0000 03A9 if(MYGTUKAS_4==1){
                 _0x162:
000667 91a0 016d 	LDS  R26,_MYGTUKAS_4
000669 30a1      	CPI  R26,LOW(0x1)
00066a f409      	BRNE _0x163
                 ; 0000 03AA z = z + 1;}
00066b 9463      	INC  R6
                 ; 0000 03AB if(z<0){
                 _0x163:
00066c e0e0      	LDI  R30,LOW(0)
00066d 166e      	CP   R6,R30
00066e f414      	BRGE _0x164
                 ; 0000 03AC z = 3;}
00066f e0e3      	LDI  R30,LOW(3)
000670 2e6e      	MOV  R6,R30
                 ; 0000 03AD if(z>3){
                 _0x164:
000671 e0e3      	LDI  R30,LOW(3)
000672 15e6      	CP   R30,R6
000673 f40c      	BRGE _0x165
                 ; 0000 03AE z = 0;}
000674 2466      	CLR  R6
                 ; 0000 03AF 
                 ; 0000 03B0 if(z==0){
                 _0x165:
000675 2066      	TST  R6
000676 f4d9      	BRNE _0x166
                 ; 0000 03B1 if(MYGTUKAS_1==1){
000677 91a0 016a 	LDS  R26,_MYGTUKAS_1
000679 30a1      	CPI  R26,LOW(0x1)
00067a f441      	BRNE _0x167
                 ; 0000 03B2 laikrodzio_valandos = laikrodzio_valandos + 10;
00067b 91e0 0187 	LDS  R30,_laikrodzio_valandos
00067d 5fe6      	SUBI R30,-LOW(10)
00067e 93e0 0187 	STS  _laikrodzio_valandos,R30
                 ; 0000 03B3 MYGTUKAS_1 = 0;}
000680 e0e0      	LDI  R30,LOW(0)
000681 93e0 016a 	STS  _MYGTUKAS_1,R30
                 ; 0000 03B4 if(MYGTUKAS_5==1){
                 _0x167:
000683 91a0 016e 	LDS  R26,_MYGTUKAS_5
000685 30a1      	CPI  R26,LOW(0x1)
000686 f459      	BRNE _0x168
                 ; 0000 03B5 laikrodzio_valandos = laikrodzio_valandos - 10;
000687 91e0 0187 	LDS  R30,_laikrodzio_valandos
000689 e0f0      	LDI  R31,0
00068a fde7      	SBRC R30,7
00068b efff      	SER  R31
00068c 973a      	SBIW R30,10
00068d 93e0 0187 	STS  _laikrodzio_valandos,R30
                 ; 0000 03B6 MYGTUKAS_5 = 0;}}
00068f e0e0      	LDI  R30,LOW(0)
000690 93e0 016e 	STS  _MYGTUKAS_5,R30
                 _0x168:
                 ; 0000 03B7 
                 ; 0000 03B8 if(z==1){
                 _0x166:
000692 e0e1      	LDI  R30,LOW(1)
000693 15e6      	CP   R30,R6
000694 f4c9      	BRNE _0x169
                 ; 0000 03B9 if(MYGTUKAS_1==1){
000695 91a0 016a 	LDS  R26,_MYGTUKAS_1
000697 30a1      	CPI  R26,LOW(0x1)
000698 f441      	BRNE _0x16A
                 ; 0000 03BA laikrodzio_valandos = laikrodzio_valandos + 1;
000699 91e0 0187 	LDS  R30,_laikrodzio_valandos
00069b 5fef      	SUBI R30,-LOW(1)
00069c 93e0 0187 	STS  _laikrodzio_valandos,R30
                 ; 0000 03BB MYGTUKAS_1 = 0;}
00069e e0e0      	LDI  R30,LOW(0)
00069f 93e0 016a 	STS  _MYGTUKAS_1,R30
                 ; 0000 03BC if(MYGTUKAS_5==1){
                 _0x16A:
0006a1 91a0 016e 	LDS  R26,_MYGTUKAS_5
0006a3 30a1      	CPI  R26,LOW(0x1)
0006a4 f449      	BRNE _0x16B
                 ; 0000 03BD laikrodzio_valandos = laikrodzio_valandos - 1;
0006a5 91e0 0187 	LDS  R30,_laikrodzio_valandos
0006a7 940e 1695 	CALL SUBOPT_0x18
0006a9 93e0 0187 	STS  _laikrodzio_valandos,R30
                 ; 0000 03BE MYGTUKAS_5 = 0;}}
0006ab e0e0      	LDI  R30,LOW(0)
0006ac 93e0 016e 	STS  _MYGTUKAS_5,R30
                 _0x16B:
                 ; 0000 03BF 
                 ; 0000 03C0 if(z==2){
                 _0x169:
0006ae e0e2      	LDI  R30,LOW(2)
0006af 15e6      	CP   R30,R6
0006b0 f4d9      	BRNE _0x16C
                 ; 0000 03C1 if(MYGTUKAS_1==1){
0006b1 91a0 016a 	LDS  R26,_MYGTUKAS_1
0006b3 30a1      	CPI  R26,LOW(0x1)
0006b4 f441      	BRNE _0x16D
                 ; 0000 03C2 laikrodzio_minutes = laikrodzio_minutes + 10;
0006b5 91e0 0186 	LDS  R30,_laikrodzio_minutes
0006b7 5fe6      	SUBI R30,-LOW(10)
0006b8 93e0 0186 	STS  _laikrodzio_minutes,R30
                 ; 0000 03C3 MYGTUKAS_1 = 0;}
0006ba e0e0      	LDI  R30,LOW(0)
0006bb 93e0 016a 	STS  _MYGTUKAS_1,R30
                 ; 0000 03C4 if(MYGTUKAS_5==1){
                 _0x16D:
0006bd 91a0 016e 	LDS  R26,_MYGTUKAS_5
0006bf 30a1      	CPI  R26,LOW(0x1)
0006c0 f459      	BRNE _0x16E
                 ; 0000 03C5 laikrodzio_minutes = laikrodzio_minutes - 10;
0006c1 91e0 0186 	LDS  R30,_laikrodzio_minutes
0006c3 e0f0      	LDI  R31,0
0006c4 fde7      	SBRC R30,7
0006c5 efff      	SER  R31
0006c6 973a      	SBIW R30,10
0006c7 93e0 0186 	STS  _laikrodzio_minutes,R30
                 ; 0000 03C6 MYGTUKAS_5 = 0;}}
0006c9 e0e0      	LDI  R30,LOW(0)
0006ca 93e0 016e 	STS  _MYGTUKAS_5,R30
                 _0x16E:
                 ; 0000 03C7 
                 ; 0000 03C8 if(z==3){
                 _0x16C:
0006cc e0e3      	LDI  R30,LOW(3)
0006cd 15e6      	CP   R30,R6
0006ce f4c9      	BRNE _0x16F
                 ; 0000 03C9 if(MYGTUKAS_1==1){
0006cf 91a0 016a 	LDS  R26,_MYGTUKAS_1
0006d1 30a1      	CPI  R26,LOW(0x1)
0006d2 f441      	BRNE _0x170
                 ; 0000 03CA laikrodzio_minutes = laikrodzio_minutes + 1;
0006d3 91e0 0186 	LDS  R30,_laikrodzio_minutes
0006d5 5fef      	SUBI R30,-LOW(1)
0006d6 93e0 0186 	STS  _laikrodzio_minutes,R30
                 ; 0000 03CB MYGTUKAS_1 = 0;}
0006d8 e0e0      	LDI  R30,LOW(0)
0006d9 93e0 016a 	STS  _MYGTUKAS_1,R30
                 ; 0000 03CC if(MYGTUKAS_5==1){
                 _0x170:
0006db 91a0 016e 	LDS  R26,_MYGTUKAS_5
0006dd 30a1      	CPI  R26,LOW(0x1)
0006de f449      	BRNE _0x171
                 ; 0000 03CD laikrodzio_minutes = laikrodzio_minutes - 1;
0006df 91e0 0186 	LDS  R30,_laikrodzio_minutes
0006e1 940e 1695 	CALL SUBOPT_0x18
0006e3 93e0 0186 	STS  _laikrodzio_minutes,R30
                 ; 0000 03CE MYGTUKAS_5 = 0;}}}
0006e5 e0e0      	LDI  R30,LOW(0)
0006e6 93e0 016e 	STS  _MYGTUKAS_5,R30
                 _0x171:
                 _0x16F:
                 ; 0000 03CF 
                 ; 0000 03D0 
                 ; 0000 03D1 
                 ; 0000 03D2 
                 ; 0000 03D3 
                 ; 0000 03D4 begancio_uzraso_DABAR_laikas =
                 _0x161:
                 ; 0000 03D5 begancio_uzraso_DABAR_laikas + 1;
0006e8 91e0 0189 	LDS  R30,_begancio_uzraso_DABAR_laikas
0006ea 91f0 018a 	LDS  R31,_begancio_uzraso_DABAR_laikas+1
0006ec 9631      	ADIW R30,1
0006ed 93e0 0189 	STS  _begancio_uzraso_DABAR_laikas,R30
0006ef 93f0 018a 	STS  _begancio_uzraso_DABAR_laikas+1,R31
                 ; 0000 03D6 
                 ; 0000 03D7 if(begancio_uzraso_DABAR_laikas>=
                 ; 0000 03D8 PUSE_SEKUNDES){
0006f1 91a0 0189 	LDS  R26,_begancio_uzraso_DABAR_laikas
0006f3 91b0 018a 	LDS  R27,_begancio_uzraso_DABAR_laikas+1
0006f5 15aa      	CP   R26,R10
0006f6 05bb      	CPC  R27,R11
0006f7 f050      	BRLO _0x172
                 ; 0000 03D9 begancio_uzraso_DABAR_laikas = 0;
0006f8 e0e0      	LDI  R30,LOW(0)
0006f9 93e0 0189 	STS  _begancio_uzraso_DABAR_laikas,R30
0006fb 93e0 018a 	STS  _begancio_uzraso_DABAR_laikas+1,R30
                 ; 0000 03DA begancio_uzraso_DABAR_padetis =
                 ; 0000 03DB begancio_uzraso_DABAR_padetis + 1;}
0006fd 91e0 0188 	LDS  R30,_begancio_uzraso_DABAR_padetis
0006ff 5fef      	SUBI R30,-LOW(1)
000700 93e0 0188 	STS  _begancio_uzraso_DABAR_padetis,R30
                 ; 0000 03DC 
                 ; 0000 03DD if(begancio_uzraso_DABAR_padetis>=10){
                 _0x172:
000702 91a0 0188 	LDS  R26,_begancio_uzraso_DABAR_padetis
000704 30aa      	CPI  R26,LOW(0xA)
000705 f018      	BRLO _0x173
                 ; 0000 03DE begancio_uzraso_DABAR_padetis = 0;}
000706 e0e0      	LDI  R30,LOW(0)
000707 93e0 0188 	STS  _begancio_uzraso_DABAR_padetis,R30
                 ; 0000 03DF 
                 ; 0000 03E0 
                 ; 0000 03E1 if(begancio_uzraso_DABAR_padetis==1){
                 _0x173:
000709 91a0 0188 	LDS  R26,_begancio_uzraso_DABAR_padetis
00070b 30a1      	CPI  R26,LOW(0x1)
00070c f439      	BRNE _0x174
                 ; 0000 03E2 if(OSC==12){
00070d 91a0 0160 	LDS  R26,_OSC
00070f 30ac      	CPI  R26,LOW(0xC)
000710 f419      	BRNE _0x175
                 ; 0000 03E3 a = 14;}}
000711 e0ee      	LDI  R30,LOW(14)
000712 93e0 0161 	STS  _a,R30
                 _0x175:
                 ; 0000 03E4 if(begancio_uzraso_DABAR_padetis==2){
                 _0x174:
000714 91a0 0188 	LDS  R26,_begancio_uzraso_DABAR_padetis
000716 30a2      	CPI  R26,LOW(0x2)
000717 f471      	BRNE _0x176
                 ; 0000 03E5 if(OSC==8){
000718 91a0 0160 	LDS  R26,_OSC
00071a 30a8      	CPI  R26,LOW(0x8)
00071b f419      	BRNE _0x177
                 ; 0000 03E6 a = 14;}
00071c e0ee      	LDI  R30,LOW(14)
00071d 93e0 0161 	STS  _a,R30
                 ; 0000 03E7 if(OSC==12){
                 _0x177:
00071f 91a0 0160 	LDS  R26,_OSC
000721 30ac      	CPI  R26,LOW(0xC)
000722 f419      	BRNE _0x178
                 ; 0000 03E8 a = 10;}}
000723 e0ea      	LDI  R30,LOW(10)
000724 93e0 0161 	STS  _a,R30
                 _0x178:
                 ; 0000 03E9 if(begancio_uzraso_DABAR_padetis==3){
                 _0x176:
000726 91a0 0188 	LDS  R26,_begancio_uzraso_DABAR_padetis
000728 30a3      	CPI  R26,LOW(0x3)
000729 f4a9      	BRNE _0x179
                 ; 0000 03EA if(OSC==4){
00072a 91a0 0160 	LDS  R26,_OSC
00072c 30a4      	CPI  R26,LOW(0x4)
00072d f419      	BRNE _0x17A
                 ; 0000 03EB a = 14;}
00072e e0ee      	LDI  R30,LOW(14)
00072f 93e0 0161 	STS  _a,R30
                 ; 0000 03EC if(OSC==8){
                 _0x17A:
000731 91a0 0160 	LDS  R26,_OSC
000733 30a8      	CPI  R26,LOW(0x8)
000734 f419      	BRNE _0x17B
                 ; 0000 03ED a = 10;}
000735 e0ea      	LDI  R30,LOW(10)
000736 93e0 0161 	STS  _a,R30
                 ; 0000 03EE if(OSC==12){
                 _0x17B:
000738 91a0 0160 	LDS  R26,_OSC
00073a 30ac      	CPI  R26,LOW(0xC)
00073b f419      	BRNE _0x17C
                 ; 0000 03EF a = 11;}}
00073c e0eb      	LDI  R30,LOW(11)
00073d 93e0 0161 	STS  _a,R30
                 _0x17C:
                 ; 0000 03F0 if(begancio_uzraso_DABAR_padetis==4){
                 _0x179:
00073f 91a0 0188 	LDS  R26,_begancio_uzraso_DABAR_padetis
000741 30a4      	CPI  R26,LOW(0x4)
000742 f4e1      	BRNE _0x17D
                 ; 0000 03F1 if(OSC==0){
000743 91e0 0160 	LDS  R30,_OSC
000745 30e0      	CPI  R30,0
000746 f419      	BRNE _0x17E
                 ; 0000 03F2 a = 14;}
000747 e0ee      	LDI  R30,LOW(14)
000748 93e0 0161 	STS  _a,R30
                 ; 0000 03F3 if(OSC==4){
                 _0x17E:
00074a 91a0 0160 	LDS  R26,_OSC
00074c 30a4      	CPI  R26,LOW(0x4)
00074d f419      	BRNE _0x17F
                 ; 0000 03F4 a = 10;}
00074e e0ea      	LDI  R30,LOW(10)
00074f 93e0 0161 	STS  _a,R30
                 ; 0000 03F5 if(OSC==8){
                 _0x17F:
000751 91a0 0160 	LDS  R26,_OSC
000753 30a8      	CPI  R26,LOW(0x8)
000754 f419      	BRNE _0x180
                 ; 0000 03F6 a = 11;}
000755 e0eb      	LDI  R30,LOW(11)
000756 93e0 0161 	STS  _a,R30
                 ; 0000 03F7 if(OSC==12){
                 _0x180:
000758 91a0 0160 	LDS  R26,_OSC
00075a 30ac      	CPI  R26,LOW(0xC)
00075b f419      	BRNE _0x181
                 ; 0000 03F8 a = 10;}}
00075c e0ea      	LDI  R30,LOW(10)
00075d 93e0 0161 	STS  _a,R30
                 _0x181:
                 ; 0000 03F9 if(begancio_uzraso_DABAR_padetis==5){
                 _0x17D:
00075f 91a0 0188 	LDS  R26,_begancio_uzraso_DABAR_padetis
000761 30a5      	CPI  R26,LOW(0x5)
000762 f4e1      	BRNE _0x182
                 ; 0000 03FA if(OSC==0){
000763 91e0 0160 	LDS  R30,_OSC
000765 30e0      	CPI  R30,0
000766 f419      	BRNE _0x183
                 ; 0000 03FB a = 10;}
000767 e0ea      	LDI  R30,LOW(10)
000768 93e0 0161 	STS  _a,R30
                 ; 0000 03FC if(OSC==4){
                 _0x183:
00076a 91a0 0160 	LDS  R26,_OSC
00076c 30a4      	CPI  R26,LOW(0x4)
00076d f419      	BRNE _0x184
                 ; 0000 03FD a = 11;}
00076e e0eb      	LDI  R30,LOW(11)
00076f 93e0 0161 	STS  _a,R30
                 ; 0000 03FE if(OSC==8){
                 _0x184:
000771 91a0 0160 	LDS  R26,_OSC
000773 30a8      	CPI  R26,LOW(0x8)
000774 f419      	BRNE _0x185
                 ; 0000 03FF a = 10;}
000775 e0ea      	LDI  R30,LOW(10)
000776 93e0 0161 	STS  _a,R30
                 ; 0000 0400 if(OSC==12){
                 _0x185:
000778 91a0 0160 	LDS  R26,_OSC
00077a 30ac      	CPI  R26,LOW(0xC)
00077b f419      	BRNE _0x186
                 ; 0000 0401 a = 30;}}
00077c e1ee      	LDI  R30,LOW(30)
00077d 93e0 0161 	STS  _a,R30
                 _0x186:
                 ; 0000 0402 if(begancio_uzraso_DABAR_padetis==6){
                 _0x182:
00077f 91a0 0188 	LDS  R26,_begancio_uzraso_DABAR_padetis
000781 30a6      	CPI  R26,LOW(0x6)
000782 f4a9      	BRNE _0x187
                 ; 0000 0403 if(OSC==0){
000783 91e0 0160 	LDS  R30,_OSC
000785 30e0      	CPI  R30,0
000786 f419      	BRNE _0x188
                 ; 0000 0404 a = 11;}
000787 e0eb      	LDI  R30,LOW(11)
000788 93e0 0161 	STS  _a,R30
                 ; 0000 0405 if(OSC==4){
                 _0x188:
00078a 91a0 0160 	LDS  R26,_OSC
00078c 30a4      	CPI  R26,LOW(0x4)
00078d f419      	BRNE _0x189
                 ; 0000 0406 a = 10;}
00078e e0ea      	LDI  R30,LOW(10)
00078f 93e0 0161 	STS  _a,R30
                 ; 0000 0407 if(OSC==8){
                 _0x189:
000791 91a0 0160 	LDS  R26,_OSC
000793 30a8      	CPI  R26,LOW(0x8)
000794 f419      	BRNE _0x18A
                 ; 0000 0408 a = 30;}}
000795 e1ee      	LDI  R30,LOW(30)
000796 93e0 0161 	STS  _a,R30
                 _0x18A:
                 ; 0000 0409 if(begancio_uzraso_DABAR_padetis==7){
                 _0x187:
000798 91a0 0188 	LDS  R26,_begancio_uzraso_DABAR_padetis
00079a 30a7      	CPI  R26,LOW(0x7)
00079b f471      	BRNE _0x18B
                 ; 0000 040A if(OSC==0){
00079c 91e0 0160 	LDS  R30,_OSC
00079e 30e0      	CPI  R30,0
00079f f419      	BRNE _0x18C
                 ; 0000 040B a = 10;}
0007a0 e0ea      	LDI  R30,LOW(10)
0007a1 93e0 0161 	STS  _a,R30
                 ; 0000 040C if(OSC==4){
                 _0x18C:
0007a3 91a0 0160 	LDS  R26,_OSC
0007a5 30a4      	CPI  R26,LOW(0x4)
0007a6 f419      	BRNE _0x18D
                 ; 0000 040D a = 30;}}
0007a7 e1ee      	LDI  R30,LOW(30)
0007a8 93e0 0161 	STS  _a,R30
                 _0x18D:
                 ; 0000 040E if(begancio_uzraso_DABAR_padetis==8){
                 _0x18B:
0007aa 91a0 0188 	LDS  R26,_begancio_uzraso_DABAR_padetis
0007ac 30a8      	CPI  R26,LOW(0x8)
0007ad f439      	BRNE _0x18E
                 ; 0000 040F if(OSC==0){
0007ae 91e0 0160 	LDS  R30,_OSC
0007b0 30e0      	CPI  R30,0
0007b1 f419      	BRNE _0x18F
                 ; 0000 0410 a = 30;}}
0007b2 e1ee      	LDI  R30,LOW(30)
0007b3 93e0 0161 	STS  _a,R30
                 _0x18F:
                 ; 0000 0411 
                 ; 0000 0412 if((OSC==12)&&(viena_laikrodzio_sekunde<=PUSE_SEKUNDES)){
                 _0x18E:
0007b5 91a0 0160 	LDS  R26,_OSC
0007b7 30ac      	CPI  R26,LOW(0xC)
0007b8 f429      	BRNE _0x191
0007b9 940e 16a1 	CALL SUBOPT_0x1A
0007bb 16aa      	CP   R10,R26
0007bc 06bb      	CPC  R11,R27
0007bd f408      	BRSH _0x192
                 _0x191:
0007be c003      	RJMP _0x190
                 _0x192:
                 ; 0000 0413 segm_h = 1;}
0007bf e0e1      	LDI  R30,LOW(1)
0007c0 93e0 0169 	STS  _segm_h,R30
                 ; 0000 0414 if(OSC==16){
                 _0x190:
0007c2 91a0 0160 	LDS  R26,_OSC
0007c4 31a0      	CPI  R26,LOW(0x10)
0007c5 f421      	BRNE _0x193
                 ; 0000 0415 a = laikrodzio_valandos / 10;}
0007c6 940e 16a6 	CALL SUBOPT_0x1B
0007c8 93e0 0161 	STS  _a,R30
                 ; 0000 0416 if(OSC==20){
                 _0x193:
0007ca 91a0 0160 	LDS  R26,_OSC
0007cc 31a4      	CPI  R26,LOW(0x14)
0007cd f469      	BRNE _0x194
                 ; 0000 0417 segm_h = 1;
0007ce e0e1      	LDI  R30,LOW(1)
0007cf 93e0 0169 	STS  _segm_h,R30
                 ; 0000 0418 a = laikrodzio_valandos - (laikrodzio_valandos / 10) * 10;}
0007d1 91e0 0187 	LDS  R30,_laikrodzio_valandos
0007d3 e0f0      	LDI  R31,0
0007d4 fde7      	SBRC R30,7
0007d5 efff      	SER  R31
0007d6 01bf      	MOVW R22,R30
0007d7 940e 16a6 	CALL SUBOPT_0x1B
0007d9 940e 16b0 	CALL SUBOPT_0x1C
                 ; 0000 0419 if(OSC==24){
                 _0x194:
0007db 91a0 0160 	LDS  R26,_OSC
0007dd 31a8      	CPI  R26,LOW(0x18)
0007de f421      	BRNE _0x195
                 ; 0000 041A a = laikrodzio_minutes / 10;}
0007df 940e 16bb 	CALL SUBOPT_0x1D
0007e1 93e0 0161 	STS  _a,R30
                 ; 0000 041B if(OSC==28){
                 _0x195:
0007e3 91a0 0160 	LDS  R26,_OSC
0007e5 31ac      	CPI  R26,LOW(0x1C)
0007e6 f451      	BRNE _0x196
                 ; 0000 041C a = laikrodzio_minutes - (laikrodzio_minutes / 10) * 10;}}
0007e7 91e0 0186 	LDS  R30,_laikrodzio_minutes
0007e9 e0f0      	LDI  R31,0
0007ea fde7      	SBRC R30,7
0007eb efff      	SER  R31
0007ec 01bf      	MOVW R22,R30
0007ed 940e 16bb 	CALL SUBOPT_0x1D
0007ef 940e 16b0 	CALL SUBOPT_0x1C
                 _0x196:
0007f1 9508      	RET
                 ;
                 ;
                 ;// +
                 ;void sekundes_trukmes_keitimas(){
                 ; 0000 0420 void sekundes_trukmes_keitimas(){
                 _sekundes_trukmes_keitimas:
                 ; 0000 0421 if((MYGTUKAS_6==1)&&(REDAGAVIMAS==0)){
0007f2 91a0 016f 	LDS  R26,_MYGTUKAS_6
0007f4 30a1      	CPI  R26,LOW(0x1)
0007f5 f421      	BRNE _0x198
0007f6 91a0 017b 	LDS  R26,_REDAGAVIMAS
0007f8 30a0      	CPI  R26,LOW(0x0)
0007f9 f009      	BREQ _0x199
                 _0x198:
0007fa c004      	RJMP _0x197
                 _0x199:
                 ; 0000 0422 REDAGAVIMAS = 1;
0007fb 940e 169a 	CALL SUBOPT_0x19
                 ; 0000 0423 MYGTUKAS_6 = 0;
                 ; 0000 0424 z = -1;}
0007fd efef      	LDI  R30,LOW(255)
0007fe 2e6e      	MOV  R6,R30
                 ; 0000 0425 if(((MYGTUKAS_6==1)||(MYGTUKAS_3==1))&&(REDAGAVIMAS==1)){
                 _0x197:
0007ff 91a0 016f 	LDS  R26,_MYGTUKAS_6
000801 30a1      	CPI  R26,LOW(0x1)
000802 f021      	BREQ _0x19B
000803 91a0 016c 	LDS  R26,_MYGTUKAS_3
000805 30a1      	CPI  R26,LOW(0x1)
000806 f421      	BRNE _0x19D
                 _0x19B:
000807 91a0 017b 	LDS  R26,_REDAGAVIMAS
000809 30a1      	CPI  R26,LOW(0x1)
00080a f009      	BREQ _0x19E
                 _0x19D:
00080b c007      	RJMP _0x19A
                 _0x19E:
                 ; 0000 0426 REDAGAVIMAS = 0;
00080c e0e0      	LDI  R30,LOW(0)
00080d 93e0 017b 	STS  _REDAGAVIMAS,R30
                 ; 0000 0427 MYGTUKAS_6 = 0;
00080f 93e0 016f 	STS  _MYGTUKAS_6,R30
                 ; 0000 0428 MYGTUKAS_3 = 0;}
000811 93e0 016c 	STS  _MYGTUKAS_3,R30
                 ; 0000 0429 
                 ; 0000 042A if(REDAGAVIMAS==1){
                 _0x19A:
000813 91a0 017b 	LDS  R26,_REDAGAVIMAS
000815 30a1      	CPI  R26,LOW(0x1)
000816 f011      	BREQ PC+3
000817 940c 08d6 	JMP _0x19F
                 ; 0000 042B if(MYGTUKAS_2==1){
000819 91a0 016b 	LDS  R26,_MYGTUKAS_2
00081b 30a1      	CPI  R26,LOW(0x1)
00081c f439      	BRNE _0x1A0
                 ; 0000 042C z = z - 1;
00081d 2de6      	MOV  R30,R6
00081e 940e 1695 	CALL SUBOPT_0x18
000820 2e6e      	MOV  R6,R30
                 ; 0000 042D MYGTUKAS_2 = 0;}
000821 e0e0      	LDI  R30,LOW(0)
000822 93e0 016b 	STS  _MYGTUKAS_2,R30
                 ; 0000 042E if(MYGTUKAS_4==1){
                 _0x1A0:
000824 91a0 016d 	LDS  R26,_MYGTUKAS_4
000826 30a1      	CPI  R26,LOW(0x1)
000827 f421      	BRNE _0x1A1
                 ; 0000 042F z = z + 1;
000828 9463      	INC  R6
                 ; 0000 0430 MYGTUKAS_4 = 0;}
000829 e0e0      	LDI  R30,LOW(0)
00082a 93e0 016d 	STS  _MYGTUKAS_4,R30
                 ; 0000 0431 
                 ; 0000 0432 if(z==-2){
                 _0x1A1:
00082c efee      	LDI  R30,LOW(254)
00082d 15e6      	CP   R30,R6
00082e f411      	BRNE _0x1A2
                 ; 0000 0433 z = 3;}
00082f e0e3      	LDI  R30,LOW(3)
000830 2e6e      	MOV  R6,R30
                 ; 0000 0434 if(z==4){
                 _0x1A2:
000831 e0e4      	LDI  R30,LOW(4)
000832 15e6      	CP   R30,R6
000833 f411      	BRNE _0x1A3
                 ; 0000 0435 z = -1;}
000834 efef      	LDI  R30,LOW(255)
000835 2e6e      	MOV  R6,R30
                 ; 0000 0436 
                 ; 0000 0437 
                 ; 0000 0438 if(z==-1){
                 _0x1A3:
000836 efef      	LDI  R30,LOW(255)
000837 15e6      	CP   R30,R6
000838 f4f1      	BRNE _0x1A4
                 ; 0000 0439 if((MYGTUKAS_1==1)&&(VIENA_SEKUNDE<=55530)){
000839 91a0 016a 	LDS  R26,_MYGTUKAS_1
00083b 30a1      	CPI  R26,LOW(0x1)
00083c f429      	BRNE _0x1A6
00083d eeea      	LDI  R30,LOW(55530)
00083e edf8      	LDI  R31,HIGH(55530)
00083f 15e8      	CP   R30,R8
000840 05f9      	CPC  R31,R9
000841 f408      	BRSH _0x1A7
                 _0x1A6:
000842 c004      	RJMP _0x1A5
                 _0x1A7:
                 ; 0000 043A VIENA_SEKUNDE = VIENA_SEKUNDE + 10000;}
000843 01f4      	MOVW R30,R8
000844 5fe0      	SUBI R30,LOW(-10000)
000845 4df8      	SBCI R31,HIGH(-10000)
000846 014f      	MOVW R8,R30
                 ; 0000 043B if((MYGTUKAS_5==1)&&(VIENA_SEKUNDE>10000)){
                 _0x1A5:
000847 91a0 016e 	LDS  R26,_MYGTUKAS_5
000849 30a1      	CPI  R26,LOW(0x1)
00084a f429      	BRNE _0x1A9
00084b e1e0      	LDI  R30,LOW(10000)
00084c e2f7      	LDI  R31,HIGH(10000)
00084d 15e8      	CP   R30,R8
00084e 05f9      	CPC  R31,R9
00084f f008      	BRLO _0x1AA
                 _0x1A9:
000850 c004      	RJMP _0x1A8
                 _0x1AA:
                 ; 0000 043C VIENA_SEKUNDE = VIENA_SEKUNDE - 10000;}
000851 e1e0      	LDI  R30,LOW(10000)
000852 e2f7      	LDI  R31,HIGH(10000)
                +
000853 1a8e     +SUB R8 , R30
000854 0a9f     +SBC R9 , R31
                 	__SUBWRR 8,9,30,31
                 ; 0000 043D MYGTUKAS_1 = 0;
                 _0x1A8:
000855 940e 16c5 	CALL SUBOPT_0x1E
                 ; 0000 043E MYGTUKAS_5 = 0;}
                 ; 0000 043F 
                 ; 0000 0440 if(z==0){
                 _0x1A4:
000857 2066      	TST  R6
000858 f4f1      	BRNE _0x1AB
                 ; 0000 0441 if((MYGTUKAS_1==1)&&(VIENA_SEKUNDE<=64530)){
000859 91a0 016a 	LDS  R26,_MYGTUKAS_1
00085b 30a1      	CPI  R26,LOW(0x1)
00085c f429      	BRNE _0x1AD
00085d e1e2      	LDI  R30,LOW(64530)
00085e effc      	LDI  R31,HIGH(64530)
00085f 15e8      	CP   R30,R8
000860 05f9      	CPC  R31,R9
000861 f408      	BRSH _0x1AE
                 _0x1AD:
000862 c004      	RJMP _0x1AC
                 _0x1AE:
                 ; 0000 0442 VIENA_SEKUNDE = VIENA_SEKUNDE + 1000;}
000863 01f4      	MOVW R30,R8
000864 51e8      	SUBI R30,LOW(-1000)
000865 4ffc      	SBCI R31,HIGH(-1000)
000866 014f      	MOVW R8,R30
                 ; 0000 0443 if((MYGTUKAS_5==1)&&(VIENA_SEKUNDE>1000)){
                 _0x1AC:
000867 91a0 016e 	LDS  R26,_MYGTUKAS_5
000869 30a1      	CPI  R26,LOW(0x1)
00086a f429      	BRNE _0x1B0
00086b eee8      	LDI  R30,LOW(1000)
00086c e0f3      	LDI  R31,HIGH(1000)
00086d 15e8      	CP   R30,R8
00086e 05f9      	CPC  R31,R9
00086f f008      	BRLO _0x1B1
                 _0x1B0:
000870 c004      	RJMP _0x1AF
                 _0x1B1:
                 ; 0000 0444 VIENA_SEKUNDE = VIENA_SEKUNDE - 1000;}
000871 eee8      	LDI  R30,LOW(1000)
000872 e0f3      	LDI  R31,HIGH(1000)
                +
000873 1a8e     +SUB R8 , R30
000874 0a9f     +SBC R9 , R31
                 	__SUBWRR 8,9,30,31
                 ; 0000 0445 MYGTUKAS_1 = 0;
                 _0x1AF:
000875 940e 16c5 	CALL SUBOPT_0x1E
                 ; 0000 0446 MYGTUKAS_5 = 0;}
                 ; 0000 0447 
                 ; 0000 0448 if(z==1){
                 _0x1AB:
000877 e0e1      	LDI  R30,LOW(1)
000878 15e6      	CP   R30,R6
000879 f4f1      	BRNE _0x1B2
                 ; 0000 0449 if((MYGTUKAS_1==1)&&(VIENA_SEKUNDE<=65430)){
00087a 91a0 016a 	LDS  R26,_MYGTUKAS_1
00087c 30a1      	CPI  R26,LOW(0x1)
00087d f429      	BRNE _0x1B4
00087e e9e6      	LDI  R30,LOW(65430)
00087f efff      	LDI  R31,HIGH(65430)
000880 15e8      	CP   R30,R8
000881 05f9      	CPC  R31,R9
000882 f408      	BRSH _0x1B5
                 _0x1B4:
000883 c004      	RJMP _0x1B3
                 _0x1B5:
                 ; 0000 044A VIENA_SEKUNDE = VIENA_SEKUNDE + 100;}
000884 01f4      	MOVW R30,R8
000885 59ec      	SUBI R30,LOW(-100)
000886 4fff      	SBCI R31,HIGH(-100)
000887 014f      	MOVW R8,R30
                 ; 0000 044B if((MYGTUKAS_5==1)&&(VIENA_SEKUNDE>100)){
                 _0x1B3:
000888 91a0 016e 	LDS  R26,_MYGTUKAS_5
00088a 30a1      	CPI  R26,LOW(0x1)
00088b f429      	BRNE _0x1B7
00088c e6e4      	LDI  R30,LOW(100)
00088d e0f0      	LDI  R31,HIGH(100)
00088e 15e8      	CP   R30,R8
00088f 05f9      	CPC  R31,R9
000890 f008      	BRLO _0x1B8
                 _0x1B7:
000891 c004      	RJMP _0x1B6
                 _0x1B8:
                 ; 0000 044C VIENA_SEKUNDE = VIENA_SEKUNDE - 100;}
000892 e6e4      	LDI  R30,LOW(100)
000893 e0f0      	LDI  R31,HIGH(100)
                +
000894 1a8e     +SUB R8 , R30
000895 0a9f     +SBC R9 , R31
                 	__SUBWRR 8,9,30,31
                 ; 0000 044D MYGTUKAS_1 = 0;
                 _0x1B6:
000896 940e 16c5 	CALL SUBOPT_0x1E
                 ; 0000 044E MYGTUKAS_5 = 0;}
                 ; 0000 044F 
                 ; 0000 0450 if(z==2){
                 _0x1B2:
000898 e0e2      	LDI  R30,LOW(2)
000899 15e6      	CP   R30,R6
00089a f4e1      	BRNE _0x1B9
                 ; 0000 0451 if((MYGTUKAS_1==1)&&(VIENA_SEKUNDE<=65520)){
00089b 91a0 016a 	LDS  R26,_MYGTUKAS_1
00089d 30a1      	CPI  R26,LOW(0x1)
00089e f429      	BRNE _0x1BB
00089f efe0      	LDI  R30,LOW(65520)
0008a0 efff      	LDI  R31,HIGH(65520)
0008a1 15e8      	CP   R30,R8
0008a2 05f9      	CPC  R31,R9
0008a3 f408      	BRSH _0x1BC
                 _0x1BB:
0008a4 c003      	RJMP _0x1BA
                 _0x1BC:
                 ; 0000 0452 VIENA_SEKUNDE = VIENA_SEKUNDE + 10;}
0008a5 01f4      	MOVW R30,R8
0008a6 963a      	ADIW R30,10
0008a7 014f      	MOVW R8,R30
                 ; 0000 0453 if((MYGTUKAS_5==1)&&(VIENA_SEKUNDE>10)){
                 _0x1BA:
0008a8 91a0 016e 	LDS  R26,_MYGTUKAS_5
0008aa 30a1      	CPI  R26,LOW(0x1)
0008ab f429      	BRNE _0x1BE
0008ac e0ea      	LDI  R30,LOW(10)
0008ad e0f0      	LDI  R31,HIGH(10)
0008ae 15e8      	CP   R30,R8
0008af 05f9      	CPC  R31,R9
0008b0 f008      	BRLO _0x1BF
                 _0x1BE:
0008b1 c003      	RJMP _0x1BD
                 _0x1BF:
                 ; 0000 0454 VIENA_SEKUNDE = VIENA_SEKUNDE - 10;}
0008b2 01f4      	MOVW R30,R8
0008b3 973a      	SBIW R30,10
0008b4 014f      	MOVW R8,R30
                 ; 0000 0455 MYGTUKAS_1 = 0;
                 _0x1BD:
0008b5 940e 16c5 	CALL SUBOPT_0x1E
                 ; 0000 0456 MYGTUKAS_5 = 0;}
                 ; 0000 0457 
                 ; 0000 0458 if(z==3){
                 _0x1B9:
0008b7 e0e3      	LDI  R30,LOW(3)
0008b8 15e6      	CP   R30,R6
0008b9 f4e1      	BRNE _0x1C0
                 ; 0000 0459 if((MYGTUKAS_1==1)&&(VIENA_SEKUNDE<=65529)){
0008ba 91a0 016a 	LDS  R26,_MYGTUKAS_1
0008bc 30a1      	CPI  R26,LOW(0x1)
0008bd f429      	BRNE _0x1C2
0008be efe9      	LDI  R30,LOW(65529)
0008bf efff      	LDI  R31,HIGH(65529)
0008c0 15e8      	CP   R30,R8
0008c1 05f9      	CPC  R31,R9
0008c2 f408      	BRSH _0x1C3
                 _0x1C2:
0008c3 c003      	RJMP _0x1C1
                 _0x1C3:
                 ; 0000 045A VIENA_SEKUNDE = VIENA_SEKUNDE + 1;}
0008c4 01f4      	MOVW R30,R8
0008c5 9631      	ADIW R30,1
0008c6 014f      	MOVW R8,R30
                 ; 0000 045B if((MYGTUKAS_5==1)&&(VIENA_SEKUNDE>2)){
                 _0x1C1:
0008c7 91a0 016e 	LDS  R26,_MYGTUKAS_5
0008c9 30a1      	CPI  R26,LOW(0x1)
0008ca f429      	BRNE _0x1C5
0008cb e0e2      	LDI  R30,LOW(2)
0008cc e0f0      	LDI  R31,HIGH(2)
0008cd 15e8      	CP   R30,R8
0008ce 05f9      	CPC  R31,R9
0008cf f008      	BRLO _0x1C6
                 _0x1C5:
0008d0 c003      	RJMP _0x1C4
                 _0x1C6:
                 ; 0000 045C VIENA_SEKUNDE = VIENA_SEKUNDE - 1;}
0008d1 01f4      	MOVW R30,R8
0008d2 9731      	SBIW R30,1
0008d3 014f      	MOVW R8,R30
                 ; 0000 045D MYGTUKAS_1 = 0;
                 _0x1C4:
0008d4 940e 16c5 	CALL SUBOPT_0x1E
                 ; 0000 045E MYGTUKAS_5 = 0;}}
                 _0x1C0:
                 ; 0000 045F 
                 ; 0000 0460 
                 ; 0000 0461 if(OSC==0){
                 _0x19F:
0008d6 91e0 0160 	LDS  R30,_OSC
0008d8 30e0      	CPI  R30,0
0008d9 f419      	BRNE _0x1C7
                 ; 0000 0462 a = 5;}
0008da e0e5      	LDI  R30,LOW(5)
0008db 93e0 0161 	STS  _a,R30
                 ; 0000 0463 if(OSC==4){
                 _0x1C7:
0008dd 91a0 0160 	LDS  R26,_OSC
0008df 30a4      	CPI  R26,LOW(0x4)
0008e0 f419      	BRNE _0x1C8
                 ; 0000 0464 a = 15;}
0008e1 e0ef      	LDI  R30,LOW(15)
0008e2 93e0 0161 	STS  _a,R30
                 ; 0000 0465 if(OSC==8){
                 _0x1C8:
0008e4 91a0 0160 	LDS  R26,_OSC
0008e6 30a8      	CPI  R26,LOW(0x8)
0008e7 f451      	BRNE _0x1C9
                 ; 0000 0466 segm_a = 1;
0008e8 e0e1      	LDI  R30,LOW(1)
0008e9 93e0 0162 	STS  _segm_a,R30
                 ; 0000 0467 segm_d = 1;
0008eb 93e0 0165 	STS  _segm_d,R30
                 ; 0000 0468 segm_e = 1;
0008ed 940e 1611 	CALL SUBOPT_0x7
                 ; 0000 0469 segm_f = 1;
                 ; 0000 046A segm_h = 1;}
0008ef e0e1      	LDI  R30,LOW(1)
0008f0 93e0 0169 	STS  _segm_h,R30
                 ; 0000 046B if(OSC==12){
                 _0x1C9:
0008f2 91a0 0160 	LDS  R26,_OSC
0008f4 30ac      	CPI  R26,LOW(0xC)
0008f5 f429      	BRNE _0x1CA
                 ; 0000 046C a = VIENA_SEKUNDE/10000;}
0008f6 01d4      	MOVW R26,R8
0008f7 e1e0      	LDI  R30,LOW(10000)
0008f8 e2f7      	LDI  R31,HIGH(10000)
0008f9 940e 16cb 	CALL SUBOPT_0x1F
                 ; 0000 046D if(OSC==16){
                 _0x1CA:
0008fb 91a0 0160 	LDS  R26,_OSC
0008fd 31a0      	CPI  R26,LOW(0x10)
0008fe f469      	BRNE _0x1CB
                 ; 0000 046E a = (VIENA_SEKUNDE - ((VIENA_SEKUNDE/10000)*10000)) / 1000;}
0008ff 01d4      	MOVW R26,R8
000900 e1e0      	LDI  R30,LOW(10000)
000901 e2f7      	LDI  R31,HIGH(10000)
000902 940e 16f4 	CALL __DIVW21U
000904 e1a0      	LDI  R26,LOW(10000)
000905 e2b7      	LDI  R27,HIGH(10000)
000906 940e 16d0 	CALL SUBOPT_0x20
000908 eee8      	LDI  R30,LOW(1000)
000909 e0f3      	LDI  R31,HIGH(1000)
00090a 940e 16cb 	CALL SUBOPT_0x1F
                 ; 0000 046F if(OSC==20){
                 _0x1CB:
00090c 91a0 0160 	LDS  R26,_OSC
00090e 31a4      	CPI  R26,LOW(0x14)
00090f f469      	BRNE _0x1CC
                 ; 0000 0470 a = (VIENA_SEKUNDE - ((VIENA_SEKUNDE/1000)*1000)) / 100;}
000910 01d4      	MOVW R26,R8
000911 eee8      	LDI  R30,LOW(1000)
000912 e0f3      	LDI  R31,HIGH(1000)
000913 940e 16f4 	CALL __DIVW21U
000915 eea8      	LDI  R26,LOW(1000)
000916 e0b3      	LDI  R27,HIGH(1000)
000917 940e 16d0 	CALL SUBOPT_0x20
000919 e6e4      	LDI  R30,LOW(100)
00091a e0f0      	LDI  R31,HIGH(100)
00091b 940e 16cb 	CALL SUBOPT_0x1F
                 ; 0000 0471 if(OSC==24){
                 _0x1CC:
00091d 91a0 0160 	LDS  R26,_OSC
00091f 31a8      	CPI  R26,LOW(0x18)
000920 f469      	BRNE _0x1CD
                 ; 0000 0472 a = (VIENA_SEKUNDE - ((VIENA_SEKUNDE/100)*100)) / 10;}
000921 01d4      	MOVW R26,R8
000922 e6e4      	LDI  R30,LOW(100)
000923 e0f0      	LDI  R31,HIGH(100)
000924 940e 16f4 	CALL __DIVW21U
000926 e6a4      	LDI  R26,LOW(100)
000927 e0b0      	LDI  R27,HIGH(100)
000928 940e 16d0 	CALL SUBOPT_0x20
00092a e0ea      	LDI  R30,LOW(10)
00092b e0f0      	LDI  R31,HIGH(10)
00092c 940e 16cb 	CALL SUBOPT_0x1F
                 ; 0000 0473 if(OSC==28){
                 _0x1CD:
00092e 91a0 0160 	LDS  R26,_OSC
000930 31ac      	CPI  R26,LOW(0x1C)
000931 f479      	BRNE _0x1CE
                 ; 0000 0474 a = (VIENA_SEKUNDE - (VIENA_SEKUNDE/10)*10);}}
000932 01d4      	MOVW R26,R8
000933 e0ea      	LDI  R30,LOW(10)
000934 e0f0      	LDI  R31,HIGH(10)
000935 940e 16f4 	CALL __DIVW21U
000937 e0aa      	LDI  R26,LOW(10)
000938 e0b0      	LDI  R27,HIGH(10)
000939 940e 16e7 	CALL __MULW12U
00093b 01df      	MOVW R26,R30
00093c 01f4      	MOVW R30,R8
00093d 1bea      	SUB  R30,R26
00093e 0bfb      	SBC  R31,R27
00093f 93e0 0161 	STS  _a,R30
                 _0x1CE:
000941 9508      	RET
                 ;
                 ;
                 ;// +
                 ;void kondensatoriaus_busena(){
                 ; 0000 0478 void kondensatoriaus_busena(){
                 _kondensatoriaus_busena:
                 ; 0000 0479 kondensatoriaus_rodymo_laikas = kondensatoriaus_rodymo_laikas + 1;
000942 91e0 0176 	LDS  R30,_kondensatoriaus_rodymo_laikas
000944 91f0 0177 	LDS  R31,_kondensatoriaus_rodymo_laikas+1
000946 9631      	ADIW R30,1
000947 93e0 0176 	STS  _kondensatoriaus_rodymo_laikas,R30
000949 93f0 0177 	STS  _kondensatoriaus_rodymo_laikas+1,R31
                 ; 0000 047A if(kondensatoriaus_rodymo_laikas>=KETVIRTADALIS_SEKUNDES){
00094b 91a0 0176 	LDS  R26,_kondensatoriaus_rodymo_laikas
00094d 91b0 0177 	LDS  R27,_kondensatoriaus_rodymo_laikas+1
00094f 15ac      	CP   R26,R12
000950 05bd      	CPC  R27,R13
000951 f050      	BRLO _0x1CF
                 ; 0000 047B kondensatoriaus_rodymo_laikas = 0;
000952 e0e0      	LDI  R30,LOW(0)
000953 93e0 0176 	STS  _kondensatoriaus_rodymo_laikas,R30
000955 93e0 0177 	STS  _kondensatoriaus_rodymo_laikas+1,R30
                 ; 0000 047C kondensatoriaus_rodymo_padetis = kondensatoriaus_rodymo_padetis + 1;}
000957 91e0 0175 	LDS  R30,_kondensatoriaus_rodymo_padetis
000959 5fef      	SUBI R30,-LOW(1)
00095a 93e0 0175 	STS  _kondensatoriaus_rodymo_padetis,R30
                 ; 0000 047D 
                 ; 0000 047E if((kondensatorius_pilnas==1)&&(kondensatoriaus_rodymo_padetis==29)){
                 _0x1CF:
00095c 91a0 0174 	LDS  R26,_kondensatorius_pilnas
00095e 30a1      	CPI  R26,LOW(0x1)
00095f f421      	BRNE _0x1D1
000960 91a0 0175 	LDS  R26,_kondensatoriaus_rodymo_padetis
000962 31ad      	CPI  R26,LOW(0x1D)
000963 f009      	BREQ _0x1D2
                 _0x1D1:
000964 c003      	RJMP _0x1D0
                 _0x1D2:
                 ; 0000 047F kondensatoriaus_rodymo_padetis =0;}
000965 e0e0      	LDI  R30,LOW(0)
000966 93e0 0175 	STS  _kondensatoriaus_rodymo_padetis,R30
                 ; 0000 0480 if((kondensatorius_vidutinis==1)&&(kondensatoriaus_rodymo_padetis==27)){
                 _0x1D0:
000968 91a0 0173 	LDS  R26,_kondensatorius_vidutinis
00096a 30a1      	CPI  R26,LOW(0x1)
00096b f421      	BRNE _0x1D4
00096c 91a0 0175 	LDS  R26,_kondensatoriaus_rodymo_padetis
00096e 31ab      	CPI  R26,LOW(0x1B)
00096f f009      	BREQ _0x1D5
                 _0x1D4:
000970 c003      	RJMP _0x1D3
                 _0x1D5:
                 ; 0000 0481 kondensatoriaus_rodymo_padetis = 0;}
000971 e0e0      	LDI  R30,LOW(0)
000972 93e0 0175 	STS  _kondensatoriaus_rodymo_padetis,R30
                 ; 0000 0482 if((kondensatorius_tuscias==1)&&(kondensatoriaus_rodymo_padetis==31)){
                 _0x1D3:
000974 91a0 0172 	LDS  R26,_kondensatorius_tuscias
000976 30a1      	CPI  R26,LOW(0x1)
000977 f421      	BRNE _0x1D7
000978 91a0 0175 	LDS  R26,_kondensatoriaus_rodymo_padetis
00097a 31af      	CPI  R26,LOW(0x1F)
00097b f009      	BREQ _0x1D8
                 _0x1D7:
00097c c003      	RJMP _0x1D6
                 _0x1D8:
                 ; 0000 0483 kondensatoriaus_rodymo_padetis = 0;}
00097d e0e0      	LDI  R30,LOW(0)
00097e 93e0 0175 	STS  _kondensatoriaus_rodymo_padetis,R30
                 ; 0000 0484 
                 ; 0000 0485 if((kondensatorius_tuscias==1)||(kondensatorius_pilnas==1)){
                 _0x1D6:
000980 91a0 0172 	LDS  R26,_kondensatorius_tuscias
000982 30a1      	CPI  R26,LOW(0x1)
000983 f029      	BREQ _0x1DA
000984 91a0 0174 	LDS  R26,_kondensatorius_pilnas
000986 30a1      	CPI  R26,LOW(0x1)
000987 f009      	BREQ _0x1DA
000988 c2b9      	RJMP _0x1D9
                 _0x1DA:
                 ; 0000 0486 if(kondensatoriaus_rodymo_padetis==1){
000989 91a0 0175 	LDS  R26,_kondensatoriaus_rodymo_padetis
00098b 30a1      	CPI  R26,LOW(0x1)
00098c f439      	BRNE _0x1DC
                 ; 0000 0487 if(OSC==28){
00098d 91a0 0160 	LDS  R26,_OSC
00098f 31ac      	CPI  R26,LOW(0x1C)
000990 f419      	BRNE _0x1DD
                 ; 0000 0488 a = 12;}}
000991 e0ec      	LDI  R30,LOW(12)
000992 93e0 0161 	STS  _a,R30
                 _0x1DD:
                 ; 0000 0489 if(kondensatoriaus_rodymo_padetis==2){
                 _0x1DC:
000994 91a0 0175 	LDS  R26,_kondensatoriaus_rodymo_padetis
000996 30a2      	CPI  R26,LOW(0x2)
000997 f471      	BRNE _0x1DE
                 ; 0000 048A if(OSC==24){
000998 91a0 0160 	LDS  R26,_OSC
00099a 31a8      	CPI  R26,LOW(0x18)
00099b f419      	BRNE _0x1DF
                 ; 0000 048B a = 12;}
00099c e0ec      	LDI  R30,LOW(12)
00099d 93e0 0161 	STS  _a,R30
                 ; 0000 048C if(OSC==28){
                 _0x1DF:
00099f 91a0 0160 	LDS  R26,_OSC
0009a1 31ac      	CPI  R26,LOW(0x1C)
0009a2 f419      	BRNE _0x1E0
                 ; 0000 048D a = 23;}}
0009a3 e1e7      	LDI  R30,LOW(23)
0009a4 93e0 0161 	STS  _a,R30
                 _0x1E0:
                 ; 0000 048E if(kondensatoriaus_rodymo_padetis==3){
                 _0x1DE:
0009a6 91a0 0175 	LDS  R26,_kondensatoriaus_rodymo_padetis
0009a8 30a3      	CPI  R26,LOW(0x3)
0009a9 f4a9      	BRNE _0x1E1
                 ; 0000 048F if(OSC==20){
0009aa 91a0 0160 	LDS  R26,_OSC
0009ac 31a4      	CPI  R26,LOW(0x14)
0009ad f419      	BRNE _0x1E2
                 ; 0000 0490 a = 12;}
0009ae e0ec      	LDI  R30,LOW(12)
0009af 93e0 0161 	STS  _a,R30
                 ; 0000 0491 if(OSC==24){
                 _0x1E2:
0009b1 91a0 0160 	LDS  R26,_OSC
0009b3 31a8      	CPI  R26,LOW(0x18)
0009b4 f419      	BRNE _0x1E3
                 ; 0000 0492 a = 23;}
0009b5 e1e7      	LDI  R30,LOW(23)
0009b6 93e0 0161 	STS  _a,R30
                 ; 0000 0493 if(OSC==28){
                 _0x1E3:
0009b8 91a0 0160 	LDS  R26,_OSC
0009ba 31ac      	CPI  R26,LOW(0x1C)
0009bb f419      	BRNE _0x1E4
                 ; 0000 0494 a = 34;}}
0009bc e2e2      	LDI  R30,LOW(34)
0009bd 93e0 0161 	STS  _a,R30
                 _0x1E4:
                 ; 0000 0495 if(kondensatoriaus_rodymo_padetis==4){
                 _0x1E1:
0009bf 91a0 0175 	LDS  R26,_kondensatoriaus_rodymo_padetis
0009c1 30a4      	CPI  R26,LOW(0x4)
0009c2 f4e1      	BRNE _0x1E5
                 ; 0000 0496 if(OSC==16){
0009c3 91a0 0160 	LDS  R26,_OSC
0009c5 31a0      	CPI  R26,LOW(0x10)
0009c6 f419      	BRNE _0x1E6
                 ; 0000 0497 a = 12;}
0009c7 e0ec      	LDI  R30,LOW(12)
0009c8 93e0 0161 	STS  _a,R30
                 ; 0000 0498 if(OSC==20){
                 _0x1E6:
0009ca 91a0 0160 	LDS  R26,_OSC
0009cc 31a4      	CPI  R26,LOW(0x14)
0009cd f419      	BRNE _0x1E7
                 ; 0000 0499 a = 23;}
0009ce e1e7      	LDI  R30,LOW(23)
0009cf 93e0 0161 	STS  _a,R30
                 ; 0000 049A if(OSC==24){
                 _0x1E7:
0009d1 91a0 0160 	LDS  R26,_OSC
0009d3 31a8      	CPI  R26,LOW(0x18)
0009d4 f419      	BRNE _0x1E8
                 ; 0000 049B a = 34;}
0009d5 e2e2      	LDI  R30,LOW(34)
0009d6 93e0 0161 	STS  _a,R30
                 ; 0000 049C if(OSC==28){
                 _0x1E8:
0009d8 91a0 0160 	LDS  R26,_OSC
0009da 31ac      	CPI  R26,LOW(0x1C)
0009db f419      	BRNE _0x1E9
                 ; 0000 049D a = 14;}}
0009dc e0ee      	LDI  R30,LOW(14)
0009dd 93e0 0161 	STS  _a,R30
                 _0x1E9:
                 ; 0000 049E if(kondensatoriaus_rodymo_padetis==5){
                 _0x1E5:
0009df 91a0 0175 	LDS  R26,_kondensatoriaus_rodymo_padetis
0009e1 30a5      	CPI  R26,LOW(0x5)
0009e2 f519      	BRNE _0x1EA
                 ; 0000 049F if(OSC==12){
0009e3 91a0 0160 	LDS  R26,_OSC
0009e5 30ac      	CPI  R26,LOW(0xC)
0009e6 f419      	BRNE _0x1EB
                 ; 0000 04A0 a = 12;}
0009e7 e0ec      	LDI  R30,LOW(12)
0009e8 93e0 0161 	STS  _a,R30
                 ; 0000 04A1 if(OSC==16){
                 _0x1EB:
0009ea 91a0 0160 	LDS  R26,_OSC
0009ec 31a0      	CPI  R26,LOW(0x10)
0009ed f419      	BRNE _0x1EC
                 ; 0000 04A2 a = 23;}
0009ee e1e7      	LDI  R30,LOW(23)
0009ef 93e0 0161 	STS  _a,R30
                 ; 0000 04A3 if(OSC==20){
                 _0x1EC:
0009f1 91a0 0160 	LDS  R26,_OSC
0009f3 31a4      	CPI  R26,LOW(0x14)
0009f4 f419      	BRNE _0x1ED
                 ; 0000 04A4 a = 34;}
0009f5 e2e2      	LDI  R30,LOW(34)
0009f6 93e0 0161 	STS  _a,R30
                 ; 0000 04A5 if(OSC==24){
                 _0x1ED:
0009f8 91a0 0160 	LDS  R26,_OSC
0009fa 31a8      	CPI  R26,LOW(0x18)
0009fb f419      	BRNE _0x1EE
                 ; 0000 04A6 a = 14;}
0009fc e0ee      	LDI  R30,LOW(14)
0009fd 93e0 0161 	STS  _a,R30
                 ; 0000 04A7 if(OSC==28){
                 _0x1EE:
0009ff 91a0 0160 	LDS  R26,_OSC
000a01 31ac      	CPI  R26,LOW(0x1C)
000a02 f419      	BRNE _0x1EF
                 ; 0000 04A8 a = 15;}}
000a03 e0ef      	LDI  R30,LOW(15)
000a04 93e0 0161 	STS  _a,R30
                 _0x1EF:
                 ; 0000 04A9 if(kondensatoriaus_rodymo_padetis==6){
                 _0x1EA:
000a06 91a0 0175 	LDS  R26,_kondensatoriaus_rodymo_padetis
000a08 30a6      	CPI  R26,LOW(0x6)
000a09 f551      	BRNE _0x1F0
                 ; 0000 04AA if(OSC==8){
000a0a 91a0 0160 	LDS  R26,_OSC
000a0c 30a8      	CPI  R26,LOW(0x8)
000a0d f419      	BRNE _0x1F1
                 ; 0000 04AB a = 12;}
000a0e e0ec      	LDI  R30,LOW(12)
000a0f 93e0 0161 	STS  _a,R30
                 ; 0000 04AC if(OSC==12){
                 _0x1F1:
000a11 91a0 0160 	LDS  R26,_OSC
000a13 30ac      	CPI  R26,LOW(0xC)
000a14 f419      	BRNE _0x1F2
                 ; 0000 04AD a = 23;}
000a15 e1e7      	LDI  R30,LOW(23)
000a16 93e0 0161 	STS  _a,R30
                 ; 0000 04AE if(OSC==16){
                 _0x1F2:
000a18 91a0 0160 	LDS  R26,_OSC
000a1a 31a0      	CPI  R26,LOW(0x10)
000a1b f419      	BRNE _0x1F3
                 ; 0000 04AF a = 34;}
000a1c e2e2      	LDI  R30,LOW(34)
000a1d 93e0 0161 	STS  _a,R30
                 ; 0000 04B0 if(OSC==20){
                 _0x1F3:
000a1f 91a0 0160 	LDS  R26,_OSC
000a21 31a4      	CPI  R26,LOW(0x14)
000a22 f419      	BRNE _0x1F4
                 ; 0000 04B1 a = 14;}
000a23 e0ee      	LDI  R30,LOW(14)
000a24 93e0 0161 	STS  _a,R30
                 ; 0000 04B2 if(OSC==24){
                 _0x1F4:
000a26 91a0 0160 	LDS  R26,_OSC
000a28 31a8      	CPI  R26,LOW(0x18)
000a29 f419      	BRNE _0x1F5
                 ; 0000 04B3 a = 15;}
000a2a e0ef      	LDI  R30,LOW(15)
000a2b 93e0 0161 	STS  _a,R30
                 ; 0000 04B4 if(OSC==28){
                 _0x1F5:
000a2d 91a0 0160 	LDS  R26,_OSC
000a2f 31ac      	CPI  R26,LOW(0x1C)
000a30 f419      	BRNE _0x1F6
                 ; 0000 04B5 a = 34;}}
000a31 e2e2      	LDI  R30,LOW(34)
000a32 93e0 0161 	STS  _a,R30
                 _0x1F6:
                 ; 0000 04B6 if(kondensatoriaus_rodymo_padetis==7){
                 _0x1F0:
000a34 91a0 0175 	LDS  R26,_kondensatoriaus_rodymo_padetis
000a36 30a7      	CPI  R26,LOW(0x7)
000a37 f589      	BRNE _0x1F7
                 ; 0000 04B7 if(OSC==4){
000a38 91a0 0160 	LDS  R26,_OSC
000a3a 30a4      	CPI  R26,LOW(0x4)
000a3b f419      	BRNE _0x1F8
                 ; 0000 04B8 a = 12;}
000a3c e0ec      	LDI  R30,LOW(12)
000a3d 93e0 0161 	STS  _a,R30
                 ; 0000 04B9 if(OSC==8){
                 _0x1F8:
000a3f 91a0 0160 	LDS  R26,_OSC
000a41 30a8      	CPI  R26,LOW(0x8)
000a42 f419      	BRNE _0x1F9
                 ; 0000 04BA a = 23;}
000a43 e1e7      	LDI  R30,LOW(23)
000a44 93e0 0161 	STS  _a,R30
                 ; 0000 04BB if(OSC==12){
                 _0x1F9:
000a46 91a0 0160 	LDS  R26,_OSC
000a48 30ac      	CPI  R26,LOW(0xC)
000a49 f419      	BRNE _0x1FA
                 ; 0000 04BC a = 34;}
000a4a e2e2      	LDI  R30,LOW(34)
000a4b 93e0 0161 	STS  _a,R30
                 ; 0000 04BD if(OSC==16){
                 _0x1FA:
000a4d 91a0 0160 	LDS  R26,_OSC
000a4f 31a0      	CPI  R26,LOW(0x10)
000a50 f419      	BRNE _0x1FB
                 ; 0000 04BE a = 14;}
000a51 e0ee      	LDI  R30,LOW(14)
000a52 93e0 0161 	STS  _a,R30
                 ; 0000 04BF if(OSC==20){
                 _0x1FB:
000a54 91a0 0160 	LDS  R26,_OSC
000a56 31a4      	CPI  R26,LOW(0x14)
000a57 f419      	BRNE _0x1FC
                 ; 0000 04C0 a = 15;}
000a58 e0ef      	LDI  R30,LOW(15)
000a59 93e0 0161 	STS  _a,R30
                 ; 0000 04C1 if(OSC==24){
                 _0x1FC:
000a5b 91a0 0160 	LDS  R26,_OSC
000a5d 31a8      	CPI  R26,LOW(0x18)
000a5e f419      	BRNE _0x1FD
                 ; 0000 04C2 a = 34;}
000a5f e2e2      	LDI  R30,LOW(34)
000a60 93e0 0161 	STS  _a,R30
                 ; 0000 04C3 if(OSC==28){
                 _0x1FD:
000a62 91a0 0160 	LDS  R26,_OSC
000a64 31ac      	CPI  R26,LOW(0x1C)
000a65 f419      	BRNE _0x1FE
                 ; 0000 04C4 a = 5;}}
000a66 e0e5      	LDI  R30,LOW(5)
000a67 93e0 0161 	STS  _a,R30
                 _0x1FE:
                 ; 0000 04C5 if(kondensatoriaus_rodymo_padetis==8){
                 _0x1F7:
000a69 91a0 0175 	LDS  R26,_kondensatoriaus_rodymo_padetis
000a6b 30a8      	CPI  R26,LOW(0x8)
000a6c f5c1      	BRNE _0x1FF
                 ; 0000 04C6 if(OSC==0){
000a6d 91e0 0160 	LDS  R30,_OSC
000a6f 30e0      	CPI  R30,0
000a70 f419      	BRNE _0x200
                 ; 0000 04C7 a = 12;}
000a71 e0ec      	LDI  R30,LOW(12)
000a72 93e0 0161 	STS  _a,R30
                 ; 0000 04C8 if(OSC==4){
                 _0x200:
000a74 91a0 0160 	LDS  R26,_OSC
000a76 30a4      	CPI  R26,LOW(0x4)
000a77 f419      	BRNE _0x201
                 ; 0000 04C9 a = 23;}
000a78 e1e7      	LDI  R30,LOW(23)
000a79 93e0 0161 	STS  _a,R30
                 ; 0000 04CA if(OSC==8){
                 _0x201:
000a7b 91a0 0160 	LDS  R26,_OSC
000a7d 30a8      	CPI  R26,LOW(0x8)
000a7e f419      	BRNE _0x202
                 ; 0000 04CB a = 34;}
000a7f e2e2      	LDI  R30,LOW(34)
000a80 93e0 0161 	STS  _a,R30
                 ; 0000 04CC if(OSC==12){
                 _0x202:
000a82 91a0 0160 	LDS  R26,_OSC
000a84 30ac      	CPI  R26,LOW(0xC)
000a85 f419      	BRNE _0x203
                 ; 0000 04CD a = 14;}
000a86 e0ee      	LDI  R30,LOW(14)
000a87 93e0 0161 	STS  _a,R30
                 ; 0000 04CE if(OSC==16){
                 _0x203:
000a89 91a0 0160 	LDS  R26,_OSC
000a8b 31a0      	CPI  R26,LOW(0x10)
000a8c f419      	BRNE _0x204
                 ; 0000 04CF a = 15;}
000a8d e0ef      	LDI  R30,LOW(15)
000a8e 93e0 0161 	STS  _a,R30
                 ; 0000 04D0 if(OSC==20){
                 _0x204:
000a90 91a0 0160 	LDS  R26,_OSC
000a92 31a4      	CPI  R26,LOW(0x14)
000a93 f419      	BRNE _0x205
                 ; 0000 04D1 a = 34;}
000a94 e2e2      	LDI  R30,LOW(34)
000a95 93e0 0161 	STS  _a,R30
                 ; 0000 04D2 if(OSC==24){
                 _0x205:
000a97 91a0 0160 	LDS  R26,_OSC
000a99 31a8      	CPI  R26,LOW(0x18)
000a9a f419      	BRNE _0x206
                 ; 0000 04D3 a = 5;}
000a9b e0e5      	LDI  R30,LOW(5)
000a9c 93e0 0161 	STS  _a,R30
                 ; 0000 04D4 if(OSC==28){
                 _0x206:
000a9e 91a0 0160 	LDS  R26,_OSC
000aa0 31ac      	CPI  R26,LOW(0x1C)
000aa1 f419      	BRNE _0x207
                 ; 0000 04D5 a = 10;}}
000aa2 e0ea      	LDI  R30,LOW(10)
000aa3 93e0 0161 	STS  _a,R30
                 _0x207:
                 ; 0000 04D6 if(kondensatoriaus_rodymo_padetis==9){
                 _0x1FF:
000aa5 91a0 0175 	LDS  R26,_kondensatoriaus_rodymo_padetis
000aa7 30a9      	CPI  R26,LOW(0x9)
000aa8 f5c1      	BRNE _0x208
                 ; 0000 04D7 if(OSC==0){
000aa9 91e0 0160 	LDS  R30,_OSC
000aab 30e0      	CPI  R30,0
000aac f419      	BRNE _0x209
                 ; 0000 04D8 a = 23;}
000aad e1e7      	LDI  R30,LOW(23)
000aae 93e0 0161 	STS  _a,R30
                 ; 0000 04D9 if(OSC==4){
                 _0x209:
000ab0 91a0 0160 	LDS  R26,_OSC
000ab2 30a4      	CPI  R26,LOW(0x4)
000ab3 f419      	BRNE _0x20A
                 ; 0000 04DA a = 34;}
000ab4 e2e2      	LDI  R30,LOW(34)
000ab5 93e0 0161 	STS  _a,R30
                 ; 0000 04DB if(OSC==8){
                 _0x20A:
000ab7 91a0 0160 	LDS  R26,_OSC
000ab9 30a8      	CPI  R26,LOW(0x8)
000aba f419      	BRNE _0x20B
                 ; 0000 04DC a = 14;}
000abb e0ee      	LDI  R30,LOW(14)
000abc 93e0 0161 	STS  _a,R30
                 ; 0000 04DD if(OSC==12){
                 _0x20B:
000abe 91a0 0160 	LDS  R26,_OSC
000ac0 30ac      	CPI  R26,LOW(0xC)
000ac1 f419      	BRNE _0x20C
                 ; 0000 04DE a = 15;}
000ac2 e0ef      	LDI  R30,LOW(15)
000ac3 93e0 0161 	STS  _a,R30
                 ; 0000 04DF if(OSC==16){
                 _0x20C:
000ac5 91a0 0160 	LDS  R26,_OSC
000ac7 31a0      	CPI  R26,LOW(0x10)
000ac8 f419      	BRNE _0x20D
                 ; 0000 04E0 a = 34;}
000ac9 e2e2      	LDI  R30,LOW(34)
000aca 93e0 0161 	STS  _a,R30
                 ; 0000 04E1 if(OSC==20){
                 _0x20D:
000acc 91a0 0160 	LDS  R26,_OSC
000ace 31a4      	CPI  R26,LOW(0x14)
000acf f419      	BRNE _0x20E
                 ; 0000 04E2 a = 5;}
000ad0 e0e5      	LDI  R30,LOW(5)
000ad1 93e0 0161 	STS  _a,R30
                 ; 0000 04E3 if(OSC==24){
                 _0x20E:
000ad3 91a0 0160 	LDS  R26,_OSC
000ad5 31a8      	CPI  R26,LOW(0x18)
000ad6 f419      	BRNE _0x20F
                 ; 0000 04E4 a = 10;}
000ad7 e0ea      	LDI  R30,LOW(10)
000ad8 93e0 0161 	STS  _a,R30
                 ; 0000 04E5 if(OSC==28){
                 _0x20F:
000ada 91a0 0160 	LDS  R26,_OSC
000adc 31ac      	CPI  R26,LOW(0x1C)
000add f419      	BRNE _0x210
                 ; 0000 04E6 a = 26;}}
000ade e1ea      	LDI  R30,LOW(26)
000adf 93e0 0161 	STS  _a,R30
                 _0x210:
                 ; 0000 04E7 if(kondensatoriaus_rodymo_padetis==10){
                 _0x208:
000ae1 91a0 0175 	LDS  R26,_kondensatoriaus_rodymo_padetis
000ae3 30aa      	CPI  R26,LOW(0xA)
000ae4 f5c1      	BRNE _0x211
                 ; 0000 04E8 if(OSC==0){
000ae5 91e0 0160 	LDS  R30,_OSC
000ae7 30e0      	CPI  R30,0
000ae8 f419      	BRNE _0x212
                 ; 0000 04E9 a = 34;}
000ae9 e2e2      	LDI  R30,LOW(34)
000aea 93e0 0161 	STS  _a,R30
                 ; 0000 04EA if(OSC==4){
                 _0x212:
000aec 91a0 0160 	LDS  R26,_OSC
000aee 30a4      	CPI  R26,LOW(0x4)
000aef f419      	BRNE _0x213
                 ; 0000 04EB a = 14;}
000af0 e0ee      	LDI  R30,LOW(14)
000af1 93e0 0161 	STS  _a,R30
                 ; 0000 04EC if(OSC==8){
                 _0x213:
000af3 91a0 0160 	LDS  R26,_OSC
000af5 30a8      	CPI  R26,LOW(0x8)
000af6 f419      	BRNE _0x214
                 ; 0000 04ED a = 15;}
000af7 e0ef      	LDI  R30,LOW(15)
000af8 93e0 0161 	STS  _a,R30
                 ; 0000 04EE if(OSC==12){
                 _0x214:
000afa 91a0 0160 	LDS  R26,_OSC
000afc 30ac      	CPI  R26,LOW(0xC)
000afd f419      	BRNE _0x215
                 ; 0000 04EF a = 34;}
000afe e2e2      	LDI  R30,LOW(34)
000aff 93e0 0161 	STS  _a,R30
                 ; 0000 04F0 if(OSC==16){
                 _0x215:
000b01 91a0 0160 	LDS  R26,_OSC
000b03 31a0      	CPI  R26,LOW(0x10)
000b04 f419      	BRNE _0x216
                 ; 0000 04F1 a = 5;}
000b05 e0e5      	LDI  R30,LOW(5)
000b06 93e0 0161 	STS  _a,R30
                 ; 0000 04F2 if(OSC==20){
                 _0x216:
000b08 91a0 0160 	LDS  R26,_OSC
000b0a 31a4      	CPI  R26,LOW(0x14)
000b0b f419      	BRNE _0x217
                 ; 0000 04F3 a = 10;}
000b0c e0ea      	LDI  R30,LOW(10)
000b0d 93e0 0161 	STS  _a,R30
                 ; 0000 04F4 if(OSC==24){
                 _0x217:
000b0f 91a0 0160 	LDS  R26,_OSC
000b11 31a8      	CPI  R26,LOW(0x18)
000b12 f419      	BRNE _0x218
                 ; 0000 04F5 a = 26;}
000b13 e1ea      	LDI  R30,LOW(26)
000b14 93e0 0161 	STS  _a,R30
                 ; 0000 04F6 if(OSC==28){
                 _0x218:
000b16 91a0 0160 	LDS  R26,_OSC
000b18 31ac      	CPI  R26,LOW(0x1C)
000b19 f419      	BRNE _0x219
                 ; 0000 04F7 a = 23;}}
000b1a e1e7      	LDI  R30,LOW(23)
000b1b 93e0 0161 	STS  _a,R30
                 _0x219:
                 ; 0000 04F8 if(kondensatoriaus_rodymo_padetis==11){
                 _0x211:
000b1d 91a0 0175 	LDS  R26,_kondensatoriaus_rodymo_padetis
000b1f 30ab      	CPI  R26,LOW(0xB)
000b20 f5c1      	BRNE _0x21A
                 ; 0000 04F9 if(OSC==0){
000b21 91e0 0160 	LDS  R30,_OSC
000b23 30e0      	CPI  R30,0
000b24 f419      	BRNE _0x21B
                 ; 0000 04FA a = 14;}
000b25 e0ee      	LDI  R30,LOW(14)
000b26 93e0 0161 	STS  _a,R30
                 ; 0000 04FB if(OSC==4){
                 _0x21B:
000b28 91a0 0160 	LDS  R26,_OSC
000b2a 30a4      	CPI  R26,LOW(0x4)
000b2b f419      	BRNE _0x21C
                 ; 0000 04FC a = 15;}
000b2c e0ef      	LDI  R30,LOW(15)
000b2d 93e0 0161 	STS  _a,R30
                 ; 0000 04FD if(OSC==8){
                 _0x21C:
000b2f 91a0 0160 	LDS  R26,_OSC
000b31 30a8      	CPI  R26,LOW(0x8)
000b32 f419      	BRNE _0x21D
                 ; 0000 04FE a = 34;}
000b33 e2e2      	LDI  R30,LOW(34)
000b34 93e0 0161 	STS  _a,R30
                 ; 0000 04FF if(OSC==12){
                 _0x21D:
000b36 91a0 0160 	LDS  R26,_OSC
000b38 30ac      	CPI  R26,LOW(0xC)
000b39 f419      	BRNE _0x21E
                 ; 0000 0500 a = 5;}
000b3a e0e5      	LDI  R30,LOW(5)
000b3b 93e0 0161 	STS  _a,R30
                 ; 0000 0501 if(OSC==16){
                 _0x21E:
000b3d 91a0 0160 	LDS  R26,_OSC
000b3f 31a0      	CPI  R26,LOW(0x10)
000b40 f419      	BRNE _0x21F
                 ; 0000 0502 a = 10;}
000b41 e0ea      	LDI  R30,LOW(10)
000b42 93e0 0161 	STS  _a,R30
                 ; 0000 0503 if(OSC==20){
                 _0x21F:
000b44 91a0 0160 	LDS  R26,_OSC
000b46 31a4      	CPI  R26,LOW(0x14)
000b47 f419      	BRNE _0x220
                 ; 0000 0504 a = 26;}
000b48 e1ea      	LDI  R30,LOW(26)
000b49 93e0 0161 	STS  _a,R30
                 ; 0000 0505 if(OSC==24){
                 _0x220:
000b4b 91a0 0160 	LDS  R26,_OSC
000b4d 31a8      	CPI  R26,LOW(0x18)
000b4e f419      	BRNE _0x221
                 ; 0000 0506 a = 23;}
000b4f e1e7      	LDI  R30,LOW(23)
000b50 93e0 0161 	STS  _a,R30
                 ; 0000 0507 if(OSC==28){
                 _0x221:
000b52 91a0 0160 	LDS  R26,_OSC
000b54 31ac      	CPI  R26,LOW(0x1C)
000b55 f419      	BRNE _0x222
                 ; 0000 0508 a = 30;}}
000b56 e1ee      	LDI  R30,LOW(30)
000b57 93e0 0161 	STS  _a,R30
                 _0x222:
                 ; 0000 0509 if(kondensatoriaus_rodymo_padetis==12){
                 _0x21A:
000b59 91a0 0175 	LDS  R26,_kondensatoriaus_rodymo_padetis
000b5b 30ac      	CPI  R26,LOW(0xC)
000b5c f5c1      	BRNE _0x223
                 ; 0000 050A if(OSC==0){
000b5d 91e0 0160 	LDS  R30,_OSC
000b5f 30e0      	CPI  R30,0
000b60 f419      	BRNE _0x224
                 ; 0000 050B a = 15;}
000b61 e0ef      	LDI  R30,LOW(15)
000b62 93e0 0161 	STS  _a,R30
                 ; 0000 050C if(OSC==4){
                 _0x224:
000b64 91a0 0160 	LDS  R26,_OSC
000b66 30a4      	CPI  R26,LOW(0x4)
000b67 f419      	BRNE _0x225
                 ; 0000 050D a = 34;}
000b68 e2e2      	LDI  R30,LOW(34)
000b69 93e0 0161 	STS  _a,R30
                 ; 0000 050E if(OSC==8){
                 _0x225:
000b6b 91a0 0160 	LDS  R26,_OSC
000b6d 30a8      	CPI  R26,LOW(0x8)
000b6e f419      	BRNE _0x226
                 ; 0000 050F a = 5;}
000b6f e0e5      	LDI  R30,LOW(5)
000b70 93e0 0161 	STS  _a,R30
                 ; 0000 0510 if(OSC==12){
                 _0x226:
000b72 91a0 0160 	LDS  R26,_OSC
000b74 30ac      	CPI  R26,LOW(0xC)
000b75 f419      	BRNE _0x227
                 ; 0000 0511 a = 10;}
000b76 e0ea      	LDI  R30,LOW(10)
000b77 93e0 0161 	STS  _a,R30
                 ; 0000 0512 if(OSC==16){
                 _0x227:
000b79 91a0 0160 	LDS  R26,_OSC
000b7b 31a0      	CPI  R26,LOW(0x10)
000b7c f419      	BRNE _0x228
                 ; 0000 0513 a = 26;}
000b7d e1ea      	LDI  R30,LOW(26)
000b7e 93e0 0161 	STS  _a,R30
                 ; 0000 0514 if(OSC==20){
                 _0x228:
000b80 91a0 0160 	LDS  R26,_OSC
000b82 31a4      	CPI  R26,LOW(0x14)
000b83 f419      	BRNE _0x229
                 ; 0000 0515 a = 23;}
000b84 e1e7      	LDI  R30,LOW(23)
000b85 93e0 0161 	STS  _a,R30
                 ; 0000 0516 if(OSC==24){
                 _0x229:
000b87 91a0 0160 	LDS  R26,_OSC
000b89 31a8      	CPI  R26,LOW(0x18)
000b8a f419      	BRNE _0x22A
                 ; 0000 0517 a = 30;}
000b8b e1ee      	LDI  R30,LOW(30)
000b8c 93e0 0161 	STS  _a,R30
                 ; 0000 0518 if(OSC==28){
                 _0x22A:
000b8e 91a0 0160 	LDS  R26,_OSC
000b90 31ac      	CPI  R26,LOW(0x1C)
000b91 f419      	BRNE _0x22B
                 ; 0000 0519 a = 20;}}
000b92 e1e4      	LDI  R30,LOW(20)
000b93 93e0 0161 	STS  _a,R30
                 _0x22B:
                 ; 0000 051A if(kondensatoriaus_rodymo_padetis==13){
                 _0x223:
000b95 91a0 0175 	LDS  R26,_kondensatoriaus_rodymo_padetis
000b97 30ad      	CPI  R26,LOW(0xD)
000b98 f5c1      	BRNE _0x22C
                 ; 0000 051B if(OSC==0){
000b99 91e0 0160 	LDS  R30,_OSC
000b9b 30e0      	CPI  R30,0
000b9c f419      	BRNE _0x22D
                 ; 0000 051C a = 34;}
000b9d e2e2      	LDI  R30,LOW(34)
000b9e 93e0 0161 	STS  _a,R30
                 ; 0000 051D if(OSC==4){
                 _0x22D:
000ba0 91a0 0160 	LDS  R26,_OSC
000ba2 30a4      	CPI  R26,LOW(0x4)
000ba3 f419      	BRNE _0x22E
                 ; 0000 051E a = 5;}
000ba4 e0e5      	LDI  R30,LOW(5)
000ba5 93e0 0161 	STS  _a,R30
                 ; 0000 051F if(OSC==8){
                 _0x22E:
000ba7 91a0 0160 	LDS  R26,_OSC
000ba9 30a8      	CPI  R26,LOW(0x8)
000baa f419      	BRNE _0x22F
                 ; 0000 0520 a = 10;}
000bab e0ea      	LDI  R30,LOW(10)
000bac 93e0 0161 	STS  _a,R30
                 ; 0000 0521 if(OSC==12){
                 _0x22F:
000bae 91a0 0160 	LDS  R26,_OSC
000bb0 30ac      	CPI  R26,LOW(0xC)
000bb1 f419      	BRNE _0x230
                 ; 0000 0522 a = 26;}
000bb2 e1ea      	LDI  R30,LOW(26)
000bb3 93e0 0161 	STS  _a,R30
                 ; 0000 0523 if(OSC==16){
                 _0x230:
000bb5 91a0 0160 	LDS  R26,_OSC
000bb7 31a0      	CPI  R26,LOW(0x10)
000bb8 f419      	BRNE _0x231
                 ; 0000 0524 a = 23;}
000bb9 e1e7      	LDI  R30,LOW(23)
000bba 93e0 0161 	STS  _a,R30
                 ; 0000 0525 if(OSC==20){
                 _0x231:
000bbc 91a0 0160 	LDS  R26,_OSC
000bbe 31a4      	CPI  R26,LOW(0x14)
000bbf f419      	BRNE _0x232
                 ; 0000 0526 a = 30;}
000bc0 e1ee      	LDI  R30,LOW(30)
000bc1 93e0 0161 	STS  _a,R30
                 ; 0000 0527 if(OSC==24){
                 _0x232:
000bc3 91a0 0160 	LDS  R26,_OSC
000bc5 31a8      	CPI  R26,LOW(0x18)
000bc6 f419      	BRNE _0x233
                 ; 0000 0528 a = 20;}
000bc7 e1e4      	LDI  R30,LOW(20)
000bc8 93e0 0161 	STS  _a,R30
                 ; 0000 0529 if(OSC==28){
                 _0x233:
000bca 91a0 0160 	LDS  R26,_OSC
000bcc 31ac      	CPI  R26,LOW(0x1C)
000bcd f419      	BRNE _0x234
                 ; 0000 052A a = 27;}}
000bce e1eb      	LDI  R30,LOW(27)
000bcf 93e0 0161 	STS  _a,R30
                 _0x234:
                 ; 0000 052B if(kondensatoriaus_rodymo_padetis==14){
                 _0x22C:
000bd1 91a0 0175 	LDS  R26,_kondensatoriaus_rodymo_padetis
000bd3 30ae      	CPI  R26,LOW(0xE)
000bd4 f5c1      	BRNE _0x235
                 ; 0000 052C if(OSC==0){
000bd5 91e0 0160 	LDS  R30,_OSC
000bd7 30e0      	CPI  R30,0
000bd8 f419      	BRNE _0x236
                 ; 0000 052D a = 5;}
000bd9 e0e5      	LDI  R30,LOW(5)
000bda 93e0 0161 	STS  _a,R30
                 ; 0000 052E if(OSC==4){
                 _0x236:
000bdc 91a0 0160 	LDS  R26,_OSC
000bde 30a4      	CPI  R26,LOW(0x4)
000bdf f419      	BRNE _0x237
                 ; 0000 052F a = 10;}
000be0 e0ea      	LDI  R30,LOW(10)
000be1 93e0 0161 	STS  _a,R30
                 ; 0000 0530 if(OSC==8){
                 _0x237:
000be3 91a0 0160 	LDS  R26,_OSC
000be5 30a8      	CPI  R26,LOW(0x8)
000be6 f419      	BRNE _0x238
                 ; 0000 0531 a = 26;}
000be7 e1ea      	LDI  R30,LOW(26)
000be8 93e0 0161 	STS  _a,R30
                 ; 0000 0532 if(OSC==12){
                 _0x238:
000bea 91a0 0160 	LDS  R26,_OSC
000bec 30ac      	CPI  R26,LOW(0xC)
000bed f419      	BRNE _0x239
                 ; 0000 0533 a = 23;}
000bee e1e7      	LDI  R30,LOW(23)
000bef 93e0 0161 	STS  _a,R30
                 ; 0000 0534 if(OSC==16){
                 _0x239:
000bf1 91a0 0160 	LDS  R26,_OSC
000bf3 31a0      	CPI  R26,LOW(0x10)
000bf4 f419      	BRNE _0x23A
                 ; 0000 0535 a = 30;}
000bf5 e1ee      	LDI  R30,LOW(30)
000bf6 93e0 0161 	STS  _a,R30
                 ; 0000 0536 if(OSC==20){
                 _0x23A:
000bf8 91a0 0160 	LDS  R26,_OSC
000bfa 31a4      	CPI  R26,LOW(0x14)
000bfb f419      	BRNE _0x23B
                 ; 0000 0537 a = 20;}
000bfc e1e4      	LDI  R30,LOW(20)
000bfd 93e0 0161 	STS  _a,R30
                 ; 0000 0538 if(OSC==24){
                 _0x23B:
000bff 91a0 0160 	LDS  R26,_OSC
000c01 31a8      	CPI  R26,LOW(0x18)
000c02 f419      	BRNE _0x23C
                 ; 0000 0539 a = 27;}
000c03 e1eb      	LDI  R30,LOW(27)
000c04 93e0 0161 	STS  _a,R30
                 ; 0000 053A if(OSC==28){
                 _0x23C:
000c06 91a0 0160 	LDS  R26,_OSC
000c08 31ac      	CPI  R26,LOW(0x1C)
000c09 f419      	BRNE _0x23D
                 ; 0000 053B a = 5;}}
000c0a e0e5      	LDI  R30,LOW(5)
000c0b 93e0 0161 	STS  _a,R30
                 _0x23D:
                 ; 0000 053C if(kondensatoriaus_rodymo_padetis==15){
                 _0x235:
000c0d 91a0 0175 	LDS  R26,_kondensatoriaus_rodymo_padetis
000c0f 30af      	CPI  R26,LOW(0xF)
000c10 f589      	BRNE _0x23E
                 ; 0000 053D if(OSC==0){
000c11 91e0 0160 	LDS  R30,_OSC
000c13 30e0      	CPI  R30,0
000c14 f419      	BRNE _0x23F
                 ; 0000 053E a = 10;}
000c15 e0ea      	LDI  R30,LOW(10)
000c16 93e0 0161 	STS  _a,R30
                 ; 0000 053F if(OSC==4){
                 _0x23F:
000c18 91a0 0160 	LDS  R26,_OSC
000c1a 30a4      	CPI  R26,LOW(0x4)
000c1b f419      	BRNE _0x240
                 ; 0000 0540 a = 26;}
000c1c e1ea      	LDI  R30,LOW(26)
000c1d 93e0 0161 	STS  _a,R30
                 ; 0000 0541 if(OSC==8){
                 _0x240:
000c1f 91a0 0160 	LDS  R26,_OSC
000c21 30a8      	CPI  R26,LOW(0x8)
000c22 f419      	BRNE _0x241
                 ; 0000 0542 a = 23;}
000c23 e1e7      	LDI  R30,LOW(23)
000c24 93e0 0161 	STS  _a,R30
                 ; 0000 0543 if(OSC==12){
                 _0x241:
000c26 91a0 0160 	LDS  R26,_OSC
000c28 30ac      	CPI  R26,LOW(0xC)
000c29 f419      	BRNE _0x242
                 ; 0000 0544 a = 30;}
000c2a e1ee      	LDI  R30,LOW(30)
000c2b 93e0 0161 	STS  _a,R30
                 ; 0000 0545 if(OSC==16){
                 _0x242:
000c2d 91a0 0160 	LDS  R26,_OSC
000c2f 31a0      	CPI  R26,LOW(0x10)
000c30 f419      	BRNE _0x243
                 ; 0000 0546 a = 20;}
000c31 e1e4      	LDI  R30,LOW(20)
000c32 93e0 0161 	STS  _a,R30
                 ; 0000 0547 if(OSC==20){
                 _0x243:
000c34 91a0 0160 	LDS  R26,_OSC
000c36 31a4      	CPI  R26,LOW(0x14)
000c37 f419      	BRNE _0x244
                 ; 0000 0548 a = 27;}
000c38 e1eb      	LDI  R30,LOW(27)
000c39 93e0 0161 	STS  _a,R30
                 ; 0000 0549 if(OSC==24){
                 _0x244:
000c3b 91a0 0160 	LDS  R26,_OSC
000c3d 31a8      	CPI  R26,LOW(0x18)
000c3e f419      	BRNE _0x245
                 ; 0000 054A a = 5;}}}
000c3f e0e5      	LDI  R30,LOW(5)
000c40 93e0 0161 	STS  _a,R30
                 _0x245:
                 _0x23E:
                 ; 0000 054B 
                 ; 0000 054C if(kondensatorius_pilnas==1){
                 _0x1D9:
000c42 91a0 0174 	LDS  R26,_kondensatorius_pilnas
000c44 30a1      	CPI  R26,LOW(0x1)
000c45 f011      	BREQ PC+3
000c46 940c 0e5f 	JMP _0x246
                 ; 0000 054D if(kondensatoriaus_rodymo_padetis==16){
000c48 91a0 0175 	LDS  R26,_kondensatoriaus_rodymo_padetis
000c4a 31a0      	CPI  R26,LOW(0x10)
000c4b f589      	BRNE _0x247
                 ; 0000 054E if(OSC==0){
000c4c 91e0 0160 	LDS  R30,_OSC
000c4e 30e0      	CPI  R30,0
000c4f f419      	BRNE _0x248
                 ; 0000 054F a = 26;}
000c50 e1ea      	LDI  R30,LOW(26)
000c51 93e0 0161 	STS  _a,R30
                 ; 0000 0550 if(OSC==4){
                 _0x248:
000c53 91a0 0160 	LDS  R26,_OSC
000c55 30a4      	CPI  R26,LOW(0x4)
000c56 f419      	BRNE _0x249
                 ; 0000 0551 a = 23;}
000c57 e1e7      	LDI  R30,LOW(23)
000c58 93e0 0161 	STS  _a,R30
                 ; 0000 0552 if(OSC==8){
                 _0x249:
000c5a 91a0 0160 	LDS  R26,_OSC
000c5c 30a8      	CPI  R26,LOW(0x8)
000c5d f419      	BRNE _0x24A
                 ; 0000 0553 a = 30;}
000c5e e1ee      	LDI  R30,LOW(30)
000c5f 93e0 0161 	STS  _a,R30
                 ; 0000 0554 if(OSC==12){
                 _0x24A:
000c61 91a0 0160 	LDS  R26,_OSC
000c63 30ac      	CPI  R26,LOW(0xC)
000c64 f419      	BRNE _0x24B
                 ; 0000 0555 a = 20;}
000c65 e1e4      	LDI  R30,LOW(20)
000c66 93e0 0161 	STS  _a,R30
                 ; 0000 0556 if(OSC==16){
                 _0x24B:
000c68 91a0 0160 	LDS  R26,_OSC
000c6a 31a0      	CPI  R26,LOW(0x10)
000c6b f419      	BRNE _0x24C
                 ; 0000 0557 a = 27;}
000c6c e1eb      	LDI  R30,LOW(27)
000c6d 93e0 0161 	STS  _a,R30
                 ; 0000 0558 if(OSC==20){
                 _0x24C:
000c6f 91a0 0160 	LDS  R26,_OSC
000c71 31a4      	CPI  R26,LOW(0x14)
000c72 f419      	BRNE _0x24D
                 ; 0000 0559 a = 5;}
000c73 e0e5      	LDI  R30,LOW(5)
000c74 93e0 0161 	STS  _a,R30
                 ; 0000 055A if(OSC==28){
                 _0x24D:
000c76 91a0 0160 	LDS  R26,_OSC
000c78 31ac      	CPI  R26,LOW(0x1C)
000c79 f419      	BRNE _0x24E
                 ; 0000 055B a = 24;}}
000c7a e1e8      	LDI  R30,LOW(24)
000c7b 93e0 0161 	STS  _a,R30
                 _0x24E:
                 ; 0000 055C if(kondensatoriaus_rodymo_padetis==17){
                 _0x247:
000c7d 91a0 0175 	LDS  R26,_kondensatoriaus_rodymo_padetis
000c7f 31a1      	CPI  R26,LOW(0x11)
000c80 f589      	BRNE _0x24F
                 ; 0000 055D if(OSC==0){
000c81 91e0 0160 	LDS  R30,_OSC
000c83 30e0      	CPI  R30,0
000c84 f419      	BRNE _0x250
                 ; 0000 055E a = 23;}
000c85 e1e7      	LDI  R30,LOW(23)
000c86 93e0 0161 	STS  _a,R30
                 ; 0000 055F if(OSC==4){
                 _0x250:
000c88 91a0 0160 	LDS  R26,_OSC
000c8a 30a4      	CPI  R26,LOW(0x4)
000c8b f419      	BRNE _0x251
                 ; 0000 0560 a = 30;}
000c8c e1ee      	LDI  R30,LOW(30)
000c8d 93e0 0161 	STS  _a,R30
                 ; 0000 0561 if(OSC==8){
                 _0x251:
000c8f 91a0 0160 	LDS  R26,_OSC
000c91 30a8      	CPI  R26,LOW(0x8)
000c92 f419      	BRNE _0x252
                 ; 0000 0562 a = 20;}
000c93 e1e4      	LDI  R30,LOW(20)
000c94 93e0 0161 	STS  _a,R30
                 ; 0000 0563 if(OSC==12){
                 _0x252:
000c96 91a0 0160 	LDS  R26,_OSC
000c98 30ac      	CPI  R26,LOW(0xC)
000c99 f419      	BRNE _0x253
                 ; 0000 0564 a = 27;}
000c9a e1eb      	LDI  R30,LOW(27)
000c9b 93e0 0161 	STS  _a,R30
                 ; 0000 0565 if(OSC==16){
                 _0x253:
000c9d 91a0 0160 	LDS  R26,_OSC
000c9f 31a0      	CPI  R26,LOW(0x10)
000ca0 f419      	BRNE _0x254
                 ; 0000 0566 a = 5;}
000ca1 e0e5      	LDI  R30,LOW(5)
000ca2 93e0 0161 	STS  _a,R30
                 ; 0000 0567 if(OSC==24){
                 _0x254:
000ca4 91a0 0160 	LDS  R26,_OSC
000ca6 31a8      	CPI  R26,LOW(0x18)
000ca7 f419      	BRNE _0x255
                 ; 0000 0568 a = 24;}
000ca8 e1e8      	LDI  R30,LOW(24)
000ca9 93e0 0161 	STS  _a,R30
                 ; 0000 0569 if(OSC==28){
                 _0x255:
000cab 91a0 0160 	LDS  R26,_OSC
000cad 31ac      	CPI  R26,LOW(0x1C)
000cae f419      	BRNE _0x256
                 ; 0000 056A a = 19;}}
000caf e1e3      	LDI  R30,LOW(19)
000cb0 93e0 0161 	STS  _a,R30
                 _0x256:
                 ; 0000 056B if(kondensatoriaus_rodymo_padetis==18){
                 _0x24F:
000cb2 91a0 0175 	LDS  R26,_kondensatoriaus_rodymo_padetis
000cb4 31a2      	CPI  R26,LOW(0x12)
000cb5 f589      	BRNE _0x257
                 ; 0000 056C if(OSC==0){
000cb6 91e0 0160 	LDS  R30,_OSC
000cb8 30e0      	CPI  R30,0
000cb9 f419      	BRNE _0x258
                 ; 0000 056D a = 30;}
000cba e1ee      	LDI  R30,LOW(30)
000cbb 93e0 0161 	STS  _a,R30
                 ; 0000 056E if(OSC==4){
                 _0x258:
000cbd 91a0 0160 	LDS  R26,_OSC
000cbf 30a4      	CPI  R26,LOW(0x4)
000cc0 f419      	BRNE _0x259
                 ; 0000 056F a = 20;}
000cc1 e1e4      	LDI  R30,LOW(20)
000cc2 93e0 0161 	STS  _a,R30
                 ; 0000 0570 if(OSC==8){
                 _0x259:
000cc4 91a0 0160 	LDS  R26,_OSC
000cc6 30a8      	CPI  R26,LOW(0x8)
000cc7 f419      	BRNE _0x25A
                 ; 0000 0571 a = 27;}
000cc8 e1eb      	LDI  R30,LOW(27)
000cc9 93e0 0161 	STS  _a,R30
                 ; 0000 0572 if(OSC==12){
                 _0x25A:
000ccb 91a0 0160 	LDS  R26,_OSC
000ccd 30ac      	CPI  R26,LOW(0xC)
000cce f419      	BRNE _0x25B
                 ; 0000 0573 a = 5;}
000ccf e0e5      	LDI  R30,LOW(5)
000cd0 93e0 0161 	STS  _a,R30
                 ; 0000 0574 if(OSC==20){
                 _0x25B:
000cd2 91a0 0160 	LDS  R26,_OSC
000cd4 31a4      	CPI  R26,LOW(0x14)
000cd5 f419      	BRNE _0x25C
                 ; 0000 0575 a = 24;}
000cd6 e1e8      	LDI  R30,LOW(24)
000cd7 93e0 0161 	STS  _a,R30
                 ; 0000 0576 if(OSC==24){
                 _0x25C:
000cd9 91a0 0160 	LDS  R26,_OSC
000cdb 31a8      	CPI  R26,LOW(0x18)
000cdc f419      	BRNE _0x25D
                 ; 0000 0577 a = 19;}
000cdd e1e3      	LDI  R30,LOW(19)
000cde 93e0 0161 	STS  _a,R30
                 ; 0000 0578 if(OSC==28){
                 _0x25D:
000ce0 91a0 0160 	LDS  R26,_OSC
000ce2 31ac      	CPI  R26,LOW(0x1C)
000ce3 f419      	BRNE _0x25E
                 ; 0000 0579 a = 22;}}
000ce4 e1e6      	LDI  R30,LOW(22)
000ce5 93e0 0161 	STS  _a,R30
                 _0x25E:
                 ; 0000 057A if(kondensatoriaus_rodymo_padetis==19){
                 _0x257:
000ce7 91a0 0175 	LDS  R26,_kondensatoriaus_rodymo_padetis
000ce9 31a3      	CPI  R26,LOW(0x13)
000cea f589      	BRNE _0x25F
                 ; 0000 057B if(OSC==0){
000ceb 91e0 0160 	LDS  R30,_OSC
000ced 30e0      	CPI  R30,0
000cee f419      	BRNE _0x260
                 ; 0000 057C a = 20;}
000cef e1e4      	LDI  R30,LOW(20)
000cf0 93e0 0161 	STS  _a,R30
                 ; 0000 057D if(OSC==4){
                 _0x260:
000cf2 91a0 0160 	LDS  R26,_OSC
000cf4 30a4      	CPI  R26,LOW(0x4)
000cf5 f419      	BRNE _0x261
                 ; 0000 057E a = 27;}
000cf6 e1eb      	LDI  R30,LOW(27)
000cf7 93e0 0161 	STS  _a,R30
                 ; 0000 057F if(OSC==8){
                 _0x261:
000cf9 91a0 0160 	LDS  R26,_OSC
000cfb 30a8      	CPI  R26,LOW(0x8)
000cfc f419      	BRNE _0x262
                 ; 0000 0580 a = 5;}
000cfd e0e5      	LDI  R30,LOW(5)
000cfe 93e0 0161 	STS  _a,R30
                 ; 0000 0581 if(OSC==16){
                 _0x262:
000d00 91a0 0160 	LDS  R26,_OSC
000d02 31a0      	CPI  R26,LOW(0x10)
000d03 f419      	BRNE _0x263
                 ; 0000 0582 a = 24;}
000d04 e1e8      	LDI  R30,LOW(24)
000d05 93e0 0161 	STS  _a,R30
                 ; 0000 0583 if(OSC==20){
                 _0x263:
000d07 91a0 0160 	LDS  R26,_OSC
000d09 31a4      	CPI  R26,LOW(0x14)
000d0a f419      	BRNE _0x264
                 ; 0000 0584 a = 19;}
000d0b e1e3      	LDI  R30,LOW(19)
000d0c 93e0 0161 	STS  _a,R30
                 ; 0000 0585 if(OSC==24){
                 _0x264:
000d0e 91a0 0160 	LDS  R26,_OSC
000d10 31a8      	CPI  R26,LOW(0x18)
000d11 f419      	BRNE _0x265
                 ; 0000 0586 a = 22;}
000d12 e1e6      	LDI  R30,LOW(22)
000d13 93e0 0161 	STS  _a,R30
                 ; 0000 0587 if(OSC==28){
                 _0x265:
000d15 91a0 0160 	LDS  R26,_OSC
000d17 31ac      	CPI  R26,LOW(0x1C)
000d18 f419      	BRNE _0x266
                 ; 0000 0588 a = 34;}}
000d19 e2e2      	LDI  R30,LOW(34)
000d1a 93e0 0161 	STS  _a,R30
                 _0x266:
                 ; 0000 0589 if(kondensatoriaus_rodymo_padetis==20){
                 _0x25F:
000d1c 91a0 0175 	LDS  R26,_kondensatoriaus_rodymo_padetis
000d1e 31a4      	CPI  R26,LOW(0x14)
000d1f f589      	BRNE _0x267
                 ; 0000 058A if(OSC==0){
000d20 91e0 0160 	LDS  R30,_OSC
000d22 30e0      	CPI  R30,0
000d23 f419      	BRNE _0x268
                 ; 0000 058B a = 27;}
000d24 e1eb      	LDI  R30,LOW(27)
000d25 93e0 0161 	STS  _a,R30
                 ; 0000 058C if(OSC==4){
                 _0x268:
000d27 91a0 0160 	LDS  R26,_OSC
000d29 30a4      	CPI  R26,LOW(0x4)
000d2a f419      	BRNE _0x269
                 ; 0000 058D a = 5;}
000d2b e0e5      	LDI  R30,LOW(5)
000d2c 93e0 0161 	STS  _a,R30
                 ; 0000 058E if(OSC==12){
                 _0x269:
000d2e 91a0 0160 	LDS  R26,_OSC
000d30 30ac      	CPI  R26,LOW(0xC)
000d31 f419      	BRNE _0x26A
                 ; 0000 058F a = 24;}
000d32 e1e8      	LDI  R30,LOW(24)
000d33 93e0 0161 	STS  _a,R30
                 ; 0000 0590 if(OSC==16){
                 _0x26A:
000d35 91a0 0160 	LDS  R26,_OSC
000d37 31a0      	CPI  R26,LOW(0x10)
000d38 f419      	BRNE _0x26B
                 ; 0000 0591 a = 19;}
000d39 e1e3      	LDI  R30,LOW(19)
000d3a 93e0 0161 	STS  _a,R30
                 ; 0000 0592 if(OSC==20){
                 _0x26B:
000d3c 91a0 0160 	LDS  R26,_OSC
000d3e 31a4      	CPI  R26,LOW(0x14)
000d3f f419      	BRNE _0x26C
                 ; 0000 0593 a = 22;}
000d40 e1e6      	LDI  R30,LOW(22)
000d41 93e0 0161 	STS  _a,R30
                 ; 0000 0594 if(OSC==24){
                 _0x26C:
000d43 91a0 0160 	LDS  R26,_OSC
000d45 31a8      	CPI  R26,LOW(0x18)
000d46 f419      	BRNE _0x26D
                 ; 0000 0595 a = 34;}
000d47 e2e2      	LDI  R30,LOW(34)
000d48 93e0 0161 	STS  _a,R30
                 ; 0000 0596 if(OSC==28){
                 _0x26D:
000d4a 91a0 0160 	LDS  R26,_OSC
000d4c 31ac      	CPI  R26,LOW(0x1C)
000d4d f419      	BRNE _0x26E
                 ; 0000 0597 a = 10;}}
000d4e e0ea      	LDI  R30,LOW(10)
000d4f 93e0 0161 	STS  _a,R30
                 _0x26E:
                 ; 0000 0598 if(kondensatoriaus_rodymo_padetis==21){
                 _0x267:
000d51 91a0 0175 	LDS  R26,_kondensatoriaus_rodymo_padetis
000d53 31a5      	CPI  R26,LOW(0x15)
000d54 f589      	BRNE _0x26F
                 ; 0000 0599 if(OSC==0){
000d55 91e0 0160 	LDS  R30,_OSC
000d57 30e0      	CPI  R30,0
000d58 f419      	BRNE _0x270
                 ; 0000 059A a = 5;}
000d59 e0e5      	LDI  R30,LOW(5)
000d5a 93e0 0161 	STS  _a,R30
                 ; 0000 059B if(OSC==8){
                 _0x270:
000d5c 91a0 0160 	LDS  R26,_OSC
000d5e 30a8      	CPI  R26,LOW(0x8)
000d5f f419      	BRNE _0x271
                 ; 0000 059C a = 24;}
000d60 e1e8      	LDI  R30,LOW(24)
000d61 93e0 0161 	STS  _a,R30
                 ; 0000 059D if(OSC==12){
                 _0x271:
000d63 91a0 0160 	LDS  R26,_OSC
000d65 30ac      	CPI  R26,LOW(0xC)
000d66 f419      	BRNE _0x272
                 ; 0000 059E a = 19;}
000d67 e1e3      	LDI  R30,LOW(19)
000d68 93e0 0161 	STS  _a,R30
                 ; 0000 059F if(OSC==16){
                 _0x272:
000d6a 91a0 0160 	LDS  R26,_OSC
000d6c 31a0      	CPI  R26,LOW(0x10)
000d6d f419      	BRNE _0x273
                 ; 0000 05A0 a = 22;}
000d6e e1e6      	LDI  R30,LOW(22)
000d6f 93e0 0161 	STS  _a,R30
                 ; 0000 05A1 if(OSC==20){
                 _0x273:
000d71 91a0 0160 	LDS  R26,_OSC
000d73 31a4      	CPI  R26,LOW(0x14)
000d74 f419      	BRNE _0x274
                 ; 0000 05A2 a = 34;}
000d75 e2e2      	LDI  R30,LOW(34)
000d76 93e0 0161 	STS  _a,R30
                 ; 0000 05A3 if(OSC==24){
                 _0x274:
000d78 91a0 0160 	LDS  R26,_OSC
000d7a 31a8      	CPI  R26,LOW(0x18)
000d7b f419      	BRNE _0x275
                 ; 0000 05A4 a = 10;}
000d7c e0ea      	LDI  R30,LOW(10)
000d7d 93e0 0161 	STS  _a,R30
                 ; 0000 05A5 if(OSC==28){
                 _0x275:
000d7f 91a0 0160 	LDS  R26,_OSC
000d81 31ac      	CPI  R26,LOW(0x1C)
000d82 f419      	BRNE _0x276
                 ; 0000 05A6 a = 5;}}
000d83 e0e5      	LDI  R30,LOW(5)
000d84 93e0 0161 	STS  _a,R30
                 _0x276:
                 ; 0000 05A7 if(kondensatoriaus_rodymo_padetis==22){
                 _0x26F:
000d86 91a0 0175 	LDS  R26,_kondensatoriaus_rodymo_padetis
000d88 31a6      	CPI  R26,LOW(0x16)
000d89 f551      	BRNE _0x277
                 ; 0000 05A8 if(OSC==4){
000d8a 91a0 0160 	LDS  R26,_OSC
000d8c 30a4      	CPI  R26,LOW(0x4)
000d8d f419      	BRNE _0x278
                 ; 0000 05A9 a = 24;}
000d8e e1e8      	LDI  R30,LOW(24)
000d8f 93e0 0161 	STS  _a,R30
                 ; 0000 05AA if(OSC==8){
                 _0x278:
000d91 91a0 0160 	LDS  R26,_OSC
000d93 30a8      	CPI  R26,LOW(0x8)
000d94 f419      	BRNE _0x279
                 ; 0000 05AB a = 19;}
000d95 e1e3      	LDI  R30,LOW(19)
000d96 93e0 0161 	STS  _a,R30
                 ; 0000 05AC if(OSC==12){
                 _0x279:
000d98 91a0 0160 	LDS  R26,_OSC
000d9a 30ac      	CPI  R26,LOW(0xC)
000d9b f419      	BRNE _0x27A
                 ; 0000 05AD a = 22;}
000d9c e1e6      	LDI  R30,LOW(22)
000d9d 93e0 0161 	STS  _a,R30
                 ; 0000 05AE if(OSC==16){
                 _0x27A:
000d9f 91a0 0160 	LDS  R26,_OSC
000da1 31a0      	CPI  R26,LOW(0x10)
000da2 f419      	BRNE _0x27B
                 ; 0000 05AF a = 34;}
000da3 e2e2      	LDI  R30,LOW(34)
000da4 93e0 0161 	STS  _a,R30
                 ; 0000 05B0 if(OSC==20){
                 _0x27B:
000da6 91a0 0160 	LDS  R26,_OSC
000da8 31a4      	CPI  R26,LOW(0x14)
000da9 f419      	BRNE _0x27C
                 ; 0000 05B1 a = 10;}
000daa e0ea      	LDI  R30,LOW(10)
000dab 93e0 0161 	STS  _a,R30
                 ; 0000 05B2 if(OSC==24){
                 _0x27C:
000dad 91a0 0160 	LDS  R26,_OSC
000daf 31a8      	CPI  R26,LOW(0x18)
000db0 f419      	BRNE _0x27D
                 ; 0000 05B3 a = 5;}}
000db1 e0e5      	LDI  R30,LOW(5)
000db2 93e0 0161 	STS  _a,R30
                 _0x27D:
                 ; 0000 05B4 if(kondensatoriaus_rodymo_padetis==23){
                 _0x277:
000db4 91a0 0175 	LDS  R26,_kondensatoriaus_rodymo_padetis
000db6 31a7      	CPI  R26,LOW(0x17)
000db7 f551      	BRNE _0x27E
                 ; 0000 05B5 if(OSC==0){
000db8 91e0 0160 	LDS  R30,_OSC
000dba 30e0      	CPI  R30,0
000dbb f419      	BRNE _0x27F
                 ; 0000 05B6 a = 24;}
000dbc e1e8      	LDI  R30,LOW(24)
000dbd 93e0 0161 	STS  _a,R30
                 ; 0000 05B7 if(OSC==4){
                 _0x27F:
000dbf 91a0 0160 	LDS  R26,_OSC
000dc1 30a4      	CPI  R26,LOW(0x4)
000dc2 f419      	BRNE _0x280
                 ; 0000 05B8 a = 19;}
000dc3 e1e3      	LDI  R30,LOW(19)
000dc4 93e0 0161 	STS  _a,R30
                 ; 0000 05B9 if(OSC==8){
                 _0x280:
000dc6 91a0 0160 	LDS  R26,_OSC
000dc8 30a8      	CPI  R26,LOW(0x8)
000dc9 f419      	BRNE _0x281
                 ; 0000 05BA a = 22;}
000dca e1e6      	LDI  R30,LOW(22)
000dcb 93e0 0161 	STS  _a,R30
                 ; 0000 05BB if(OSC==12){
                 _0x281:
000dcd 91a0 0160 	LDS  R26,_OSC
000dcf 30ac      	CPI  R26,LOW(0xC)
000dd0 f419      	BRNE _0x282
                 ; 0000 05BC a = 34;}
000dd1 e2e2      	LDI  R30,LOW(34)
000dd2 93e0 0161 	STS  _a,R30
                 ; 0000 05BD if(OSC==16){
                 _0x282:
000dd4 91a0 0160 	LDS  R26,_OSC
000dd6 31a0      	CPI  R26,LOW(0x10)
000dd7 f419      	BRNE _0x283
                 ; 0000 05BE a = 10;}
000dd8 e0ea      	LDI  R30,LOW(10)
000dd9 93e0 0161 	STS  _a,R30
                 ; 0000 05BF if(OSC==20){
                 _0x283:
000ddb 91a0 0160 	LDS  R26,_OSC
000ddd 31a4      	CPI  R26,LOW(0x14)
000dde f419      	BRNE _0x284
                 ; 0000 05C0 a = 5;}}
000ddf e0e5      	LDI  R30,LOW(5)
000de0 93e0 0161 	STS  _a,R30
                 _0x284:
                 ; 0000 05C1 if(kondensatoriaus_rodymo_padetis==24){
                 _0x27E:
000de2 91a0 0175 	LDS  R26,_kondensatoriaus_rodymo_padetis
000de4 31a8      	CPI  R26,LOW(0x18)
000de5 f519      	BRNE _0x285
                 ; 0000 05C2 if(OSC==0){
000de6 91e0 0160 	LDS  R30,_OSC
000de8 30e0      	CPI  R30,0
000de9 f419      	BRNE _0x286
                 ; 0000 05C3 a = 19;}
000dea e1e3      	LDI  R30,LOW(19)
000deb 93e0 0161 	STS  _a,R30
                 ; 0000 05C4 if(OSC==4){
                 _0x286:
000ded 91a0 0160 	LDS  R26,_OSC
000def 30a4      	CPI  R26,LOW(0x4)
000df0 f419      	BRNE _0x287
                 ; 0000 05C5 a = 22;}
000df1 e1e6      	LDI  R30,LOW(22)
000df2 93e0 0161 	STS  _a,R30
                 ; 0000 05C6 if(OSC==8){
                 _0x287:
000df4 91a0 0160 	LDS  R26,_OSC
000df6 30a8      	CPI  R26,LOW(0x8)
000df7 f419      	BRNE _0x288
                 ; 0000 05C7 a = 34;}
000df8 e2e2      	LDI  R30,LOW(34)
000df9 93e0 0161 	STS  _a,R30
                 ; 0000 05C8 if(OSC==12){
                 _0x288:
000dfb 91a0 0160 	LDS  R26,_OSC
000dfd 30ac      	CPI  R26,LOW(0xC)
000dfe f419      	BRNE _0x289
                 ; 0000 05C9 a = 10;}
000dff e0ea      	LDI  R30,LOW(10)
000e00 93e0 0161 	STS  _a,R30
                 ; 0000 05CA if(OSC==16){
                 _0x289:
000e02 91a0 0160 	LDS  R26,_OSC
000e04 31a0      	CPI  R26,LOW(0x10)
000e05 f419      	BRNE _0x28A
                 ; 0000 05CB a = 5;}}
000e06 e0e5      	LDI  R30,LOW(5)
000e07 93e0 0161 	STS  _a,R30
                 _0x28A:
                 ; 0000 05CC if(kondensatoriaus_rodymo_padetis==25){
                 _0x285:
000e09 91a0 0175 	LDS  R26,_kondensatoriaus_rodymo_padetis
000e0b 31a9      	CPI  R26,LOW(0x19)
000e0c f4e1      	BRNE _0x28B
                 ; 0000 05CD if(OSC==0){
000e0d 91e0 0160 	LDS  R30,_OSC
000e0f 30e0      	CPI  R30,0
000e10 f419      	BRNE _0x28C
                 ; 0000 05CE a = 22;}
000e11 e1e6      	LDI  R30,LOW(22)
000e12 93e0 0161 	STS  _a,R30
                 ; 0000 05CF if(OSC==4){
                 _0x28C:
000e14 91a0 0160 	LDS  R26,_OSC
000e16 30a4      	CPI  R26,LOW(0x4)
000e17 f419      	BRNE _0x28D
                 ; 0000 05D0 a = 34;}
000e18 e2e2      	LDI  R30,LOW(34)
000e19 93e0 0161 	STS  _a,R30
                 ; 0000 05D1 if(OSC==8){
                 _0x28D:
000e1b 91a0 0160 	LDS  R26,_OSC
000e1d 30a8      	CPI  R26,LOW(0x8)
000e1e f419      	BRNE _0x28E
                 ; 0000 05D2 a = 10;}
000e1f e0ea      	LDI  R30,LOW(10)
000e20 93e0 0161 	STS  _a,R30
                 ; 0000 05D3 if(OSC==12){
                 _0x28E:
000e22 91a0 0160 	LDS  R26,_OSC
000e24 30ac      	CPI  R26,LOW(0xC)
000e25 f419      	BRNE _0x28F
                 ; 0000 05D4 a = 5;}}
000e26 e0e5      	LDI  R30,LOW(5)
000e27 93e0 0161 	STS  _a,R30
                 _0x28F:
                 ; 0000 05D5 if(kondensatoriaus_rodymo_padetis==26){
                 _0x28B:
000e29 91a0 0175 	LDS  R26,_kondensatoriaus_rodymo_padetis
000e2b 31aa      	CPI  R26,LOW(0x1A)
000e2c f4a9      	BRNE _0x290
                 ; 0000 05D6 if(OSC==0){
000e2d 91e0 0160 	LDS  R30,_OSC
000e2f 30e0      	CPI  R30,0
000e30 f419      	BRNE _0x291
                 ; 0000 05D7 a = 34;}
000e31 e2e2      	LDI  R30,LOW(34)
000e32 93e0 0161 	STS  _a,R30
                 ; 0000 05D8 if(OSC==4){
                 _0x291:
000e34 91a0 0160 	LDS  R26,_OSC
000e36 30a4      	CPI  R26,LOW(0x4)
000e37 f419      	BRNE _0x292
                 ; 0000 05D9 a = 10;}
000e38 e0ea      	LDI  R30,LOW(10)
000e39 93e0 0161 	STS  _a,R30
                 ; 0000 05DA if(OSC==8){
                 _0x292:
000e3b 91a0 0160 	LDS  R26,_OSC
000e3d 30a8      	CPI  R26,LOW(0x8)
000e3e f419      	BRNE _0x293
                 ; 0000 05DB a = 5;}}
000e3f e0e5      	LDI  R30,LOW(5)
000e40 93e0 0161 	STS  _a,R30
                 _0x293:
                 ; 0000 05DC if(kondensatoriaus_rodymo_padetis==27){
                 _0x290:
000e42 91a0 0175 	LDS  R26,_kondensatoriaus_rodymo_padetis
000e44 31ab      	CPI  R26,LOW(0x1B)
000e45 f471      	BRNE _0x294
                 ; 0000 05DD if(OSC==0){
000e46 91e0 0160 	LDS  R30,_OSC
000e48 30e0      	CPI  R30,0
000e49 f419      	BRNE _0x295
                 ; 0000 05DE a = 10;}
000e4a e0ea      	LDI  R30,LOW(10)
000e4b 93e0 0161 	STS  _a,R30
                 ; 0000 05DF if(OSC==4){
                 _0x295:
000e4d 91a0 0160 	LDS  R26,_OSC
000e4f 30a4      	CPI  R26,LOW(0x4)
000e50 f419      	BRNE _0x296
                 ; 0000 05E0 a = 5;}}
000e51 e0e5      	LDI  R30,LOW(5)
000e52 93e0 0161 	STS  _a,R30
                 _0x296:
                 ; 0000 05E1 if(kondensatoriaus_rodymo_padetis==27){
                 _0x294:
000e54 91a0 0175 	LDS  R26,_kondensatoriaus_rodymo_padetis
000e56 31ab      	CPI  R26,LOW(0x1B)
000e57 f439      	BRNE _0x297
                 ; 0000 05E2 if(OSC==0){
000e58 91e0 0160 	LDS  R30,_OSC
000e5a 30e0      	CPI  R30,0
000e5b f419      	BRNE _0x298
                 ; 0000 05E3 a = 5;}}}
000e5c e0e5      	LDI  R30,LOW(5)
000e5d 93e0 0161 	STS  _a,R30
                 _0x298:
                 _0x297:
                 ; 0000 05E4 
                 ; 0000 05E5 if(kondensatorius_tuscias==1){
                 _0x246:
000e5f 91a0 0172 	LDS  R26,_kondensatorius_tuscias
000e61 30a1      	CPI  R26,LOW(0x1)
000e62 f011      	BREQ PC+3
000e63 940c 10b8 	JMP _0x299
                 ; 0000 05E6 if(kondensatoriaus_rodymo_padetis==16){
000e65 91a0 0175 	LDS  R26,_kondensatoriaus_rodymo_padetis
000e67 31a0      	CPI  R26,LOW(0x10)
000e68 f589      	BRNE _0x29A
                 ; 0000 05E7 if(OSC==0){
000e69 91e0 0160 	LDS  R30,_OSC
000e6b 30e0      	CPI  R30,0
000e6c f419      	BRNE _0x29B
                 ; 0000 05E8 a = 26;}
000e6d e1ea      	LDI  R30,LOW(26)
000e6e 93e0 0161 	STS  _a,R30
                 ; 0000 05E9 if(OSC==4){
                 _0x29B:
000e70 91a0 0160 	LDS  R26,_OSC
000e72 30a4      	CPI  R26,LOW(0x4)
000e73 f419      	BRNE _0x29C
                 ; 0000 05EA a = 23;}
000e74 e1e7      	LDI  R30,LOW(23)
000e75 93e0 0161 	STS  _a,R30
                 ; 0000 05EB if(OSC==8){
                 _0x29C:
000e77 91a0 0160 	LDS  R26,_OSC
000e79 30a8      	CPI  R26,LOW(0x8)
000e7a f419      	BRNE _0x29D
                 ; 0000 05EC a = 30;}
000e7b e1ee      	LDI  R30,LOW(30)
000e7c 93e0 0161 	STS  _a,R30
                 ; 0000 05ED if(OSC==12){
                 _0x29D:
000e7e 91a0 0160 	LDS  R26,_OSC
000e80 30ac      	CPI  R26,LOW(0xC)
000e81 f419      	BRNE _0x29E
                 ; 0000 05EE a = 20;}
000e82 e1e4      	LDI  R30,LOW(20)
000e83 93e0 0161 	STS  _a,R30
                 ; 0000 05EF if(OSC==16){
                 _0x29E:
000e85 91a0 0160 	LDS  R26,_OSC
000e87 31a0      	CPI  R26,LOW(0x10)
000e88 f419      	BRNE _0x29F
                 ; 0000 05F0 a = 27;}
000e89 e1eb      	LDI  R30,LOW(27)
000e8a 93e0 0161 	STS  _a,R30
                 ; 0000 05F1 if(OSC==20){
                 _0x29F:
000e8c 91a0 0160 	LDS  R26,_OSC
000e8e 31a4      	CPI  R26,LOW(0x14)
000e8f f419      	BRNE _0x2A0
                 ; 0000 05F2 a = 5;}
000e90 e0e5      	LDI  R30,LOW(5)
000e91 93e0 0161 	STS  _a,R30
                 ; 0000 05F3 if(OSC==28){
                 _0x2A0:
000e93 91a0 0160 	LDS  R26,_OSC
000e95 31ac      	CPI  R26,LOW(0x1C)
000e96 f419      	BRNE _0x2A1
                 ; 0000 05F4 a = 26;}}
000e97 e1ea      	LDI  R30,LOW(26)
000e98 93e0 0161 	STS  _a,R30
                 _0x2A1:
                 ; 0000 05F5 if(kondensatoriaus_rodymo_padetis==17){
                 _0x29A:
000e9a 91a0 0175 	LDS  R26,_kondensatoriaus_rodymo_padetis
000e9c 31a1      	CPI  R26,LOW(0x11)
000e9d f589      	BRNE _0x2A2
                 ; 0000 05F6 if(OSC==0){
000e9e 91e0 0160 	LDS  R30,_OSC
000ea0 30e0      	CPI  R30,0
000ea1 f419      	BRNE _0x2A3
                 ; 0000 05F7 a = 23;}
000ea2 e1e7      	LDI  R30,LOW(23)
000ea3 93e0 0161 	STS  _a,R30
                 ; 0000 05F8 if(OSC==4){
                 _0x2A3:
000ea5 91a0 0160 	LDS  R26,_OSC
000ea7 30a4      	CPI  R26,LOW(0x4)
000ea8 f419      	BRNE _0x2A4
                 ; 0000 05F9 a = 30;}
000ea9 e1ee      	LDI  R30,LOW(30)
000eaa 93e0 0161 	STS  _a,R30
                 ; 0000 05FA if(OSC==8){
                 _0x2A4:
000eac 91a0 0160 	LDS  R26,_OSC
000eae 30a8      	CPI  R26,LOW(0x8)
000eaf f419      	BRNE _0x2A5
                 ; 0000 05FB a = 20;}
000eb0 e1e4      	LDI  R30,LOW(20)
000eb1 93e0 0161 	STS  _a,R30
                 ; 0000 05FC if(OSC==12){
                 _0x2A5:
000eb3 91a0 0160 	LDS  R26,_OSC
000eb5 30ac      	CPI  R26,LOW(0xC)
000eb6 f419      	BRNE _0x2A6
                 ; 0000 05FD a = 27;}
000eb7 e1eb      	LDI  R30,LOW(27)
000eb8 93e0 0161 	STS  _a,R30
                 ; 0000 05FE if(OSC==16){
                 _0x2A6:
000eba 91a0 0160 	LDS  R26,_OSC
000ebc 31a0      	CPI  R26,LOW(0x10)
000ebd f419      	BRNE _0x2A7
                 ; 0000 05FF a = 5;}
000ebe e0e5      	LDI  R30,LOW(5)
000ebf 93e0 0161 	STS  _a,R30
                 ; 0000 0600 if(OSC==24){
                 _0x2A7:
000ec1 91a0 0160 	LDS  R26,_OSC
000ec3 31a8      	CPI  R26,LOW(0x18)
000ec4 f419      	BRNE _0x2A8
                 ; 0000 0601 a = 26;}
000ec5 e1ea      	LDI  R30,LOW(26)
000ec6 93e0 0161 	STS  _a,R30
                 ; 0000 0602 if(OSC==28){
                 _0x2A8:
000ec8 91a0 0160 	LDS  R26,_OSC
000eca 31ac      	CPI  R26,LOW(0x1C)
000ecb f419      	BRNE _0x2A9
                 ; 0000 0603 a = 28;}}
000ecc e1ec      	LDI  R30,LOW(28)
000ecd 93e0 0161 	STS  _a,R30
                 _0x2A9:
                 ; 0000 0604 if(kondensatoriaus_rodymo_padetis==18){
                 _0x2A2:
000ecf 91a0 0175 	LDS  R26,_kondensatoriaus_rodymo_padetis
000ed1 31a2      	CPI  R26,LOW(0x12)
000ed2 f589      	BRNE _0x2AA
                 ; 0000 0605 if(OSC==0){
000ed3 91e0 0160 	LDS  R30,_OSC
000ed5 30e0      	CPI  R30,0
000ed6 f419      	BRNE _0x2AB
                 ; 0000 0606 a = 30;}
000ed7 e1ee      	LDI  R30,LOW(30)
000ed8 93e0 0161 	STS  _a,R30
                 ; 0000 0607 if(OSC==4){
                 _0x2AB:
000eda 91a0 0160 	LDS  R26,_OSC
000edc 30a4      	CPI  R26,LOW(0x4)
000edd f419      	BRNE _0x2AC
                 ; 0000 0608 a = 20;}
000ede e1e4      	LDI  R30,LOW(20)
000edf 93e0 0161 	STS  _a,R30
                 ; 0000 0609 if(OSC==8){
                 _0x2AC:
000ee1 91a0 0160 	LDS  R26,_OSC
000ee3 30a8      	CPI  R26,LOW(0x8)
000ee4 f419      	BRNE _0x2AD
                 ; 0000 060A a = 27;}
000ee5 e1eb      	LDI  R30,LOW(27)
000ee6 93e0 0161 	STS  _a,R30
                 ; 0000 060B if(OSC==12){
                 _0x2AD:
000ee8 91a0 0160 	LDS  R26,_OSC
000eea 30ac      	CPI  R26,LOW(0xC)
000eeb f419      	BRNE _0x2AE
                 ; 0000 060C a = 5;}
000eec e0e5      	LDI  R30,LOW(5)
000eed 93e0 0161 	STS  _a,R30
                 ; 0000 060D if(OSC==20){
                 _0x2AE:
000eef 91a0 0160 	LDS  R26,_OSC
000ef1 31a4      	CPI  R26,LOW(0x14)
000ef2 f419      	BRNE _0x2AF
                 ; 0000 060E a = 26;}
000ef3 e1ea      	LDI  R30,LOW(26)
000ef4 93e0 0161 	STS  _a,R30
                 ; 0000 060F if(OSC==24){
                 _0x2AF:
000ef6 91a0 0160 	LDS  R26,_OSC
000ef8 31a8      	CPI  R26,LOW(0x18)
000ef9 f419      	BRNE _0x2B0
                 ; 0000 0610 a = 28;}
000efa e1ec      	LDI  R30,LOW(28)
000efb 93e0 0161 	STS  _a,R30
                 ; 0000 0611 if(OSC==28){
                 _0x2B0:
000efd 91a0 0160 	LDS  R26,_OSC
000eff 31ac      	CPI  R26,LOW(0x1C)
000f00 f419      	BRNE _0x2B1
                 ; 0000 0612 a = 5;}}
000f01 e0e5      	LDI  R30,LOW(5)
000f02 93e0 0161 	STS  _a,R30
                 _0x2B1:
                 ; 0000 0613 if(kondensatoriaus_rodymo_padetis==19){
                 _0x2AA:
000f04 91a0 0175 	LDS  R26,_kondensatoriaus_rodymo_padetis
000f06 31a3      	CPI  R26,LOW(0x13)
000f07 f589      	BRNE _0x2B2
                 ; 0000 0614 if(OSC==0){
000f08 91e0 0160 	LDS  R30,_OSC
000f0a 30e0      	CPI  R30,0
000f0b f419      	BRNE _0x2B3
                 ; 0000 0615 a = 20;}
000f0c e1e4      	LDI  R30,LOW(20)
000f0d 93e0 0161 	STS  _a,R30
                 ; 0000 0616 if(OSC==4){
                 _0x2B3:
000f0f 91a0 0160 	LDS  R26,_OSC
000f11 30a4      	CPI  R26,LOW(0x4)
000f12 f419      	BRNE _0x2B4
                 ; 0000 0617 a = 27;}
000f13 e1eb      	LDI  R30,LOW(27)
000f14 93e0 0161 	STS  _a,R30
                 ; 0000 0618 if(OSC==8){
                 _0x2B4:
000f16 91a0 0160 	LDS  R26,_OSC
000f18 30a8      	CPI  R26,LOW(0x8)
000f19 f419      	BRNE _0x2B5
                 ; 0000 0619 a = 5;}
000f1a e0e5      	LDI  R30,LOW(5)
000f1b 93e0 0161 	STS  _a,R30
                 ; 0000 061A if(OSC==16){
                 _0x2B5:
000f1d 91a0 0160 	LDS  R26,_OSC
000f1f 31a0      	CPI  R26,LOW(0x10)
000f20 f419      	BRNE _0x2B6
                 ; 0000 061B a = 26;}
000f21 e1ea      	LDI  R30,LOW(26)
000f22 93e0 0161 	STS  _a,R30
                 ; 0000 061C if(OSC==20){
                 _0x2B6:
000f24 91a0 0160 	LDS  R26,_OSC
000f26 31a4      	CPI  R26,LOW(0x14)
000f27 f419      	BRNE _0x2B7
                 ; 0000 061D a = 28;}
000f28 e1ec      	LDI  R30,LOW(28)
000f29 93e0 0161 	STS  _a,R30
                 ; 0000 061E if(OSC==24){
                 _0x2B7:
000f2b 91a0 0160 	LDS  R26,_OSC
000f2d 31a8      	CPI  R26,LOW(0x18)
000f2e f419      	BRNE _0x2B8
                 ; 0000 061F a = 5;}
000f2f e0e5      	LDI  R30,LOW(5)
000f30 93e0 0161 	STS  _a,R30
                 ; 0000 0620 if(OSC==28){
                 _0x2B8:
000f32 91a0 0160 	LDS  R26,_OSC
000f34 31ac      	CPI  R26,LOW(0x1C)
000f35 f419      	BRNE _0x2B9
                 ; 0000 0621 a = 13;}}
000f36 e0ed      	LDI  R30,LOW(13)
000f37 93e0 0161 	STS  _a,R30
                 _0x2B9:
                 ; 0000 0622 if(kondensatoriaus_rodymo_padetis==20){
                 _0x2B2:
000f39 91a0 0175 	LDS  R26,_kondensatoriaus_rodymo_padetis
000f3b 31a4      	CPI  R26,LOW(0x14)
000f3c f589      	BRNE _0x2BA
                 ; 0000 0623 if(OSC==0){
000f3d 91e0 0160 	LDS  R30,_OSC
000f3f 30e0      	CPI  R30,0
000f40 f419      	BRNE _0x2BB
                 ; 0000 0624 a = 27;}
000f41 e1eb      	LDI  R30,LOW(27)
000f42 93e0 0161 	STS  _a,R30
                 ; 0000 0625 if(OSC==4){
                 _0x2BB:
000f44 91a0 0160 	LDS  R26,_OSC
000f46 30a4      	CPI  R26,LOW(0x4)
000f47 f419      	BRNE _0x2BC
                 ; 0000 0626 a = 5;}
000f48 e0e5      	LDI  R30,LOW(5)
000f49 93e0 0161 	STS  _a,R30
                 ; 0000 0627 if(OSC==12){
                 _0x2BC:
000f4b 91a0 0160 	LDS  R26,_OSC
000f4d 30ac      	CPI  R26,LOW(0xC)
000f4e f419      	BRNE _0x2BD
                 ; 0000 0628 a = 26;}
000f4f e1ea      	LDI  R30,LOW(26)
000f50 93e0 0161 	STS  _a,R30
                 ; 0000 0629 if(OSC==16){
                 _0x2BD:
000f52 91a0 0160 	LDS  R26,_OSC
000f54 31a0      	CPI  R26,LOW(0x10)
000f55 f419      	BRNE _0x2BE
                 ; 0000 062A a = 28;}
000f56 e1ec      	LDI  R30,LOW(28)
000f57 93e0 0161 	STS  _a,R30
                 ; 0000 062B if(OSC==20){
                 _0x2BE:
000f59 91a0 0160 	LDS  R26,_OSC
000f5b 31a4      	CPI  R26,LOW(0x14)
000f5c f419      	BRNE _0x2BF
                 ; 0000 062C a = 5;}
000f5d e0e5      	LDI  R30,LOW(5)
000f5e 93e0 0161 	STS  _a,R30
                 ; 0000 062D if(OSC==24){
                 _0x2BF:
000f60 91a0 0160 	LDS  R26,_OSC
000f62 31a8      	CPI  R26,LOW(0x18)
000f63 f419      	BRNE _0x2C0
                 ; 0000 062E a = 13;}
000f64 e0ed      	LDI  R30,LOW(13)
000f65 93e0 0161 	STS  _a,R30
                 ; 0000 062F if(OSC==28){
                 _0x2C0:
000f67 91a0 0160 	LDS  R26,_OSC
000f69 31ac      	CPI  R26,LOW(0x1C)
000f6a f419      	BRNE _0x2C1
                 ; 0000 0630 a = 19;}}
000f6b e1e3      	LDI  R30,LOW(19)
000f6c 93e0 0161 	STS  _a,R30
                 _0x2C1:
                 ; 0000 0631 if(kondensatoriaus_rodymo_padetis==21){
                 _0x2BA:
000f6e 91a0 0175 	LDS  R26,_kondensatoriaus_rodymo_padetis
000f70 31a5      	CPI  R26,LOW(0x15)
000f71 f589      	BRNE _0x2C2
                 ; 0000 0632 if(OSC==0){
000f72 91e0 0160 	LDS  R30,_OSC
000f74 30e0      	CPI  R30,0
000f75 f419      	BRNE _0x2C3
                 ; 0000 0633 a = 5;}
000f76 e0e5      	LDI  R30,LOW(5)
000f77 93e0 0161 	STS  _a,R30
                 ; 0000 0634 if(OSC==8){
                 _0x2C3:
000f79 91a0 0160 	LDS  R26,_OSC
000f7b 30a8      	CPI  R26,LOW(0x8)
000f7c f419      	BRNE _0x2C4
                 ; 0000 0635 a = 26;}
000f7d e1ea      	LDI  R30,LOW(26)
000f7e 93e0 0161 	STS  _a,R30
                 ; 0000 0636 if(OSC==12){
                 _0x2C4:
000f80 91a0 0160 	LDS  R26,_OSC
000f82 30ac      	CPI  R26,LOW(0xC)
000f83 f419      	BRNE _0x2C5
                 ; 0000 0637 a = 28;}
000f84 e1ec      	LDI  R30,LOW(28)
000f85 93e0 0161 	STS  _a,R30
                 ; 0000 0638 if(OSC==16){
                 _0x2C5:
000f87 91a0 0160 	LDS  R26,_OSC
000f89 31a0      	CPI  R26,LOW(0x10)
000f8a f419      	BRNE _0x2C6
                 ; 0000 0639 a = 5;}
000f8b e0e5      	LDI  R30,LOW(5)
000f8c 93e0 0161 	STS  _a,R30
                 ; 0000 063A if(OSC==20){
                 _0x2C6:
000f8e 91a0 0160 	LDS  R26,_OSC
000f90 31a4      	CPI  R26,LOW(0x14)
000f91 f419      	BRNE _0x2C7
                 ; 0000 063B a = 13;}
000f92 e0ed      	LDI  R30,LOW(13)
000f93 93e0 0161 	STS  _a,R30
                 ; 0000 063C if(OSC==24){
                 _0x2C7:
000f95 91a0 0160 	LDS  R26,_OSC
000f97 31a8      	CPI  R26,LOW(0x18)
000f98 f419      	BRNE _0x2C8
                 ; 0000 063D a = 19;}
000f99 e1e3      	LDI  R30,LOW(19)
000f9a 93e0 0161 	STS  _a,R30
                 ; 0000 063E if(OSC==28){
                 _0x2C8:
000f9c 91a0 0160 	LDS  R26,_OSC
000f9e 31ac      	CPI  R26,LOW(0x1C)
000f9f f419      	BRNE _0x2C9
                 ; 0000 063F a = 10;}}
000fa0 e0ea      	LDI  R30,LOW(10)
000fa1 93e0 0161 	STS  _a,R30
                 _0x2C9:
                 ; 0000 0640 if(kondensatoriaus_rodymo_padetis==22){
                 _0x2C2:
000fa3 91a0 0175 	LDS  R26,_kondensatoriaus_rodymo_padetis
000fa5 31a6      	CPI  R26,LOW(0x16)
000fa6 f589      	BRNE _0x2CA
                 ; 0000 0641 if(OSC==4){
000fa7 91a0 0160 	LDS  R26,_OSC
000fa9 30a4      	CPI  R26,LOW(0x4)
000faa f419      	BRNE _0x2CB
                 ; 0000 0642 a = 26;}
000fab e1ea      	LDI  R30,LOW(26)
000fac 93e0 0161 	STS  _a,R30
                 ; 0000 0643 if(OSC==8){
                 _0x2CB:
000fae 91a0 0160 	LDS  R26,_OSC
000fb0 30a8      	CPI  R26,LOW(0x8)
000fb1 f419      	BRNE _0x2CC
                 ; 0000 0644 a = 28;}
000fb2 e1ec      	LDI  R30,LOW(28)
000fb3 93e0 0161 	STS  _a,R30
                 ; 0000 0645 if(OSC==12){
                 _0x2CC:
000fb5 91a0 0160 	LDS  R26,_OSC
000fb7 30ac      	CPI  R26,LOW(0xC)
000fb8 f419      	BRNE _0x2CD
                 ; 0000 0646 a = 5;}
000fb9 e0e5      	LDI  R30,LOW(5)
000fba 93e0 0161 	STS  _a,R30
                 ; 0000 0647 if(OSC==16){
                 _0x2CD:
000fbc 91a0 0160 	LDS  R26,_OSC
000fbe 31a0      	CPI  R26,LOW(0x10)
000fbf f419      	BRNE _0x2CE
                 ; 0000 0648 a = 13;}
000fc0 e0ed      	LDI  R30,LOW(13)
000fc1 93e0 0161 	STS  _a,R30
                 ; 0000 0649 if(OSC==20){
                 _0x2CE:
000fc3 91a0 0160 	LDS  R26,_OSC
000fc5 31a4      	CPI  R26,LOW(0x14)
000fc6 f419      	BRNE _0x2CF
                 ; 0000 064A a = 19;}
000fc7 e1e3      	LDI  R30,LOW(19)
000fc8 93e0 0161 	STS  _a,R30
                 ; 0000 064B if(OSC==24){
                 _0x2CF:
000fca 91a0 0160 	LDS  R26,_OSC
000fcc 31a8      	CPI  R26,LOW(0x18)
000fcd f419      	BRNE _0x2D0
                 ; 0000 064C a = 10;}
000fce e0ea      	LDI  R30,LOW(10)
000fcf 93e0 0161 	STS  _a,R30
                 ; 0000 064D if(OSC==28){
                 _0x2D0:
000fd1 91a0 0160 	LDS  R26,_OSC
000fd3 31ac      	CPI  R26,LOW(0x1C)
000fd4 f419      	BRNE _0x2D1
                 ; 0000 064E a = 5;}}
000fd5 e0e5      	LDI  R30,LOW(5)
000fd6 93e0 0161 	STS  _a,R30
                 _0x2D1:
                 ; 0000 064F if(kondensatoriaus_rodymo_padetis==23){
                 _0x2CA:
000fd8 91a0 0175 	LDS  R26,_kondensatoriaus_rodymo_padetis
000fda 31a7      	CPI  R26,LOW(0x17)
000fdb f589      	BRNE _0x2D2
                 ; 0000 0650 if(OSC==0){
000fdc 91e0 0160 	LDS  R30,_OSC
000fde 30e0      	CPI  R30,0
000fdf f419      	BRNE _0x2D3
                 ; 0000 0651 a = 26;}
000fe0 e1ea      	LDI  R30,LOW(26)
000fe1 93e0 0161 	STS  _a,R30
                 ; 0000 0652 if(OSC==4){
                 _0x2D3:
000fe3 91a0 0160 	LDS  R26,_OSC
000fe5 30a4      	CPI  R26,LOW(0x4)
000fe6 f419      	BRNE _0x2D4
                 ; 0000 0653 a = 28;}
000fe7 e1ec      	LDI  R30,LOW(28)
000fe8 93e0 0161 	STS  _a,R30
                 ; 0000 0654 if(OSC==8){
                 _0x2D4:
000fea 91a0 0160 	LDS  R26,_OSC
000fec 30a8      	CPI  R26,LOW(0x8)
000fed f419      	BRNE _0x2D5
                 ; 0000 0655 a = 5;}
000fee e0e5      	LDI  R30,LOW(5)
000fef 93e0 0161 	STS  _a,R30
                 ; 0000 0656 if(OSC==12){
                 _0x2D5:
000ff1 91a0 0160 	LDS  R26,_OSC
000ff3 30ac      	CPI  R26,LOW(0xC)
000ff4 f419      	BRNE _0x2D6
                 ; 0000 0657 a = 13;}
000ff5 e0ed      	LDI  R30,LOW(13)
000ff6 93e0 0161 	STS  _a,R30
                 ; 0000 0658 if(OSC==16){
                 _0x2D6:
000ff8 91a0 0160 	LDS  R26,_OSC
000ffa 31a0      	CPI  R26,LOW(0x10)
000ffb f419      	BRNE _0x2D7
                 ; 0000 0659 a = 19;}
000ffc e1e3      	LDI  R30,LOW(19)
000ffd 93e0 0161 	STS  _a,R30
                 ; 0000 065A if(OSC==20){
                 _0x2D7:
000fff 91a0 0160 	LDS  R26,_OSC
001001 31a4      	CPI  R26,LOW(0x14)
001002 f419      	BRNE _0x2D8
                 ; 0000 065B a = 10;}
001003 e0ea      	LDI  R30,LOW(10)
001004 93e0 0161 	STS  _a,R30
                 ; 0000 065C if(OSC==24){
                 _0x2D8:
001006 91a0 0160 	LDS  R26,_OSC
001008 31a8      	CPI  R26,LOW(0x18)
001009 f419      	BRNE _0x2D9
                 ; 0000 065D a = 5;}}
00100a e0e5      	LDI  R30,LOW(5)
00100b 93e0 0161 	STS  _a,R30
                 _0x2D9:
                 ; 0000 065E if(kondensatoriaus_rodymo_padetis==24){
                 _0x2D2:
00100d 91a0 0175 	LDS  R26,_kondensatoriaus_rodymo_padetis
00100f 31a8      	CPI  R26,LOW(0x18)
001010 f551      	BRNE _0x2DA
                 ; 0000 065F if(OSC==0){
001011 91e0 0160 	LDS  R30,_OSC
001013 30e0      	CPI  R30,0
001014 f419      	BRNE _0x2DB
                 ; 0000 0660 a = 28;}
001015 e1ec      	LDI  R30,LOW(28)
001016 93e0 0161 	STS  _a,R30
                 ; 0000 0661 if(OSC==4){
                 _0x2DB:
001018 91a0 0160 	LDS  R26,_OSC
00101a 30a4      	CPI  R26,LOW(0x4)
00101b f419      	BRNE _0x2DC
                 ; 0000 0662 a = 5;}
00101c e0e5      	LDI  R30,LOW(5)
00101d 93e0 0161 	STS  _a,R30
                 ; 0000 0663 if(OSC==8){
                 _0x2DC:
00101f 91a0 0160 	LDS  R26,_OSC
001021 30a8      	CPI  R26,LOW(0x8)
001022 f419      	BRNE _0x2DD
                 ; 0000 0664 a = 13;}
001023 e0ed      	LDI  R30,LOW(13)
001024 93e0 0161 	STS  _a,R30
                 ; 0000 0665 if(OSC==12){
                 _0x2DD:
001026 91a0 0160 	LDS  R26,_OSC
001028 30ac      	CPI  R26,LOW(0xC)
001029 f419      	BRNE _0x2DE
                 ; 0000 0666 a = 19;}
00102a e1e3      	LDI  R30,LOW(19)
00102b 93e0 0161 	STS  _a,R30
                 ; 0000 0667 if(OSC==16){
                 _0x2DE:
00102d 91a0 0160 	LDS  R26,_OSC
00102f 31a0      	CPI  R26,LOW(0x10)
001030 f419      	BRNE _0x2DF
                 ; 0000 0668 a = 10;}
001031 e0ea      	LDI  R30,LOW(10)
001032 93e0 0161 	STS  _a,R30
                 ; 0000 0669 if(OSC==20){
                 _0x2DF:
001034 91a0 0160 	LDS  R26,_OSC
001036 31a4      	CPI  R26,LOW(0x14)
001037 f419      	BRNE _0x2E0
                 ; 0000 066A a = 5;}}
001038 e0e5      	LDI  R30,LOW(5)
001039 93e0 0161 	STS  _a,R30
                 _0x2E0:
                 ; 0000 066B if(kondensatoriaus_rodymo_padetis==25){
                 _0x2DA:
00103b 91a0 0175 	LDS  R26,_kondensatoriaus_rodymo_padetis
00103d 31a9      	CPI  R26,LOW(0x19)
00103e f519      	BRNE _0x2E1
                 ; 0000 066C if(OSC==0){
00103f 91e0 0160 	LDS  R30,_OSC
001041 30e0      	CPI  R30,0
001042 f419      	BRNE _0x2E2
                 ; 0000 066D a = 5;}
001043 e0e5      	LDI  R30,LOW(5)
001044 93e0 0161 	STS  _a,R30
                 ; 0000 066E if(OSC==4){
                 _0x2E2:
001046 91a0 0160 	LDS  R26,_OSC
001048 30a4      	CPI  R26,LOW(0x4)
001049 f419      	BRNE _0x2E3
                 ; 0000 066F a = 13;}
00104a e0ed      	LDI  R30,LOW(13)
00104b 93e0 0161 	STS  _a,R30
                 ; 0000 0670 if(OSC==8){
                 _0x2E3:
00104d 91a0 0160 	LDS  R26,_OSC
00104f 30a8      	CPI  R26,LOW(0x8)
001050 f419      	BRNE _0x2E4
                 ; 0000 0671 a = 19;}
001051 e1e3      	LDI  R30,LOW(19)
001052 93e0 0161 	STS  _a,R30
                 ; 0000 0672 if(OSC==12){
                 _0x2E4:
001054 91a0 0160 	LDS  R26,_OSC
001056 30ac      	CPI  R26,LOW(0xC)
001057 f419      	BRNE _0x2E5
                 ; 0000 0673 a = 10;}
001058 e0ea      	LDI  R30,LOW(10)
001059 93e0 0161 	STS  _a,R30
                 ; 0000 0674 if(OSC==16){
                 _0x2E5:
00105b 91a0 0160 	LDS  R26,_OSC
00105d 31a0      	CPI  R26,LOW(0x10)
00105e f419      	BRNE _0x2E6
                 ; 0000 0675 a = 5;}}
00105f e0e5      	LDI  R30,LOW(5)
001060 93e0 0161 	STS  _a,R30
                 _0x2E6:
                 ; 0000 0676 if(kondensatoriaus_rodymo_padetis==26){
                 _0x2E1:
001062 91a0 0175 	LDS  R26,_kondensatoriaus_rodymo_padetis
001064 31aa      	CPI  R26,LOW(0x1A)
001065 f4e1      	BRNE _0x2E7
                 ; 0000 0677 if(OSC==0){
001066 91e0 0160 	LDS  R30,_OSC
001068 30e0      	CPI  R30,0
001069 f419      	BRNE _0x2E8
                 ; 0000 0678 a = 13;}
00106a e0ed      	LDI  R30,LOW(13)
00106b 93e0 0161 	STS  _a,R30
                 ; 0000 0679 if(OSC==4){
                 _0x2E8:
00106d 91a0 0160 	LDS  R26,_OSC
00106f 30a4      	CPI  R26,LOW(0x4)
001070 f419      	BRNE _0x2E9
                 ; 0000 067A a = 19;}
001071 e1e3      	LDI  R30,LOW(19)
001072 93e0 0161 	STS  _a,R30
                 ; 0000 067B if(OSC==8){
                 _0x2E9:
001074 91a0 0160 	LDS  R26,_OSC
001076 30a8      	CPI  R26,LOW(0x8)
001077 f419      	BRNE _0x2EA
                 ; 0000 067C a = 10;}
001078 e0ea      	LDI  R30,LOW(10)
001079 93e0 0161 	STS  _a,R30
                 ; 0000 067D if(OSC==12){
                 _0x2EA:
00107b 91a0 0160 	LDS  R26,_OSC
00107d 30ac      	CPI  R26,LOW(0xC)
00107e f419      	BRNE _0x2EB
                 ; 0000 067E a = 5;}}
00107f e0e5      	LDI  R30,LOW(5)
001080 93e0 0161 	STS  _a,R30
                 _0x2EB:
                 ; 0000 067F if(kondensatoriaus_rodymo_padetis==27){
                 _0x2E7:
001082 91a0 0175 	LDS  R26,_kondensatoriaus_rodymo_padetis
001084 31ab      	CPI  R26,LOW(0x1B)
001085 f4a9      	BRNE _0x2EC
                 ; 0000 0680 if(OSC==0){
001086 91e0 0160 	LDS  R30,_OSC
001088 30e0      	CPI  R30,0
001089 f419      	BRNE _0x2ED
                 ; 0000 0681 a = 19;}
00108a e1e3      	LDI  R30,LOW(19)
00108b 93e0 0161 	STS  _a,R30
                 ; 0000 0682 if(OSC==4){
                 _0x2ED:
00108d 91a0 0160 	LDS  R26,_OSC
00108f 30a4      	CPI  R26,LOW(0x4)
001090 f419      	BRNE _0x2EE
                 ; 0000 0683 a = 10;}
001091 e0ea      	LDI  R30,LOW(10)
001092 93e0 0161 	STS  _a,R30
                 ; 0000 0684 if(OSC==8){
                 _0x2EE:
001094 91a0 0160 	LDS  R26,_OSC
001096 30a8      	CPI  R26,LOW(0x8)
001097 f419      	BRNE _0x2EF
                 ; 0000 0685 a = 5;}}
001098 e0e5      	LDI  R30,LOW(5)
001099 93e0 0161 	STS  _a,R30
                 _0x2EF:
                 ; 0000 0686 if(kondensatoriaus_rodymo_padetis==28){
                 _0x2EC:
00109b 91a0 0175 	LDS  R26,_kondensatoriaus_rodymo_padetis
00109d 31ac      	CPI  R26,LOW(0x1C)
00109e f471      	BRNE _0x2F0
                 ; 0000 0687 if(OSC==0){
00109f 91e0 0160 	LDS  R30,_OSC
0010a1 30e0      	CPI  R30,0
0010a2 f419      	BRNE _0x2F1
                 ; 0000 0688 a = 10;}
0010a3 e0ea      	LDI  R30,LOW(10)
0010a4 93e0 0161 	STS  _a,R30
                 ; 0000 0689 if(OSC==4){
                 _0x2F1:
0010a6 91a0 0160 	LDS  R26,_OSC
0010a8 30a4      	CPI  R26,LOW(0x4)
0010a9 f419      	BRNE _0x2F2
                 ; 0000 068A a = 5;}}
0010aa e0e5      	LDI  R30,LOW(5)
0010ab 93e0 0161 	STS  _a,R30
                 _0x2F2:
                 ; 0000 068B if(kondensatoriaus_rodymo_padetis==29){
                 _0x2F0:
0010ad 91a0 0175 	LDS  R26,_kondensatoriaus_rodymo_padetis
0010af 31ad      	CPI  R26,LOW(0x1D)
0010b0 f439      	BRNE _0x2F3
                 ; 0000 068C if(OSC==0){
0010b1 91e0 0160 	LDS  R30,_OSC
0010b3 30e0      	CPI  R30,0
0010b4 f419      	BRNE _0x2F4
                 ; 0000 068D a = 5;}}}
0010b5 e0e5      	LDI  R30,LOW(5)
0010b6 93e0 0161 	STS  _a,R30
                 _0x2F4:
                 _0x2F3:
                 ; 0000 068E 
                 ; 0000 068F 
                 ; 0000 0690 if(kondensatorius_vidutinis){
                 _0x299:
0010b8 91e0 0173 	LDS  R30,_kondensatorius_vidutinis
0010ba 30e0      	CPI  R30,0
0010bb f411      	BRNE PC+3
0010bc 940c 1552 	JMP _0x2F5
                 ; 0000 0691 if(kondensatoriaus_rodymo_padetis==1){
0010be 91a0 0175 	LDS  R26,_kondensatoriaus_rodymo_padetis
0010c0 30a1      	CPI  R26,LOW(0x1)
0010c1 f439      	BRNE _0x2F6
                 ; 0000 0692 if(OSC==28){
0010c2 91a0 0160 	LDS  R26,_OSC
0010c4 31ac      	CPI  R26,LOW(0x1C)
0010c5 f419      	BRNE _0x2F7
                 ; 0000 0693 a = 12;}}
0010c6 e0ec      	LDI  R30,LOW(12)
0010c7 93e0 0161 	STS  _a,R30
                 _0x2F7:
                 ; 0000 0694 if(kondensatoriaus_rodymo_padetis==2){
                 _0x2F6:
0010c9 91a0 0175 	LDS  R26,_kondensatoriaus_rodymo_padetis
0010cb 30a2      	CPI  R26,LOW(0x2)
0010cc f471      	BRNE _0x2F8
                 ; 0000 0695 if(OSC==24){
0010cd 91a0 0160 	LDS  R26,_OSC
0010cf 31a8      	CPI  R26,LOW(0x18)
0010d0 f419      	BRNE _0x2F9
                 ; 0000 0696 a = 12;}
0010d1 e0ec      	LDI  R30,LOW(12)
0010d2 93e0 0161 	STS  _a,R30
                 ; 0000 0697 if(OSC==28){
                 _0x2F9:
0010d4 91a0 0160 	LDS  R26,_OSC
0010d6 31ac      	CPI  R26,LOW(0x1C)
0010d7 f419      	BRNE _0x2FA
                 ; 0000 0698 a = 23;}}
0010d8 e1e7      	LDI  R30,LOW(23)
0010d9 93e0 0161 	STS  _a,R30
                 _0x2FA:
                 ; 0000 0699 if(kondensatoriaus_rodymo_padetis==3){
                 _0x2F8:
0010db 91a0 0175 	LDS  R26,_kondensatoriaus_rodymo_padetis
0010dd 30a3      	CPI  R26,LOW(0x3)
0010de f4a9      	BRNE _0x2FB
                 ; 0000 069A if(OSC==20){
0010df 91a0 0160 	LDS  R26,_OSC
0010e1 31a4      	CPI  R26,LOW(0x14)
0010e2 f419      	BRNE _0x2FC
                 ; 0000 069B a = 12;}
0010e3 e0ec      	LDI  R30,LOW(12)
0010e4 93e0 0161 	STS  _a,R30
                 ; 0000 069C if(OSC==24){
                 _0x2FC:
0010e6 91a0 0160 	LDS  R26,_OSC
0010e8 31a8      	CPI  R26,LOW(0x18)
0010e9 f419      	BRNE _0x2FD
                 ; 0000 069D a = 23;}
0010ea e1e7      	LDI  R30,LOW(23)
0010eb 93e0 0161 	STS  _a,R30
                 ; 0000 069E if(OSC==28){
                 _0x2FD:
0010ed 91a0 0160 	LDS  R26,_OSC
0010ef 31ac      	CPI  R26,LOW(0x1C)
0010f0 f419      	BRNE _0x2FE
                 ; 0000 069F a = 34;}}
0010f1 e2e2      	LDI  R30,LOW(34)
0010f2 93e0 0161 	STS  _a,R30
                 _0x2FE:
                 ; 0000 06A0 if(kondensatoriaus_rodymo_padetis==4){
                 _0x2FB:
0010f4 91a0 0175 	LDS  R26,_kondensatoriaus_rodymo_padetis
0010f6 30a4      	CPI  R26,LOW(0x4)
0010f7 f4e1      	BRNE _0x2FF
                 ; 0000 06A1 if(OSC==16){
0010f8 91a0 0160 	LDS  R26,_OSC
0010fa 31a0      	CPI  R26,LOW(0x10)
0010fb f419      	BRNE _0x300
                 ; 0000 06A2 a = 12;}
0010fc e0ec      	LDI  R30,LOW(12)
0010fd 93e0 0161 	STS  _a,R30
                 ; 0000 06A3 if(OSC==20){
                 _0x300:
0010ff 91a0 0160 	LDS  R26,_OSC
001101 31a4      	CPI  R26,LOW(0x14)
001102 f419      	BRNE _0x301
                 ; 0000 06A4 a = 23;}
001103 e1e7      	LDI  R30,LOW(23)
001104 93e0 0161 	STS  _a,R30
                 ; 0000 06A5 if(OSC==24){
                 _0x301:
001106 91a0 0160 	LDS  R26,_OSC
001108 31a8      	CPI  R26,LOW(0x18)
001109 f419      	BRNE _0x302
                 ; 0000 06A6 a = 34;}
00110a e2e2      	LDI  R30,LOW(34)
00110b 93e0 0161 	STS  _a,R30
                 ; 0000 06A7 if(OSC==28){
                 _0x302:
00110d 91a0 0160 	LDS  R26,_OSC
00110f 31ac      	CPI  R26,LOW(0x1C)
001110 f419      	BRNE _0x303
                 ; 0000 06A8 a = 14;}}
001111 e0ee      	LDI  R30,LOW(14)
001112 93e0 0161 	STS  _a,R30
                 _0x303:
                 ; 0000 06A9 if(kondensatoriaus_rodymo_padetis==5){
                 _0x2FF:
001114 91a0 0175 	LDS  R26,_kondensatoriaus_rodymo_padetis
001116 30a5      	CPI  R26,LOW(0x5)
001117 f519      	BRNE _0x304
                 ; 0000 06AA if(OSC==12){
001118 91a0 0160 	LDS  R26,_OSC
00111a 30ac      	CPI  R26,LOW(0xC)
00111b f419      	BRNE _0x305
                 ; 0000 06AB a = 12;}
00111c e0ec      	LDI  R30,LOW(12)
00111d 93e0 0161 	STS  _a,R30
                 ; 0000 06AC if(OSC==16){
                 _0x305:
00111f 91a0 0160 	LDS  R26,_OSC
001121 31a0      	CPI  R26,LOW(0x10)
001122 f419      	BRNE _0x306
                 ; 0000 06AD a = 23;}
001123 e1e7      	LDI  R30,LOW(23)
001124 93e0 0161 	STS  _a,R30
                 ; 0000 06AE if(OSC==20){
                 _0x306:
001126 91a0 0160 	LDS  R26,_OSC
001128 31a4      	CPI  R26,LOW(0x14)
001129 f419      	BRNE _0x307
                 ; 0000 06AF a = 34;}
00112a e2e2      	LDI  R30,LOW(34)
00112b 93e0 0161 	STS  _a,R30
                 ; 0000 06B0 if(OSC==24){
                 _0x307:
00112d 91a0 0160 	LDS  R26,_OSC
00112f 31a8      	CPI  R26,LOW(0x18)
001130 f419      	BRNE _0x308
                 ; 0000 06B1 a = 14;}
001131 e0ee      	LDI  R30,LOW(14)
001132 93e0 0161 	STS  _a,R30
                 ; 0000 06B2 if(OSC==28){
                 _0x308:
001134 91a0 0160 	LDS  R26,_OSC
001136 31ac      	CPI  R26,LOW(0x1C)
001137 f419      	BRNE _0x309
                 ; 0000 06B3 a = 15;}}
001138 e0ef      	LDI  R30,LOW(15)
001139 93e0 0161 	STS  _a,R30
                 _0x309:
                 ; 0000 06B4 if(kondensatoriaus_rodymo_padetis==6){
                 _0x304:
00113b 91a0 0175 	LDS  R26,_kondensatoriaus_rodymo_padetis
00113d 30a6      	CPI  R26,LOW(0x6)
00113e f551      	BRNE _0x30A
                 ; 0000 06B5 if(OSC==8){
00113f 91a0 0160 	LDS  R26,_OSC
001141 30a8      	CPI  R26,LOW(0x8)
001142 f419      	BRNE _0x30B
                 ; 0000 06B6 a = 12;}
001143 e0ec      	LDI  R30,LOW(12)
001144 93e0 0161 	STS  _a,R30
                 ; 0000 06B7 if(OSC==12){
                 _0x30B:
001146 91a0 0160 	LDS  R26,_OSC
001148 30ac      	CPI  R26,LOW(0xC)
001149 f419      	BRNE _0x30C
                 ; 0000 06B8 a = 23;}
00114a e1e7      	LDI  R30,LOW(23)
00114b 93e0 0161 	STS  _a,R30
                 ; 0000 06B9 if(OSC==16){
                 _0x30C:
00114d 91a0 0160 	LDS  R26,_OSC
00114f 31a0      	CPI  R26,LOW(0x10)
001150 f419      	BRNE _0x30D
                 ; 0000 06BA a = 34;}
001151 e2e2      	LDI  R30,LOW(34)
001152 93e0 0161 	STS  _a,R30
                 ; 0000 06BB if(OSC==20){
                 _0x30D:
001154 91a0 0160 	LDS  R26,_OSC
001156 31a4      	CPI  R26,LOW(0x14)
001157 f419      	BRNE _0x30E
                 ; 0000 06BC a = 14;}
001158 e0ee      	LDI  R30,LOW(14)
001159 93e0 0161 	STS  _a,R30
                 ; 0000 06BD if(OSC==24){
                 _0x30E:
00115b 91a0 0160 	LDS  R26,_OSC
00115d 31a8      	CPI  R26,LOW(0x18)
00115e f419      	BRNE _0x30F
                 ; 0000 06BE a = 15;}
00115f e0ef      	LDI  R30,LOW(15)
001160 93e0 0161 	STS  _a,R30
                 ; 0000 06BF if(OSC==28){
                 _0x30F:
001162 91a0 0160 	LDS  R26,_OSC
001164 31ac      	CPI  R26,LOW(0x1C)
001165 f419      	BRNE _0x310
                 ; 0000 06C0 a = 34;}}
001166 e2e2      	LDI  R30,LOW(34)
001167 93e0 0161 	STS  _a,R30
                 _0x310:
                 ; 0000 06C1 if(kondensatoriaus_rodymo_padetis==7){
                 _0x30A:
001169 91a0 0175 	LDS  R26,_kondensatoriaus_rodymo_padetis
00116b 30a7      	CPI  R26,LOW(0x7)
00116c f589      	BRNE _0x311
                 ; 0000 06C2 if(OSC==4){
00116d 91a0 0160 	LDS  R26,_OSC
00116f 30a4      	CPI  R26,LOW(0x4)
001170 f419      	BRNE _0x312
                 ; 0000 06C3 a = 12;}
001171 e0ec      	LDI  R30,LOW(12)
001172 93e0 0161 	STS  _a,R30
                 ; 0000 06C4 if(OSC==8){
                 _0x312:
001174 91a0 0160 	LDS  R26,_OSC
001176 30a8      	CPI  R26,LOW(0x8)
001177 f419      	BRNE _0x313
                 ; 0000 06C5 a = 23;}
001178 e1e7      	LDI  R30,LOW(23)
001179 93e0 0161 	STS  _a,R30
                 ; 0000 06C6 if(OSC==12){
                 _0x313:
00117b 91a0 0160 	LDS  R26,_OSC
00117d 30ac      	CPI  R26,LOW(0xC)
00117e f419      	BRNE _0x314
                 ; 0000 06C7 a = 34;}
00117f e2e2      	LDI  R30,LOW(34)
001180 93e0 0161 	STS  _a,R30
                 ; 0000 06C8 if(OSC==16){
                 _0x314:
001182 91a0 0160 	LDS  R26,_OSC
001184 31a0      	CPI  R26,LOW(0x10)
001185 f419      	BRNE _0x315
                 ; 0000 06C9 a = 14;}
001186 e0ee      	LDI  R30,LOW(14)
001187 93e0 0161 	STS  _a,R30
                 ; 0000 06CA if(OSC==20){
                 _0x315:
001189 91a0 0160 	LDS  R26,_OSC
00118b 31a4      	CPI  R26,LOW(0x14)
00118c f419      	BRNE _0x316
                 ; 0000 06CB a = 15;}
00118d e0ef      	LDI  R30,LOW(15)
00118e 93e0 0161 	STS  _a,R30
                 ; 0000 06CC if(OSC==24){
                 _0x316:
001190 91a0 0160 	LDS  R26,_OSC
001192 31a8      	CPI  R26,LOW(0x18)
001193 f419      	BRNE _0x317
                 ; 0000 06CD a = 34;}
001194 e2e2      	LDI  R30,LOW(34)
001195 93e0 0161 	STS  _a,R30
                 ; 0000 06CE if(OSC==28){
                 _0x317:
001197 91a0 0160 	LDS  R26,_OSC
001199 31ac      	CPI  R26,LOW(0x1C)
00119a f419      	BRNE _0x318
                 ; 0000 06CF a = 5;}}
00119b e0e5      	LDI  R30,LOW(5)
00119c 93e0 0161 	STS  _a,R30
                 _0x318:
                 ; 0000 06D0 if(kondensatoriaus_rodymo_padetis==8){
                 _0x311:
00119e 91a0 0175 	LDS  R26,_kondensatoriaus_rodymo_padetis
0011a0 30a8      	CPI  R26,LOW(0x8)
0011a1 f5c1      	BRNE _0x319
                 ; 0000 06D1 if(OSC==0){
0011a2 91e0 0160 	LDS  R30,_OSC
0011a4 30e0      	CPI  R30,0
0011a5 f419      	BRNE _0x31A
                 ; 0000 06D2 a = 12;}
0011a6 e0ec      	LDI  R30,LOW(12)
0011a7 93e0 0161 	STS  _a,R30
                 ; 0000 06D3 if(OSC==4){
                 _0x31A:
0011a9 91a0 0160 	LDS  R26,_OSC
0011ab 30a4      	CPI  R26,LOW(0x4)
0011ac f419      	BRNE _0x31B
                 ; 0000 06D4 a = 23;}
0011ad e1e7      	LDI  R30,LOW(23)
0011ae 93e0 0161 	STS  _a,R30
                 ; 0000 06D5 if(OSC==8){
                 _0x31B:
0011b0 91a0 0160 	LDS  R26,_OSC
0011b2 30a8      	CPI  R26,LOW(0x8)
0011b3 f419      	BRNE _0x31C
                 ; 0000 06D6 a = 34;}
0011b4 e2e2      	LDI  R30,LOW(34)
0011b5 93e0 0161 	STS  _a,R30
                 ; 0000 06D7 if(OSC==12){
                 _0x31C:
0011b7 91a0 0160 	LDS  R26,_OSC
0011b9 30ac      	CPI  R26,LOW(0xC)
0011ba f419      	BRNE _0x31D
                 ; 0000 06D8 a = 14;}
0011bb e0ee      	LDI  R30,LOW(14)
0011bc 93e0 0161 	STS  _a,R30
                 ; 0000 06D9 if(OSC==16){
                 _0x31D:
0011be 91a0 0160 	LDS  R26,_OSC
0011c0 31a0      	CPI  R26,LOW(0x10)
0011c1 f419      	BRNE _0x31E
                 ; 0000 06DA a = 15;}
0011c2 e0ef      	LDI  R30,LOW(15)
0011c3 93e0 0161 	STS  _a,R30
                 ; 0000 06DB if(OSC==20){
                 _0x31E:
0011c5 91a0 0160 	LDS  R26,_OSC
0011c7 31a4      	CPI  R26,LOW(0x14)
0011c8 f419      	BRNE _0x31F
                 ; 0000 06DC a = 34;}
0011c9 e2e2      	LDI  R30,LOW(34)
0011ca 93e0 0161 	STS  _a,R30
                 ; 0000 06DD if(OSC==24){
                 _0x31F:
0011cc 91a0 0160 	LDS  R26,_OSC
0011ce 31a8      	CPI  R26,LOW(0x18)
0011cf f419      	BRNE _0x320
                 ; 0000 06DE a = 5;}
0011d0 e0e5      	LDI  R30,LOW(5)
0011d1 93e0 0161 	STS  _a,R30
                 ; 0000 06DF if(OSC==28){
                 _0x320:
0011d3 91a0 0160 	LDS  R26,_OSC
0011d5 31ac      	CPI  R26,LOW(0x1C)
0011d6 f419      	BRNE _0x321
                 ; 0000 06E0 a = 10;}}
0011d7 e0ea      	LDI  R30,LOW(10)
0011d8 93e0 0161 	STS  _a,R30
                 _0x321:
                 ; 0000 06E1 if(kondensatoriaus_rodymo_padetis==9){
                 _0x319:
0011da 91a0 0175 	LDS  R26,_kondensatoriaus_rodymo_padetis
0011dc 30a9      	CPI  R26,LOW(0x9)
0011dd f5c1      	BRNE _0x322
                 ; 0000 06E2 if(OSC==0){
0011de 91e0 0160 	LDS  R30,_OSC
0011e0 30e0      	CPI  R30,0
0011e1 f419      	BRNE _0x323
                 ; 0000 06E3 a = 23;}
0011e2 e1e7      	LDI  R30,LOW(23)
0011e3 93e0 0161 	STS  _a,R30
                 ; 0000 06E4 if(OSC==4){
                 _0x323:
0011e5 91a0 0160 	LDS  R26,_OSC
0011e7 30a4      	CPI  R26,LOW(0x4)
0011e8 f419      	BRNE _0x324
                 ; 0000 06E5 a = 34;}
0011e9 e2e2      	LDI  R30,LOW(34)
0011ea 93e0 0161 	STS  _a,R30
                 ; 0000 06E6 if(OSC==8){
                 _0x324:
0011ec 91a0 0160 	LDS  R26,_OSC
0011ee 30a8      	CPI  R26,LOW(0x8)
0011ef f419      	BRNE _0x325
                 ; 0000 06E7 a = 14;}
0011f0 e0ee      	LDI  R30,LOW(14)
0011f1 93e0 0161 	STS  _a,R30
                 ; 0000 06E8 if(OSC==12){
                 _0x325:
0011f3 91a0 0160 	LDS  R26,_OSC
0011f5 30ac      	CPI  R26,LOW(0xC)
0011f6 f419      	BRNE _0x326
                 ; 0000 06E9 a = 15;}
0011f7 e0ef      	LDI  R30,LOW(15)
0011f8 93e0 0161 	STS  _a,R30
                 ; 0000 06EA if(OSC==16){
                 _0x326:
0011fa 91a0 0160 	LDS  R26,_OSC
0011fc 31a0      	CPI  R26,LOW(0x10)
0011fd f419      	BRNE _0x327
                 ; 0000 06EB a = 34;}
0011fe e2e2      	LDI  R30,LOW(34)
0011ff 93e0 0161 	STS  _a,R30
                 ; 0000 06EC if(OSC==20){
                 _0x327:
001201 91a0 0160 	LDS  R26,_OSC
001203 31a4      	CPI  R26,LOW(0x14)
001204 f419      	BRNE _0x328
                 ; 0000 06ED a = 5;}
001205 e0e5      	LDI  R30,LOW(5)
001206 93e0 0161 	STS  _a,R30
                 ; 0000 06EE if(OSC==24){
                 _0x328:
001208 91a0 0160 	LDS  R26,_OSC
00120a 31a8      	CPI  R26,LOW(0x18)
00120b f419      	BRNE _0x329
                 ; 0000 06EF a = 10;}
00120c e0ea      	LDI  R30,LOW(10)
00120d 93e0 0161 	STS  _a,R30
                 ; 0000 06F0 if(OSC==28){
                 _0x329:
00120f 91a0 0160 	LDS  R26,_OSC
001211 31ac      	CPI  R26,LOW(0x1C)
001212 f419      	BRNE _0x32A
                 ; 0000 06F1 a = 26;}}
001213 e1ea      	LDI  R30,LOW(26)
001214 93e0 0161 	STS  _a,R30
                 _0x32A:
                 ; 0000 06F2 if(kondensatoriaus_rodymo_padetis==10){
                 _0x322:
001216 91a0 0175 	LDS  R26,_kondensatoriaus_rodymo_padetis
001218 30aa      	CPI  R26,LOW(0xA)
001219 f5c1      	BRNE _0x32B
                 ; 0000 06F3 if(OSC==0){
00121a 91e0 0160 	LDS  R30,_OSC
00121c 30e0      	CPI  R30,0
00121d f419      	BRNE _0x32C
                 ; 0000 06F4 a = 34;}
00121e e2e2      	LDI  R30,LOW(34)
00121f 93e0 0161 	STS  _a,R30
                 ; 0000 06F5 if(OSC==4){
                 _0x32C:
001221 91a0 0160 	LDS  R26,_OSC
001223 30a4      	CPI  R26,LOW(0x4)
001224 f419      	BRNE _0x32D
                 ; 0000 06F6 a = 14;}
001225 e0ee      	LDI  R30,LOW(14)
001226 93e0 0161 	STS  _a,R30
                 ; 0000 06F7 if(OSC==8){
                 _0x32D:
001228 91a0 0160 	LDS  R26,_OSC
00122a 30a8      	CPI  R26,LOW(0x8)
00122b f419      	BRNE _0x32E
                 ; 0000 06F8 a = 15;}
00122c e0ef      	LDI  R30,LOW(15)
00122d 93e0 0161 	STS  _a,R30
                 ; 0000 06F9 if(OSC==12){
                 _0x32E:
00122f 91a0 0160 	LDS  R26,_OSC
001231 30ac      	CPI  R26,LOW(0xC)
001232 f419      	BRNE _0x32F
                 ; 0000 06FA a = 34;}
001233 e2e2      	LDI  R30,LOW(34)
001234 93e0 0161 	STS  _a,R30
                 ; 0000 06FB if(OSC==16){
                 _0x32F:
001236 91a0 0160 	LDS  R26,_OSC
001238 31a0      	CPI  R26,LOW(0x10)
001239 f419      	BRNE _0x330
                 ; 0000 06FC a = 5;}
00123a e0e5      	LDI  R30,LOW(5)
00123b 93e0 0161 	STS  _a,R30
                 ; 0000 06FD if(OSC==20){
                 _0x330:
00123d 91a0 0160 	LDS  R26,_OSC
00123f 31a4      	CPI  R26,LOW(0x14)
001240 f419      	BRNE _0x331
                 ; 0000 06FE a = 10;}
001241 e0ea      	LDI  R30,LOW(10)
001242 93e0 0161 	STS  _a,R30
                 ; 0000 06FF if(OSC==24){
                 _0x331:
001244 91a0 0160 	LDS  R26,_OSC
001246 31a8      	CPI  R26,LOW(0x18)
001247 f419      	BRNE _0x332
                 ; 0000 0700 a = 26;}
001248 e1ea      	LDI  R30,LOW(26)
001249 93e0 0161 	STS  _a,R30
                 ; 0000 0701 if(OSC==28){
                 _0x332:
00124b 91a0 0160 	LDS  R26,_OSC
00124d 31ac      	CPI  R26,LOW(0x1C)
00124e f419      	BRNE _0x333
                 ; 0000 0702 a = 23;}}
00124f e1e7      	LDI  R30,LOW(23)
001250 93e0 0161 	STS  _a,R30
                 _0x333:
                 ; 0000 0703 if(kondensatoriaus_rodymo_padetis==11){
                 _0x32B:
001252 91a0 0175 	LDS  R26,_kondensatoriaus_rodymo_padetis
001254 30ab      	CPI  R26,LOW(0xB)
001255 f5c1      	BRNE _0x334
                 ; 0000 0704 if(OSC==0){
001256 91e0 0160 	LDS  R30,_OSC
001258 30e0      	CPI  R30,0
001259 f419      	BRNE _0x335
                 ; 0000 0705 a = 14;}
00125a e0ee      	LDI  R30,LOW(14)
00125b 93e0 0161 	STS  _a,R30
                 ; 0000 0706 if(OSC==4){
                 _0x335:
00125d 91a0 0160 	LDS  R26,_OSC
00125f 30a4      	CPI  R26,LOW(0x4)
001260 f419      	BRNE _0x336
                 ; 0000 0707 a = 15;}
001261 e0ef      	LDI  R30,LOW(15)
001262 93e0 0161 	STS  _a,R30
                 ; 0000 0708 if(OSC==8){
                 _0x336:
001264 91a0 0160 	LDS  R26,_OSC
001266 30a8      	CPI  R26,LOW(0x8)
001267 f419      	BRNE _0x337
                 ; 0000 0709 a = 34;}
001268 e2e2      	LDI  R30,LOW(34)
001269 93e0 0161 	STS  _a,R30
                 ; 0000 070A if(OSC==12){
                 _0x337:
00126b 91a0 0160 	LDS  R26,_OSC
00126d 30ac      	CPI  R26,LOW(0xC)
00126e f419      	BRNE _0x338
                 ; 0000 070B a = 5;}
00126f e0e5      	LDI  R30,LOW(5)
001270 93e0 0161 	STS  _a,R30
                 ; 0000 070C if(OSC==16){
                 _0x338:
001272 91a0 0160 	LDS  R26,_OSC
001274 31a0      	CPI  R26,LOW(0x10)
001275 f419      	BRNE _0x339
                 ; 0000 070D a = 10;}
001276 e0ea      	LDI  R30,LOW(10)
001277 93e0 0161 	STS  _a,R30
                 ; 0000 070E if(OSC==20){
                 _0x339:
001279 91a0 0160 	LDS  R26,_OSC
00127b 31a4      	CPI  R26,LOW(0x14)
00127c f419      	BRNE _0x33A
                 ; 0000 070F a = 26;}
00127d e1ea      	LDI  R30,LOW(26)
00127e 93e0 0161 	STS  _a,R30
                 ; 0000 0710 if(OSC==24){
                 _0x33A:
001280 91a0 0160 	LDS  R26,_OSC
001282 31a8      	CPI  R26,LOW(0x18)
001283 f419      	BRNE _0x33B
                 ; 0000 0711 a = 23;}
001284 e1e7      	LDI  R30,LOW(23)
001285 93e0 0161 	STS  _a,R30
                 ; 0000 0712 if(OSC==28){
                 _0x33B:
001287 91a0 0160 	LDS  R26,_OSC
001289 31ac      	CPI  R26,LOW(0x1C)
00128a f419      	BRNE _0x33C
                 ; 0000 0713 a = 30;}}
00128b e1ee      	LDI  R30,LOW(30)
00128c 93e0 0161 	STS  _a,R30
                 _0x33C:
                 ; 0000 0714 if(kondensatoriaus_rodymo_padetis==12){
                 _0x334:
00128e 91a0 0175 	LDS  R26,_kondensatoriaus_rodymo_padetis
001290 30ac      	CPI  R26,LOW(0xC)
001291 f5c1      	BRNE _0x33D
                 ; 0000 0715 if(OSC==0){
001292 91e0 0160 	LDS  R30,_OSC
001294 30e0      	CPI  R30,0
001295 f419      	BRNE _0x33E
                 ; 0000 0716 a = 15;}
001296 e0ef      	LDI  R30,LOW(15)
001297 93e0 0161 	STS  _a,R30
                 ; 0000 0717 if(OSC==4){
                 _0x33E:
001299 91a0 0160 	LDS  R26,_OSC
00129b 30a4      	CPI  R26,LOW(0x4)
00129c f419      	BRNE _0x33F
                 ; 0000 0718 a = 34;}
00129d e2e2      	LDI  R30,LOW(34)
00129e 93e0 0161 	STS  _a,R30
                 ; 0000 0719 if(OSC==8){
                 _0x33F:
0012a0 91a0 0160 	LDS  R26,_OSC
0012a2 30a8      	CPI  R26,LOW(0x8)
0012a3 f419      	BRNE _0x340
                 ; 0000 071A a = 5;}
0012a4 e0e5      	LDI  R30,LOW(5)
0012a5 93e0 0161 	STS  _a,R30
                 ; 0000 071B if(OSC==12){
                 _0x340:
0012a7 91a0 0160 	LDS  R26,_OSC
0012a9 30ac      	CPI  R26,LOW(0xC)
0012aa f419      	BRNE _0x341
                 ; 0000 071C a = 10;}
0012ab e0ea      	LDI  R30,LOW(10)
0012ac 93e0 0161 	STS  _a,R30
                 ; 0000 071D if(OSC==16){
                 _0x341:
0012ae 91a0 0160 	LDS  R26,_OSC
0012b0 31a0      	CPI  R26,LOW(0x10)
0012b1 f419      	BRNE _0x342
                 ; 0000 071E a = 26;}
0012b2 e1ea      	LDI  R30,LOW(26)
0012b3 93e0 0161 	STS  _a,R30
                 ; 0000 071F if(OSC==20){
                 _0x342:
0012b5 91a0 0160 	LDS  R26,_OSC
0012b7 31a4      	CPI  R26,LOW(0x14)
0012b8 f419      	BRNE _0x343
                 ; 0000 0720 a = 23;}
0012b9 e1e7      	LDI  R30,LOW(23)
0012ba 93e0 0161 	STS  _a,R30
                 ; 0000 0721 if(OSC==24){
                 _0x343:
0012bc 91a0 0160 	LDS  R26,_OSC
0012be 31a8      	CPI  R26,LOW(0x18)
0012bf f419      	BRNE _0x344
                 ; 0000 0722 a = 30;}
0012c0 e1ee      	LDI  R30,LOW(30)
0012c1 93e0 0161 	STS  _a,R30
                 ; 0000 0723 if(OSC==28){
                 _0x344:
0012c3 91a0 0160 	LDS  R26,_OSC
0012c5 31ac      	CPI  R26,LOW(0x1C)
0012c6 f419      	BRNE _0x345
                 ; 0000 0724 a = 20;}}
0012c7 e1e4      	LDI  R30,LOW(20)
0012c8 93e0 0161 	STS  _a,R30
                 _0x345:
                 ; 0000 0725 if(kondensatoriaus_rodymo_padetis==13){
                 _0x33D:
0012ca 91a0 0175 	LDS  R26,_kondensatoriaus_rodymo_padetis
0012cc 30ad      	CPI  R26,LOW(0xD)
0012cd f5c1      	BRNE _0x346
                 ; 0000 0726 if(OSC==0){
0012ce 91e0 0160 	LDS  R30,_OSC
0012d0 30e0      	CPI  R30,0
0012d1 f419      	BRNE _0x347
                 ; 0000 0727 a = 34;}
0012d2 e2e2      	LDI  R30,LOW(34)
0012d3 93e0 0161 	STS  _a,R30
                 ; 0000 0728 if(OSC==4){
                 _0x347:
0012d5 91a0 0160 	LDS  R26,_OSC
0012d7 30a4      	CPI  R26,LOW(0x4)
0012d8 f419      	BRNE _0x348
                 ; 0000 0729 a = 5;}
0012d9 e0e5      	LDI  R30,LOW(5)
0012da 93e0 0161 	STS  _a,R30
                 ; 0000 072A if(OSC==8){
                 _0x348:
0012dc 91a0 0160 	LDS  R26,_OSC
0012de 30a8      	CPI  R26,LOW(0x8)
0012df f419      	BRNE _0x349
                 ; 0000 072B a = 10;}
0012e0 e0ea      	LDI  R30,LOW(10)
0012e1 93e0 0161 	STS  _a,R30
                 ; 0000 072C if(OSC==12){
                 _0x349:
0012e3 91a0 0160 	LDS  R26,_OSC
0012e5 30ac      	CPI  R26,LOW(0xC)
0012e6 f419      	BRNE _0x34A
                 ; 0000 072D a = 26;}
0012e7 e1ea      	LDI  R30,LOW(26)
0012e8 93e0 0161 	STS  _a,R30
                 ; 0000 072E if(OSC==16){
                 _0x34A:
0012ea 91a0 0160 	LDS  R26,_OSC
0012ec 31a0      	CPI  R26,LOW(0x10)
0012ed f419      	BRNE _0x34B
                 ; 0000 072F a = 23;}
0012ee e1e7      	LDI  R30,LOW(23)
0012ef 93e0 0161 	STS  _a,R30
                 ; 0000 0730 if(OSC==20){
                 _0x34B:
0012f1 91a0 0160 	LDS  R26,_OSC
0012f3 31a4      	CPI  R26,LOW(0x14)
0012f4 f419      	BRNE _0x34C
                 ; 0000 0731 a = 30;}
0012f5 e1ee      	LDI  R30,LOW(30)
0012f6 93e0 0161 	STS  _a,R30
                 ; 0000 0732 if(OSC==24){
                 _0x34C:
0012f8 91a0 0160 	LDS  R26,_OSC
0012fa 31a8      	CPI  R26,LOW(0x18)
0012fb f419      	BRNE _0x34D
                 ; 0000 0733 a = 20;}
0012fc e1e4      	LDI  R30,LOW(20)
0012fd 93e0 0161 	STS  _a,R30
                 ; 0000 0734 if(OSC==28){
                 _0x34D:
0012ff 91a0 0160 	LDS  R26,_OSC
001301 31ac      	CPI  R26,LOW(0x1C)
001302 f419      	BRNE _0x34E
                 ; 0000 0735 a = 10;}}
001303 e0ea      	LDI  R30,LOW(10)
001304 93e0 0161 	STS  _a,R30
                 _0x34E:
                 ; 0000 0736 if(kondensatoriaus_rodymo_padetis==14){
                 _0x346:
001306 91a0 0175 	LDS  R26,_kondensatoriaus_rodymo_padetis
001308 30ae      	CPI  R26,LOW(0xE)
001309 f5c1      	BRNE _0x34F
                 ; 0000 0737 if(OSC==0){
00130a 91e0 0160 	LDS  R30,_OSC
00130c 30e0      	CPI  R30,0
00130d f419      	BRNE _0x350
                 ; 0000 0738 a = 5;}
00130e e0e5      	LDI  R30,LOW(5)
00130f 93e0 0161 	STS  _a,R30
                 ; 0000 0739 if(OSC==4){
                 _0x350:
001311 91a0 0160 	LDS  R26,_OSC
001313 30a4      	CPI  R26,LOW(0x4)
001314 f419      	BRNE _0x351
                 ; 0000 073A a = 10;}
001315 e0ea      	LDI  R30,LOW(10)
001316 93e0 0161 	STS  _a,R30
                 ; 0000 073B if(OSC==8){
                 _0x351:
001318 91a0 0160 	LDS  R26,_OSC
00131a 30a8      	CPI  R26,LOW(0x8)
00131b f419      	BRNE _0x352
                 ; 0000 073C a = 26;}
00131c e1ea      	LDI  R30,LOW(26)
00131d 93e0 0161 	STS  _a,R30
                 ; 0000 073D if(OSC==12){
                 _0x352:
00131f 91a0 0160 	LDS  R26,_OSC
001321 30ac      	CPI  R26,LOW(0xC)
001322 f419      	BRNE _0x353
                 ; 0000 073E a = 23;}
001323 e1e7      	LDI  R30,LOW(23)
001324 93e0 0161 	STS  _a,R30
                 ; 0000 073F if(OSC==16){
                 _0x353:
001326 91a0 0160 	LDS  R26,_OSC
001328 31a0      	CPI  R26,LOW(0x10)
001329 f419      	BRNE _0x354
                 ; 0000 0740 a = 30;}
00132a e1ee      	LDI  R30,LOW(30)
00132b 93e0 0161 	STS  _a,R30
                 ; 0000 0741 if(OSC==20){
                 _0x354:
00132d 91a0 0160 	LDS  R26,_OSC
00132f 31a4      	CPI  R26,LOW(0x14)
001330 f419      	BRNE _0x355
                 ; 0000 0742 a = 20;}
001331 e1e4      	LDI  R30,LOW(20)
001332 93e0 0161 	STS  _a,R30
                 ; 0000 0743 if(OSC==24){
                 _0x355:
001334 91a0 0160 	LDS  R26,_OSC
001336 31a8      	CPI  R26,LOW(0x18)
001337 f419      	BRNE _0x356
                 ; 0000 0744 a = 10;}
001338 e0ea      	LDI  R30,LOW(10)
001339 93e0 0161 	STS  _a,R30
                 ; 0000 0745 if(OSC==28){
                 _0x356:
00133b 91a0 0160 	LDS  R26,_OSC
00133d 31ac      	CPI  R26,LOW(0x1C)
00133e f419      	BRNE _0x357
                 ; 0000 0746 a = 27;}}
00133f e1eb      	LDI  R30,LOW(27)
001340 93e0 0161 	STS  _a,R30
                 _0x357:
                 ; 0000 0747 if(kondensatoriaus_rodymo_padetis==15){
                 _0x34F:
001342 91a0 0175 	LDS  R26,_kondensatoriaus_rodymo_padetis
001344 30af      	CPI  R26,LOW(0xF)
001345 f5c1      	BRNE _0x358
                 ; 0000 0748 if(OSC==0){
001346 91e0 0160 	LDS  R30,_OSC
001348 30e0      	CPI  R30,0
001349 f419      	BRNE _0x359
                 ; 0000 0749 a = 10;}
00134a e0ea      	LDI  R30,LOW(10)
00134b 93e0 0161 	STS  _a,R30
                 ; 0000 074A if(OSC==4){
                 _0x359:
00134d 91a0 0160 	LDS  R26,_OSC
00134f 30a4      	CPI  R26,LOW(0x4)
001350 f419      	BRNE _0x35A
                 ; 0000 074B a = 26;}
001351 e1ea      	LDI  R30,LOW(26)
001352 93e0 0161 	STS  _a,R30
                 ; 0000 074C if(OSC==8){
                 _0x35A:
001354 91a0 0160 	LDS  R26,_OSC
001356 30a8      	CPI  R26,LOW(0x8)
001357 f419      	BRNE _0x35B
                 ; 0000 074D a = 23;}
001358 e1e7      	LDI  R30,LOW(23)
001359 93e0 0161 	STS  _a,R30
                 ; 0000 074E if(OSC==12){
                 _0x35B:
00135b 91a0 0160 	LDS  R26,_OSC
00135d 30ac      	CPI  R26,LOW(0xC)
00135e f419      	BRNE _0x35C
                 ; 0000 074F a = 30;}
00135f e1ee      	LDI  R30,LOW(30)
001360 93e0 0161 	STS  _a,R30
                 ; 0000 0750 if(OSC==16){
                 _0x35C:
001362 91a0 0160 	LDS  R26,_OSC
001364 31a0      	CPI  R26,LOW(0x10)
001365 f419      	BRNE _0x35D
                 ; 0000 0751 a = 20;}
001366 e1e4      	LDI  R30,LOW(20)
001367 93e0 0161 	STS  _a,R30
                 ; 0000 0752 if(OSC==20){
                 _0x35D:
001369 91a0 0160 	LDS  R26,_OSC
00136b 31a4      	CPI  R26,LOW(0x14)
00136c f419      	BRNE _0x35E
                 ; 0000 0753 a = 10;}
00136d e0ea      	LDI  R30,LOW(10)
00136e 93e0 0161 	STS  _a,R30
                 ; 0000 0754 if(OSC==24){
                 _0x35E:
001370 91a0 0160 	LDS  R26,_OSC
001372 31a8      	CPI  R26,LOW(0x18)
001373 f419      	BRNE _0x35F
                 ; 0000 0755 a = 27;}
001374 e1eb      	LDI  R30,LOW(27)
001375 93e0 0161 	STS  _a,R30
                 ; 0000 0756 if(OSC==28){
                 _0x35F:
001377 91a0 0160 	LDS  R26,_OSC
001379 31ac      	CPI  R26,LOW(0x1C)
00137a f419      	BRNE _0x360
                 ; 0000 0757 a = 5;}}
00137b e0e5      	LDI  R30,LOW(5)
00137c 93e0 0161 	STS  _a,R30
                 _0x360:
                 ; 0000 0758 if(kondensatoriaus_rodymo_padetis==16){
                 _0x358:
00137e 91a0 0175 	LDS  R26,_kondensatoriaus_rodymo_padetis
001380 31a0      	CPI  R26,LOW(0x10)
001381 f589      	BRNE _0x361
                 ; 0000 0759 if(OSC==0){
001382 91e0 0160 	LDS  R30,_OSC
001384 30e0      	CPI  R30,0
001385 f419      	BRNE _0x362
                 ; 0000 075A a = 26;}
001386 e1ea      	LDI  R30,LOW(26)
001387 93e0 0161 	STS  _a,R30
                 ; 0000 075B if(OSC==4){
                 _0x362:
001389 91a0 0160 	LDS  R26,_OSC
00138b 30a4      	CPI  R26,LOW(0x4)
00138c f419      	BRNE _0x363
                 ; 0000 075C a = 23;}
00138d e1e7      	LDI  R30,LOW(23)
00138e 93e0 0161 	STS  _a,R30
                 ; 0000 075D if(OSC==8){
                 _0x363:
001390 91a0 0160 	LDS  R26,_OSC
001392 30a8      	CPI  R26,LOW(0x8)
001393 f419      	BRNE _0x364
                 ; 0000 075E a = 30;}
001394 e1ee      	LDI  R30,LOW(30)
001395 93e0 0161 	STS  _a,R30
                 ; 0000 075F if(OSC==12){
                 _0x364:
001397 91a0 0160 	LDS  R26,_OSC
001399 30ac      	CPI  R26,LOW(0xC)
00139a f419      	BRNE _0x365
                 ; 0000 0760 a = 20;}
00139b e1e4      	LDI  R30,LOW(20)
00139c 93e0 0161 	STS  _a,R30
                 ; 0000 0761 if(OSC==16){
                 _0x365:
00139e 91a0 0160 	LDS  R26,_OSC
0013a0 31a0      	CPI  R26,LOW(0x10)
0013a1 f419      	BRNE _0x366
                 ; 0000 0762 a = 10;}
0013a2 e0ea      	LDI  R30,LOW(10)
0013a3 93e0 0161 	STS  _a,R30
                 ; 0000 0763 if(OSC==20){
                 _0x366:
0013a5 91a0 0160 	LDS  R26,_OSC
0013a7 31a4      	CPI  R26,LOW(0x14)
0013a8 f419      	BRNE _0x367
                 ; 0000 0764 a = 27;}
0013a9 e1eb      	LDI  R30,LOW(27)
0013aa 93e0 0161 	STS  _a,R30
                 ; 0000 0765 if(OSC==24){
                 _0x367:
0013ac 91a0 0160 	LDS  R26,_OSC
0013ae 31a8      	CPI  R26,LOW(0x18)
0013af f419      	BRNE _0x368
                 ; 0000 0766 a = 5;}}
0013b0 e0e5      	LDI  R30,LOW(5)
0013b1 93e0 0161 	STS  _a,R30
                 _0x368:
                 ; 0000 0767 if(kondensatoriaus_rodymo_padetis==17){
                 _0x361:
0013b3 91a0 0175 	LDS  R26,_kondensatoriaus_rodymo_padetis
0013b5 31a1      	CPI  R26,LOW(0x11)
0013b6 f589      	BRNE _0x369
                 ; 0000 0768 if(OSC==0){
0013b7 91e0 0160 	LDS  R30,_OSC
0013b9 30e0      	CPI  R30,0
0013ba f419      	BRNE _0x36A
                 ; 0000 0769 a = 23;}
0013bb e1e7      	LDI  R30,LOW(23)
0013bc 93e0 0161 	STS  _a,R30
                 ; 0000 076A if(OSC==4){
                 _0x36A:
0013be 91a0 0160 	LDS  R26,_OSC
0013c0 30a4      	CPI  R26,LOW(0x4)
0013c1 f419      	BRNE _0x36B
                 ; 0000 076B a = 30;}
0013c2 e1ee      	LDI  R30,LOW(30)
0013c3 93e0 0161 	STS  _a,R30
                 ; 0000 076C if(OSC==8){
                 _0x36B:
0013c5 91a0 0160 	LDS  R26,_OSC
0013c7 30a8      	CPI  R26,LOW(0x8)
0013c8 f419      	BRNE _0x36C
                 ; 0000 076D a = 20;}
0013c9 e1e4      	LDI  R30,LOW(20)
0013ca 93e0 0161 	STS  _a,R30
                 ; 0000 076E if(OSC==12){
                 _0x36C:
0013cc 91a0 0160 	LDS  R26,_OSC
0013ce 30ac      	CPI  R26,LOW(0xC)
0013cf f419      	BRNE _0x36D
                 ; 0000 076F a = 10;}
0013d0 e0ea      	LDI  R30,LOW(10)
0013d1 93e0 0161 	STS  _a,R30
                 ; 0000 0770 if(OSC==16){
                 _0x36D:
0013d3 91a0 0160 	LDS  R26,_OSC
0013d5 31a0      	CPI  R26,LOW(0x10)
0013d6 f419      	BRNE _0x36E
                 ; 0000 0771 a = 27;}
0013d7 e1eb      	LDI  R30,LOW(27)
0013d8 93e0 0161 	STS  _a,R30
                 ; 0000 0772 if(OSC==20){
                 _0x36E:
0013da 91a0 0160 	LDS  R26,_OSC
0013dc 31a4      	CPI  R26,LOW(0x14)
0013dd f419      	BRNE _0x36F
                 ; 0000 0773 a = 5;}
0013de e0e5      	LDI  R30,LOW(5)
0013df 93e0 0161 	STS  _a,R30
                 ; 0000 0774 if(OSC==28){
                 _0x36F:
0013e1 91a0 0160 	LDS  R26,_OSC
0013e3 31ac      	CPI  R26,LOW(0x1C)
0013e4 f419      	BRNE _0x370
                 ; 0000 0775 a = 24;}}
0013e5 e1e8      	LDI  R30,LOW(24)
0013e6 93e0 0161 	STS  _a,R30
                 _0x370:
                 ; 0000 0776 if(kondensatoriaus_rodymo_padetis==18){
                 _0x369:
0013e8 91a0 0175 	LDS  R26,_kondensatoriaus_rodymo_padetis
0013ea 31a2      	CPI  R26,LOW(0x12)
0013eb f589      	BRNE _0x371
                 ; 0000 0777 if(OSC==0){
0013ec 91e0 0160 	LDS  R30,_OSC
0013ee 30e0      	CPI  R30,0
0013ef f419      	BRNE _0x372
                 ; 0000 0778 a = 30;}
0013f0 e1ee      	LDI  R30,LOW(30)
0013f1 93e0 0161 	STS  _a,R30
                 ; 0000 0779 if(OSC==4){
                 _0x372:
0013f3 91a0 0160 	LDS  R26,_OSC
0013f5 30a4      	CPI  R26,LOW(0x4)
0013f6 f419      	BRNE _0x373
                 ; 0000 077A a = 20;}
0013f7 e1e4      	LDI  R30,LOW(20)
0013f8 93e0 0161 	STS  _a,R30
                 ; 0000 077B if(OSC==8){
                 _0x373:
0013fa 91a0 0160 	LDS  R26,_OSC
0013fc 30a8      	CPI  R26,LOW(0x8)
0013fd f419      	BRNE _0x374
                 ; 0000 077C a = 10;}
0013fe e0ea      	LDI  R30,LOW(10)
0013ff 93e0 0161 	STS  _a,R30
                 ; 0000 077D if(OSC==12){
                 _0x374:
001401 91a0 0160 	LDS  R26,_OSC
001403 30ac      	CPI  R26,LOW(0xC)
001404 f419      	BRNE _0x375
                 ; 0000 077E a = 27;}
001405 e1eb      	LDI  R30,LOW(27)
001406 93e0 0161 	STS  _a,R30
                 ; 0000 077F if(OSC==16){
                 _0x375:
001408 91a0 0160 	LDS  R26,_OSC
00140a 31a0      	CPI  R26,LOW(0x10)
00140b f419      	BRNE _0x376
                 ; 0000 0780 a = 5;}
00140c e0e5      	LDI  R30,LOW(5)
00140d 93e0 0161 	STS  _a,R30
                 ; 0000 0781 if(OSC==24){
                 _0x376:
00140f 91a0 0160 	LDS  R26,_OSC
001411 31a8      	CPI  R26,LOW(0x18)
001412 f419      	BRNE _0x377
                 ; 0000 0782 a = 24;}
001413 e1e8      	LDI  R30,LOW(24)
001414 93e0 0161 	STS  _a,R30
                 ; 0000 0783 if(OSC==28){
                 _0x377:
001416 91a0 0160 	LDS  R26,_OSC
001418 31ac      	CPI  R26,LOW(0x1C)
001419 f419      	BRNE _0x378
                 ; 0000 0784 a = 28;}}
00141a e1ec      	LDI  R30,LOW(28)
00141b 93e0 0161 	STS  _a,R30
                 _0x378:
                 ; 0000 0785 if(kondensatoriaus_rodymo_padetis==19){
                 _0x371:
00141d 91a0 0175 	LDS  R26,_kondensatoriaus_rodymo_padetis
00141f 31a3      	CPI  R26,LOW(0x13)
001420 f589      	BRNE _0x379
                 ; 0000 0786 if(OSC==0){
001421 91e0 0160 	LDS  R30,_OSC
001423 30e0      	CPI  R30,0
001424 f419      	BRNE _0x37A
                 ; 0000 0787 a = 20;}
001425 e1e4      	LDI  R30,LOW(20)
001426 93e0 0161 	STS  _a,R30
                 ; 0000 0788 if(OSC==4){
                 _0x37A:
001428 91a0 0160 	LDS  R26,_OSC
00142a 30a4      	CPI  R26,LOW(0x4)
00142b f419      	BRNE _0x37B
                 ; 0000 0789 a = 10;}
00142c e0ea      	LDI  R30,LOW(10)
00142d 93e0 0161 	STS  _a,R30
                 ; 0000 078A if(OSC==8){
                 _0x37B:
00142f 91a0 0160 	LDS  R26,_OSC
001431 30a8      	CPI  R26,LOW(0x8)
001432 f419      	BRNE _0x37C
                 ; 0000 078B a = 27;}
001433 e1eb      	LDI  R30,LOW(27)
001434 93e0 0161 	STS  _a,R30
                 ; 0000 078C if(OSC==12){
                 _0x37C:
001436 91a0 0160 	LDS  R26,_OSC
001438 30ac      	CPI  R26,LOW(0xC)
001439 f419      	BRNE _0x37D
                 ; 0000 078D a = 5;}
00143a e0e5      	LDI  R30,LOW(5)
00143b 93e0 0161 	STS  _a,R30
                 ; 0000 078E if(OSC==20){
                 _0x37D:
00143d 91a0 0160 	LDS  R26,_OSC
00143f 31a4      	CPI  R26,LOW(0x14)
001440 f419      	BRNE _0x37E
                 ; 0000 078F a = 24;}
001441 e1e8      	LDI  R30,LOW(24)
001442 93e0 0161 	STS  _a,R30
                 ; 0000 0790 if(OSC==24){
                 _0x37E:
001444 91a0 0160 	LDS  R26,_OSC
001446 31a8      	CPI  R26,LOW(0x18)
001447 f419      	BRNE _0x37F
                 ; 0000 0791 a = 28;}
001448 e1ec      	LDI  R30,LOW(28)
001449 93e0 0161 	STS  _a,R30
                 ; 0000 0792 if(OSC==28){
                 _0x37F:
00144b 91a0 0160 	LDS  R26,_OSC
00144d 31ac      	CPI  R26,LOW(0x1C)
00144e f419      	BRNE _0x380
                 ; 0000 0793 a = 5;}}
00144f e0e5      	LDI  R30,LOW(5)
001450 93e0 0161 	STS  _a,R30
                 _0x380:
                 ; 0000 0794 if(kondensatoriaus_rodymo_padetis==19){
                 _0x379:
001452 91a0 0175 	LDS  R26,_kondensatoriaus_rodymo_padetis
001454 31a3      	CPI  R26,LOW(0x13)
001455 f589      	BRNE _0x381
                 ; 0000 0795 if(OSC==0){
001456 91e0 0160 	LDS  R30,_OSC
001458 30e0      	CPI  R30,0
001459 f419      	BRNE _0x382
                 ; 0000 0796 a = 10;}
00145a e0ea      	LDI  R30,LOW(10)
00145b 93e0 0161 	STS  _a,R30
                 ; 0000 0797 if(OSC==4){
                 _0x382:
00145d 91a0 0160 	LDS  R26,_OSC
00145f 30a4      	CPI  R26,LOW(0x4)
001460 f419      	BRNE _0x383
                 ; 0000 0798 a = 27;}
001461 e1eb      	LDI  R30,LOW(27)
001462 93e0 0161 	STS  _a,R30
                 ; 0000 0799 if(OSC==8){
                 _0x383:
001464 91a0 0160 	LDS  R26,_OSC
001466 30a8      	CPI  R26,LOW(0x8)
001467 f419      	BRNE _0x384
                 ; 0000 079A a = 5;}
001468 e0e5      	LDI  R30,LOW(5)
001469 93e0 0161 	STS  _a,R30
                 ; 0000 079B if(OSC==16){
                 _0x384:
00146b 91a0 0160 	LDS  R26,_OSC
00146d 31a0      	CPI  R26,LOW(0x10)
00146e f419      	BRNE _0x385
                 ; 0000 079C a = 24;}
00146f e1e8      	LDI  R30,LOW(24)
001470 93e0 0161 	STS  _a,R30
                 ; 0000 079D if(OSC==20){
                 _0x385:
001472 91a0 0160 	LDS  R26,_OSC
001474 31a4      	CPI  R26,LOW(0x14)
001475 f419      	BRNE _0x386
                 ; 0000 079E a = 28;}
001476 e1ec      	LDI  R30,LOW(28)
001477 93e0 0161 	STS  _a,R30
                 ; 0000 079F if(OSC==24){
                 _0x386:
001479 91a0 0160 	LDS  R26,_OSC
00147b 31a8      	CPI  R26,LOW(0x18)
00147c f419      	BRNE _0x387
                 ; 0000 07A0 a = 5;}
00147d e0e5      	LDI  R30,LOW(5)
00147e 93e0 0161 	STS  _a,R30
                 ; 0000 07A1 if(OSC==28){
                 _0x387:
001480 91a0 0160 	LDS  R26,_OSC
001482 31ac      	CPI  R26,LOW(0x1C)
001483 f419      	BRNE _0x388
                 ; 0000 07A2 a = 15;}}
001484 e0ef      	LDI  R30,LOW(15)
001485 93e0 0161 	STS  _a,R30
                 _0x388:
                 ; 0000 07A3 if(kondensatoriaus_rodymo_padetis==20){
                 _0x381:
001487 91a0 0175 	LDS  R26,_kondensatoriaus_rodymo_padetis
001489 31a4      	CPI  R26,LOW(0x14)
00148a f551      	BRNE _0x389
                 ; 0000 07A4 if(OSC==0){
00148b 91e0 0160 	LDS  R30,_OSC
00148d 30e0      	CPI  R30,0
00148e f419      	BRNE _0x38A
                 ; 0000 07A5 a = 27;}
00148f e1eb      	LDI  R30,LOW(27)
001490 93e0 0161 	STS  _a,R30
                 ; 0000 07A6 if(OSC==4){
                 _0x38A:
001492 91a0 0160 	LDS  R26,_OSC
001494 30a4      	CPI  R26,LOW(0x4)
001495 f419      	BRNE _0x38B
                 ; 0000 07A7 a = 5;}
001496 e0e5      	LDI  R30,LOW(5)
001497 93e0 0161 	STS  _a,R30
                 ; 0000 07A8 if(OSC==12){
                 _0x38B:
001499 91a0 0160 	LDS  R26,_OSC
00149b 30ac      	CPI  R26,LOW(0xC)
00149c f419      	BRNE _0x38C
                 ; 0000 07A9 a = 24;}
00149d e1e8      	LDI  R30,LOW(24)
00149e 93e0 0161 	STS  _a,R30
                 ; 0000 07AA if(OSC==16){
                 _0x38C:
0014a0 91a0 0160 	LDS  R26,_OSC
0014a2 31a0      	CPI  R26,LOW(0x10)
0014a3 f419      	BRNE _0x38D
                 ; 0000 07AB a = 28;}
0014a4 e1ec      	LDI  R30,LOW(28)
0014a5 93e0 0161 	STS  _a,R30
                 ; 0000 07AC if(OSC==20){
                 _0x38D:
0014a7 91a0 0160 	LDS  R26,_OSC
0014a9 31a4      	CPI  R26,LOW(0x14)
0014aa f419      	BRNE _0x38E
                 ; 0000 07AD a = 5;}
0014ab e0e5      	LDI  R30,LOW(5)
0014ac 93e0 0161 	STS  _a,R30
                 ; 0000 07AE if(OSC==24){
                 _0x38E:
0014ae 91a0 0160 	LDS  R26,_OSC
0014b0 31a8      	CPI  R26,LOW(0x18)
0014b1 f419      	BRNE _0x38F
                 ; 0000 07AF a = 15;}}
0014b2 e0ef      	LDI  R30,LOW(15)
0014b3 93e0 0161 	STS  _a,R30
                 _0x38F:
                 ; 0000 07B0 if(kondensatoriaus_rodymo_padetis==21){
                 _0x389:
0014b5 91a0 0175 	LDS  R26,_kondensatoriaus_rodymo_padetis
0014b7 31a5      	CPI  R26,LOW(0x15)
0014b8 f519      	BRNE _0x390
                 ; 0000 07B1 if(OSC==0){
0014b9 91e0 0160 	LDS  R30,_OSC
0014bb 30e0      	CPI  R30,0
0014bc f419      	BRNE _0x391
                 ; 0000 07B2 a = 5;}
0014bd e0e5      	LDI  R30,LOW(5)
0014be 93e0 0161 	STS  _a,R30
                 ; 0000 07B3 if(OSC==8){
                 _0x391:
0014c0 91a0 0160 	LDS  R26,_OSC
0014c2 30a8      	CPI  R26,LOW(0x8)
0014c3 f419      	BRNE _0x392
                 ; 0000 07B4 a = 24;}
0014c4 e1e8      	LDI  R30,LOW(24)
0014c5 93e0 0161 	STS  _a,R30
                 ; 0000 07B5 if(OSC==12){
                 _0x392:
0014c7 91a0 0160 	LDS  R26,_OSC
0014c9 30ac      	CPI  R26,LOW(0xC)
0014ca f419      	BRNE _0x393
                 ; 0000 07B6 a = 28;}
0014cb e1ec      	LDI  R30,LOW(28)
0014cc 93e0 0161 	STS  _a,R30
                 ; 0000 07B7 if(OSC==16){
                 _0x393:
0014ce 91a0 0160 	LDS  R26,_OSC
0014d0 31a0      	CPI  R26,LOW(0x10)
0014d1 f419      	BRNE _0x394
                 ; 0000 07B8 a = 5;}
0014d2 e0e5      	LDI  R30,LOW(5)
0014d3 93e0 0161 	STS  _a,R30
                 ; 0000 07B9 if(OSC==20){
                 _0x394:
0014d5 91a0 0160 	LDS  R26,_OSC
0014d7 31a4      	CPI  R26,LOW(0x14)
0014d8 f419      	BRNE _0x395
                 ; 0000 07BA a = 15;}}
0014d9 e0ef      	LDI  R30,LOW(15)
0014da 93e0 0161 	STS  _a,R30
                 _0x395:
                 ; 0000 07BB if(kondensatoriaus_rodymo_padetis==22){
                 _0x390:
0014dc 91a0 0175 	LDS  R26,_kondensatoriaus_rodymo_padetis
0014de 31a6      	CPI  R26,LOW(0x16)
0014df f4e1      	BRNE _0x396
                 ; 0000 07BC if(OSC==4){
0014e0 91a0 0160 	LDS  R26,_OSC
0014e2 30a4      	CPI  R26,LOW(0x4)
0014e3 f419      	BRNE _0x397
                 ; 0000 07BD a = 24;}
0014e4 e1e8      	LDI  R30,LOW(24)
0014e5 93e0 0161 	STS  _a,R30
                 ; 0000 07BE if(OSC==8){
                 _0x397:
0014e7 91a0 0160 	LDS  R26,_OSC
0014e9 30a8      	CPI  R26,LOW(0x8)
0014ea f419      	BRNE _0x398
                 ; 0000 07BF a = 28;}
0014eb e1ec      	LDI  R30,LOW(28)
0014ec 93e0 0161 	STS  _a,R30
                 ; 0000 07C0 if(OSC==12){
                 _0x398:
0014ee 91a0 0160 	LDS  R26,_OSC
0014f0 30ac      	CPI  R26,LOW(0xC)
0014f1 f419      	BRNE _0x399
                 ; 0000 07C1 a = 5;}
0014f2 e0e5      	LDI  R30,LOW(5)
0014f3 93e0 0161 	STS  _a,R30
                 ; 0000 07C2 if(OSC==16){
                 _0x399:
0014f5 91a0 0160 	LDS  R26,_OSC
0014f7 31a0      	CPI  R26,LOW(0x10)
0014f8 f419      	BRNE _0x39A
                 ; 0000 07C3 a = 15;}}
0014f9 e0ef      	LDI  R30,LOW(15)
0014fa 93e0 0161 	STS  _a,R30
                 _0x39A:
                 ; 0000 07C4 if(kondensatoriaus_rodymo_padetis==23){
                 _0x396:
0014fc 91a0 0175 	LDS  R26,_kondensatoriaus_rodymo_padetis
0014fe 31a7      	CPI  R26,LOW(0x17)
0014ff f4e1      	BRNE _0x39B
                 ; 0000 07C5 if(OSC==0){
001500 91e0 0160 	LDS  R30,_OSC
001502 30e0      	CPI  R30,0
001503 f419      	BRNE _0x39C
                 ; 0000 07C6 a = 24;}
001504 e1e8      	LDI  R30,LOW(24)
001505 93e0 0161 	STS  _a,R30
                 ; 0000 07C7 if(OSC==4){
                 _0x39C:
001507 91a0 0160 	LDS  R26,_OSC
001509 30a4      	CPI  R26,LOW(0x4)
00150a f419      	BRNE _0x39D
                 ; 0000 07C8 a = 28;}
00150b e1ec      	LDI  R30,LOW(28)
00150c 93e0 0161 	STS  _a,R30
                 ; 0000 07C9 if(OSC==8){
                 _0x39D:
00150e 91a0 0160 	LDS  R26,_OSC
001510 30a8      	CPI  R26,LOW(0x8)
001511 f419      	BRNE _0x39E
                 ; 0000 07CA a = 5;}
001512 e0e5      	LDI  R30,LOW(5)
001513 93e0 0161 	STS  _a,R30
                 ; 0000 07CB if(OSC==12){
                 _0x39E:
001515 91a0 0160 	LDS  R26,_OSC
001517 30ac      	CPI  R26,LOW(0xC)
001518 f419      	BRNE _0x39F
                 ; 0000 07CC a = 15;}}
001519 e0ef      	LDI  R30,LOW(15)
00151a 93e0 0161 	STS  _a,R30
                 _0x39F:
                 ; 0000 07CD if(kondensatoriaus_rodymo_padetis==24){
                 _0x39B:
00151c 91a0 0175 	LDS  R26,_kondensatoriaus_rodymo_padetis
00151e 31a8      	CPI  R26,LOW(0x18)
00151f f4a9      	BRNE _0x3A0
                 ; 0000 07CE if(OSC==0){
001520 91e0 0160 	LDS  R30,_OSC
001522 30e0      	CPI  R30,0
001523 f419      	BRNE _0x3A1
                 ; 0000 07CF a = 28;}
001524 e1ec      	LDI  R30,LOW(28)
001525 93e0 0161 	STS  _a,R30
                 ; 0000 07D0 if(OSC==4){
                 _0x3A1:
001527 91a0 0160 	LDS  R26,_OSC
001529 30a4      	CPI  R26,LOW(0x4)
00152a f419      	BRNE _0x3A2
                 ; 0000 07D1 a = 5;}
00152b e0e5      	LDI  R30,LOW(5)
00152c 93e0 0161 	STS  _a,R30
                 ; 0000 07D2 if(OSC==8){
                 _0x3A2:
00152e 91a0 0160 	LDS  R26,_OSC
001530 30a8      	CPI  R26,LOW(0x8)
001531 f419      	BRNE _0x3A3
                 ; 0000 07D3 a = 15;}}
001532 e0ef      	LDI  R30,LOW(15)
001533 93e0 0161 	STS  _a,R30
                 _0x3A3:
                 ; 0000 07D4 if(kondensatoriaus_rodymo_padetis==25){
                 _0x3A0:
001535 91a0 0175 	LDS  R26,_kondensatoriaus_rodymo_padetis
001537 31a9      	CPI  R26,LOW(0x19)
001538 f471      	BRNE _0x3A4
                 ; 0000 07D5 if(OSC==0){
001539 91e0 0160 	LDS  R30,_OSC
00153b 30e0      	CPI  R30,0
00153c f419      	BRNE _0x3A5
                 ; 0000 07D6 a = 5;}
00153d e0e5      	LDI  R30,LOW(5)
00153e 93e0 0161 	STS  _a,R30
                 ; 0000 07D7 if(OSC==4){
                 _0x3A5:
001540 91a0 0160 	LDS  R26,_OSC
001542 30a4      	CPI  R26,LOW(0x4)
001543 f419      	BRNE _0x3A6
                 ; 0000 07D8 a = 15;}}
001544 e0ef      	LDI  R30,LOW(15)
001545 93e0 0161 	STS  _a,R30
                 _0x3A6:
                 ; 0000 07D9 if(kondensatoriaus_rodymo_padetis==25){
                 _0x3A4:
001547 91a0 0175 	LDS  R26,_kondensatoriaus_rodymo_padetis
001549 31a9      	CPI  R26,LOW(0x19)
00154a f439      	BRNE _0x3A7
                 ; 0000 07DA if(OSC==0){
00154b 91e0 0160 	LDS  R30,_OSC
00154d 30e0      	CPI  R30,0
00154e f419      	BRNE _0x3A8
                 ; 0000 07DB a = 15;}}
00154f e0ef      	LDI  R30,LOW(15)
001550 93e0 0161 	STS  _a,R30
                 _0x3A8:
                 ; 0000 07DC 
                 ; 0000 07DD }}
                 _0x3A7:
                 _0x2F5:
001552 9508      	RET
                 ;
                 ;
                 ;
                 ;void dabartinio_laiko_skaiciavimas(){
                 ; 0000 07E1 void dabartinio_laiko_skaiciavimas(){
                 _dabartinio_laiko_skaiciavimas:
                 ; 0000 07E2 viena_laikrodzio_sekunde = viena_laikrodzio_sekunde + 1;
001553 91e0 0183 	LDS  R30,_viena_laikrodzio_sekunde
001555 91f0 0184 	LDS  R31,_viena_laikrodzio_sekunde+1
001557 9631      	ADIW R30,1
001558 93e0 0183 	STS  _viena_laikrodzio_sekunde,R30
00155a 93f0 0184 	STS  _viena_laikrodzio_sekunde+1,R31
                 ; 0000 07E3 if(viena_laikrodzio_sekunde>=VIENA_SEKUNDE){
00155c d144      	RCALL SUBOPT_0x1A
00155d 15a8      	CP   R26,R8
00155e 05b9      	CPC  R27,R9
00155f f050      	BRLO _0x3A9
                 ; 0000 07E4 viena_laikrodzio_sekunde = 0;
001560 e0e0      	LDI  R30,LOW(0)
001561 93e0 0183 	STS  _viena_laikrodzio_sekunde,R30
001563 93e0 0184 	STS  _viena_laikrodzio_sekunde+1,R30
                 ; 0000 07E5 laikrodzio_sekundes = laikrodzio_sekundes + 1;}
001565 91e0 0185 	LDS  R30,_laikrodzio_sekundes
001567 5fef      	SUBI R30,-LOW(1)
001568 93e0 0185 	STS  _laikrodzio_sekundes,R30
                 ; 0000 07E6 
                 ; 0000 07E7 if(laikrodzio_sekundes>=60){
                 _0x3A9:
00156a 91a0 0185 	LDS  R26,_laikrodzio_sekundes
00156c 33ac      	CPI  R26,LOW(0x3C)
00156d f044      	BRLT _0x3AA
                 ; 0000 07E8 laikrodzio_sekundes = 0;
00156e e0e0      	LDI  R30,LOW(0)
00156f 93e0 0185 	STS  _laikrodzio_sekundes,R30
                 ; 0000 07E9 laikrodzio_minutes = laikrodzio_minutes + 1;}
001571 91e0 0186 	LDS  R30,_laikrodzio_minutes
001573 5fef      	SUBI R30,-LOW(1)
001574 93e0 0186 	STS  _laikrodzio_minutes,R30
                 ; 0000 07EA 
                 ; 0000 07EB if(laikrodzio_minutes>=60){
                 _0x3AA:
001576 91a0 0186 	LDS  R26,_laikrodzio_minutes
001578 33ac      	CPI  R26,LOW(0x3C)
001579 f044      	BRLT _0x3AB
                 ; 0000 07EC laikrodzio_minutes = 0;
00157a e0e0      	LDI  R30,LOW(0)
00157b 93e0 0186 	STS  _laikrodzio_minutes,R30
                 ; 0000 07ED laikrodzio_valandos = laikrodzio_valandos + 1;}
00157d 91e0 0187 	LDS  R30,_laikrodzio_valandos
00157f 5fef      	SUBI R30,-LOW(1)
001580 93e0 0187 	STS  _laikrodzio_valandos,R30
                 ; 0000 07EE if(laikrodzio_minutes<0){
                 _0x3AB:
001582 91a0 0186 	LDS  R26,_laikrodzio_minutes
001584 30a0      	CPI  R26,0
001585 f444      	BRGE _0x3AC
                 ; 0000 07EF laikrodzio_minutes = 59;
001586 e3eb      	LDI  R30,LOW(59)
001587 93e0 0186 	STS  _laikrodzio_minutes,R30
                 ; 0000 07F0 laikrodzio_valandos = laikrodzio_valandos - 1;}
001589 91e0 0187 	LDS  R30,_laikrodzio_valandos
00158b d109      	RCALL SUBOPT_0x18
00158c 93e0 0187 	STS  _laikrodzio_valandos,R30
                 ; 0000 07F1 
                 ; 0000 07F2 if(laikrodzio_valandos>=24){
                 _0x3AC:
00158e 91a0 0187 	LDS  R26,_laikrodzio_valandos
001590 31a8      	CPI  R26,LOW(0x18)
001591 f01c      	BRLT _0x3AD
                 ; 0000 07F3 laikrodzio_valandos = 0;}
001592 e0e0      	LDI  R30,LOW(0)
001593 93e0 0187 	STS  _laikrodzio_valandos,R30
                 ; 0000 07F4 if(laikrodzio_valandos<0){
                 _0x3AD:
001595 91a0 0187 	LDS  R26,_laikrodzio_valandos
001597 30a0      	CPI  R26,0
001598 f41c      	BRGE _0x3AE
                 ; 0000 07F5 laikrodzio_valandos = 23;}}
001599 e1e7      	LDI  R30,LOW(23)
00159a 93e0 0187 	STS  _laikrodzio_valandos,R30
                 _0x3AE:
00159c 9508      	RET
                 ;
                 ;
                 ;
                 ;void mosfet_valdymas(){
                 ; 0000 07F9 void mosfet_valdymas(){
                 _mosfet_valdymas:
                 ; 0000 07FA unsigned int a,b,c,d;
                 ; 0000 07FB a = PUSE_SEKUNDES/4;
00159d 9722      	SBIW R28,2
00159e 940e 171a 	CALL __SAVELOCR6
                 ;	a -> R16,R17
                 ;	b -> R18,R19
                 ;	c -> R20,R21
                 ;	d -> Y+6
0015a0 01f5      	MOVW R30,R10
0015a1 940e 16e2 	CALL __LSRW2
0015a3 018f      	MOVW R16,R30
                 ; 0000 07FC b = (PUSE_SEKUNDES/4)*3;
0015a4 01f5      	MOVW R30,R10
0015a5 940e 16e2 	CALL __LSRW2
0015a7 e0a3      	LDI  R26,LOW(3)
0015a8 e0b0      	LDI  R27,HIGH(3)
0015a9 940e 16e7 	CALL __MULW12U
0015ab 019f      	MOVW R18,R30
                 ; 0000 07FD c = (PUSE_SEKUNDES/4)*5;
0015ac 01f5      	MOVW R30,R10
0015ad 940e 16e2 	CALL __LSRW2
0015af e0a5      	LDI  R26,LOW(5)
0015b0 e0b0      	LDI  R27,HIGH(5)
0015b1 940e 16e7 	CALL __MULW12U
0015b3 01af      	MOVW R20,R30
                 ; 0000 07FE d = (PUSE_SEKUNDES/4)*7;
0015b4 01f5      	MOVW R30,R10
0015b5 940e 16e2 	CALL __LSRW2
0015b7 e0a7      	LDI  R26,LOW(7)
0015b8 e0b0      	LDI  R27,HIGH(7)
0015b9 940e 16e7 	CALL __MULW12U
0015bb 83ee      	STD  Y+6,R30
0015bc 83ff      	STD  Y+6+1,R31
                 ; 0000 07FF 
                 ; 0000 0800     if((viena_laikrodzio_sekunde<b)&&(viena_laikrodzio_sekunde>a)){
0015bd d0e3      	RCALL SUBOPT_0x1A
0015be 17a2      	CP   R26,R18
0015bf 07b3      	CPC  R27,R19
0015c0 f420      	BRSH _0x3B0
0015c1 d0df      	RCALL SUBOPT_0x1A
0015c2 170a      	CP   R16,R26
0015c3 071b      	CPC  R17,R27
0015c4 f008      	BRLO _0x3B1
                 _0x3B0:
0015c5 c005      	RJMP _0x3AF
                 _0x3B1:
                 ; 0000 0801     pfet_desinysis = 0;
0015c6 d111      	RCALL SUBOPT_0x21
                 ; 0000 0802     nfet_kairysis = 0;
                 ; 0000 0803 
                 ; 0000 0804     pfet_kairysis = 1;
0015c7 e0e1      	LDI  R30,LOW(1)
0015c8 93e0 018b 	STS  _pfet_kairysis,R30
                 ; 0000 0805     nfet_desinysis = 1;
0015ca c01b      	RJMP _0x3B7
                 ; 0000 0806     }
                 ; 0000 0807     else if((viena_laikrodzio_sekunde>c)&&(viena_laikrodzio_sekunde<d)){
                 _0x3AF:
0015cb d0d5      	RCALL SUBOPT_0x1A
0015cc 174a      	CP   R20,R26
0015cd 075b      	CPC  R21,R27
0015ce f430      	BRSH _0x3B4
0015cf 81ee      	LDD  R30,Y+6
0015d0 81ff      	LDD  R31,Y+6+1
0015d1 d0cf      	RCALL SUBOPT_0x1A
0015d2 17ae      	CP   R26,R30
0015d3 07bf      	CPC  R27,R31
0015d4 f008      	BRLO _0x3B5
                 _0x3B4:
0015d5 c00b      	RJMP _0x3B3
                 _0x3B5:
                 ; 0000 0808     pfet_kairysis = 0;
0015d6 e0e0      	LDI  R30,LOW(0)
0015d7 93e0 018b 	STS  _pfet_kairysis,R30
                 ; 0000 0809     nfet_desinysis = 0;
0015d9 93e0 018e 	STS  _nfet_desinysis,R30
                 ; 0000 080A 
                 ; 0000 080B     pfet_desinysis = 1;
0015db e0e1      	LDI  R30,LOW(1)
0015dc 93e0 018c 	STS  _pfet_desinysis,R30
                 ; 0000 080C     nfet_kairysis = 1;
0015de 93e0 018d 	STS  _nfet_kairysis,R30
                 ; 0000 080D     }
                 ; 0000 080E     else{
0015e0 c007      	RJMP _0x3B6
                 _0x3B3:
                 ; 0000 080F     pfet_kairysis = 0;
0015e1 e0e0      	LDI  R30,LOW(0)
0015e2 93e0 018b 	STS  _pfet_kairysis,R30
                 ; 0000 0810     pfet_desinysis = 0;
0015e4 d0f3      	RCALL SUBOPT_0x21
                 ; 0000 0811     nfet_kairysis = 0;
                 ; 0000 0812     nfet_desinysis = 0;
0015e5 e0e0      	LDI  R30,LOW(0)
                 _0x3B7:
0015e6 93e0 018e 	STS  _nfet_desinysis,R30
                 ; 0000 0813     }
                 _0x3B6:
                 ; 0000 0814 }
0015e8 940e 1721 	CALL __LOADLOCR6
0015ea 9628      	ADIW R28,8
0015eb 9508      	RET
                 ;
                 ;
                 
                 	.DSEG
                 _OSC:
000160           	.BYTE 0x1
                 _a:
000161           	.BYTE 0x1
                 _segm_a:
000162           	.BYTE 0x1
                 _segm_b:
000163           	.BYTE 0x1
                 _segm_c:
000164           	.BYTE 0x1
                 _segm_d:
000165           	.BYTE 0x1
                 _segm_e:
000166           	.BYTE 0x1
                 _segm_f:
000167           	.BYTE 0x1
                 _segm_g:
000168           	.BYTE 0x1
                 _segm_h:
000169           	.BYTE 0x1
                 _MYGTUKAS_1:
00016a           	.BYTE 0x1
                 _MYGTUKAS_2:
00016b           	.BYTE 0x1
                 _MYGTUKAS_3:
00016c           	.BYTE 0x1
                 _MYGTUKAS_4:
00016d           	.BYTE 0x1
                 _MYGTUKAS_5:
00016e           	.BYTE 0x1
                 _MYGTUKAS_6:
00016f           	.BYTE 0x1
                 _MYGTUKAS_7:
000170           	.BYTE 0x1
                 _mygtuko_OSR:
000171           	.BYTE 0x1
                 _kondensatorius_tuscias:
000172           	.BYTE 0x1
                 _kondensatorius_vidutinis:
000173           	.BYTE 0x1
                 _kondensatorius_pilnas:
000174           	.BYTE 0x1
                 _kondensatoriaus_rodymo_padetis:
000175           	.BYTE 0x1
                 _kondensatoriaus_rodymo_laikas:
000176           	.BYTE 0x2
                 _pasisveikinimo_laikas1:
000178           	.BYTE 0x2
                 _pasisveikinimo_laikas2:
00017a           	.BYTE 0x1
                 _REDAGAVIMAS:
00017b           	.BYTE 0x1
                 _SKAICIUS_DEGA:
00017c           	.BYTE 0x1
                 _blyksincio_skaiciaus_laiko_paskutinis_ciklas:
00017d           	.BYTE 0x2
                 _blyksincio_skaiciaus_laikas:
00017f           	.BYTE 0x2
                 _blyksincio_skaiciaus_laiko_vidurinysis_ciklas:
000181           	.BYTE 0x2
                 _viena_laikrodzio_sekunde:
000183           	.BYTE 0x2
                 _laikrodzio_sekundes:
000185           	.BYTE 0x1
                 _laikrodzio_minutes:
000186           	.BYTE 0x1
                 _laikrodzio_valandos:
000187           	.BYTE 0x1
                 _begancio_uzraso_DABAR_padetis:
000188           	.BYTE 0x1
                 _begancio_uzraso_DABAR_laikas:
000189           	.BYTE 0x2
                 _pfet_kairysis:
00018b           	.BYTE 0x1
                 _pfet_desinysis:
00018c           	.BYTE 0x1
                 _nfet_kairysis:
00018d           	.BYTE 0x1
                 _nfet_desinysis:
00018e           	.BYTE 0x1
                 
                 	.CSEG
                 ;OPTIMIZER ADDED SUBROUTINE, CALLED 2 TIMES, CODE SIZE REDUCTION:2 WORDS
                 SUBOPT_0x0:
0015ec e0e0      	LDI  R30,LOW(0)
0015ed 93e0 016a 	STS  _MYGTUKAS_1,R30
0015ef 93e0 016b 	STS  _MYGTUKAS_2,R30
0015f1 9508      	RET
                 
                 ;OPTIMIZER ADDED SUBROUTINE, CALLED 4 TIMES, CODE SIZE REDUCTION:3 WORDS
                 SUBOPT_0x1:
0015f2 e0a0      	LDI  R26,0
0015f3 9987      	SBIC 0x10,7
0015f4 e0a1      	LDI  R26,1
0015f5 30a0      	CPI  R26,LOW(0x0)
0015f6 9508      	RET
                 
                 ;OPTIMIZER ADDED SUBROUTINE, CALLED 7 TIMES, CODE SIZE REDUCTION:9 WORDS
                 SUBOPT_0x2:
0015f7 e0e1      	LDI  R30,LOW(1)
0015f8 93e0 0171 	STS  _mygtuko_OSR,R30
0015fa 9508      	RET
                 
                 ;OPTIMIZER ADDED SUBROUTINE, CALLED 4 TIMES, CODE SIZE REDUCTION:3 WORDS
                 SUBOPT_0x3:
0015fb e0a0      	LDI  R26,0
0015fc 9985      	SBIC 0x10,5
0015fd e0a1      	LDI  R26,1
0015fe 30a0      	CPI  R26,LOW(0x0)
0015ff 9508      	RET
                 
                 ;OPTIMIZER ADDED SUBROUTINE, CALLED 4 TIMES, CODE SIZE REDUCTION:3 WORDS
                 SUBOPT_0x4:
001600 e0a0      	LDI  R26,0
001601 9986      	SBIC 0x10,6
001602 e0a1      	LDI  R26,1
001603 30a0      	CPI  R26,LOW(0x0)
001604 9508      	RET
                 
                 ;OPTIMIZER ADDED SUBROUTINE, CALLED 9 TIMES, CODE SIZE REDUCTION:29 WORDS
                 SUBOPT_0x5:
001605 e0e1      	LDI  R30,LOW(1)
001606 93e0 0162 	STS  _segm_a,R30
001608 93e0 0163 	STS  _segm_b,R30
00160a 9508      	RET
                 
                 ;OPTIMIZER ADDED SUBROUTINE, CALLED 13 TIMES, CODE SIZE REDUCTION:45 WORDS
                 SUBOPT_0x6:
00160b e0e1      	LDI  R30,LOW(1)
00160c 93e0 0164 	STS  _segm_c,R30
00160e 93e0 0165 	STS  _segm_d,R30
001610 9508      	RET
                 
                 ;OPTIMIZER ADDED SUBROUTINE, CALLED 15 TIMES, CODE SIZE REDUCTION:53 WORDS
                 SUBOPT_0x7:
001611 e0e1      	LDI  R30,LOW(1)
001612 93e0 0166 	STS  _segm_e,R30
001614 93e0 0167 	STS  _segm_f,R30
001616 9508      	RET
                 
                 ;OPTIMIZER ADDED SUBROUTINE, CALLED 3 TIMES, CODE SIZE REDUCTION:23 WORDS
                 SUBOPT_0x8:
001617 e0e0      	LDI  R30,LOW(0)
001618 93e0 0162 	STS  _segm_a,R30
00161a e0e1      	LDI  R30,LOW(1)
00161b 93e0 0163 	STS  _segm_b,R30
00161d 93e0 0164 	STS  _segm_c,R30
00161f e0e0      	LDI  R30,LOW(0)
001620 93e0 0165 	STS  _segm_d,R30
001622 93e0 0166 	STS  _segm_e,R30
001624 9508      	RET
                 
                 ;OPTIMIZER ADDED SUBROUTINE, CALLED 9 TIMES, CODE SIZE REDUCTION:29 WORDS
                 SUBOPT_0x9:
001625 e0e0      	LDI  R30,LOW(0)
001626 93e0 0167 	STS  _segm_f,R30
001628 93e0 0168 	STS  _segm_g,R30
00162a 9508      	RET
                 
                 ;OPTIMIZER ADDED SUBROUTINE, CALLED 3 TIMES, CODE SIZE REDUCTION:23 WORDS
                 SUBOPT_0xA:
00162b e0e0      	LDI  R30,LOW(0)
00162c 93e0 0164 	STS  _segm_c,R30
00162e e0e1      	LDI  R30,LOW(1)
00162f 93e0 0165 	STS  _segm_d,R30
001631 93e0 0166 	STS  _segm_e,R30
001633 e0e0      	LDI  R30,LOW(0)
001634 93e0 0167 	STS  _segm_f,R30
001636 e0e1      	LDI  R30,LOW(1)
001637 93e0 0168 	STS  _segm_g,R30
001639 9508      	RET
                 
                 ;OPTIMIZER ADDED SUBROUTINE, CALLED 2 TIMES, CODE SIZE REDUCTION:4 WORDS
                 SUBOPT_0xB:
00163a e0e0      	LDI  R30,LOW(0)
00163b 93e0 0166 	STS  _segm_e,R30
00163d 93e0 0167 	STS  _segm_f,R30
00163f e0e1      	LDI  R30,LOW(1)
001640 93e0 0168 	STS  _segm_g,R30
001642 9508      	RET
                 
                 ;OPTIMIZER ADDED SUBROUTINE, CALLED 4 TIMES, CODE SIZE REDUCTION:9 WORDS
                 SUBOPT_0xC:
001643 e0e1      	LDI  R30,LOW(1)
001644 93e0 0167 	STS  _segm_f,R30
001646 93e0 0168 	STS  _segm_g,R30
001648 9508      	RET
                 
                 ;OPTIMIZER ADDED SUBROUTINE, CALLED 3 TIMES, CODE SIZE REDUCTION:9 WORDS
                 SUBOPT_0xD:
001649 e0e1      	LDI  R30,LOW(1)
00164a 93e0 0162 	STS  _segm_a,R30
00164c e0e0      	LDI  R30,LOW(0)
00164d 93e0 0163 	STS  _segm_b,R30
00164f cfbb      	RJMP SUBOPT_0x6
                 
                 ;OPTIMIZER ADDED SUBROUTINE, CALLED 3 TIMES, CODE SIZE REDUCTION:3 WORDS
                 SUBOPT_0xE:
001650 e0e0      	LDI  R30,LOW(0)
001651 93e0 0166 	STS  _segm_e,R30
001653 cfef      	RJMP SUBOPT_0xC
                 
                 ;OPTIMIZER ADDED SUBROUTINE, CALLED 6 TIMES, CODE SIZE REDUCTION:17 WORDS
                 SUBOPT_0xF:
001654 e0e1      	LDI  R30,LOW(1)
001655 93e0 0164 	STS  _segm_c,R30
001657 e0e0      	LDI  R30,LOW(0)
001658 93e0 0165 	STS  _segm_d,R30
00165a 9508      	RET
                 
                 ;OPTIMIZER ADDED SUBROUTINE, CALLED 6 TIMES, CODE SIZE REDUCTION:12 WORDS
                 SUBOPT_0x10:
00165b e0e0      	LDI  R30,LOW(0)
00165c 93e0 0166 	STS  _segm_e,R30
00165e cfc6      	RJMP SUBOPT_0x9
                 
                 ;OPTIMIZER ADDED SUBROUTINE, CALLED 14 TIMES, CODE SIZE REDUCTION:49 WORDS
                 SUBOPT_0x11:
00165f e0e0      	LDI  R30,LOW(0)
001660 93e0 0162 	STS  _segm_a,R30
001662 93e0 0163 	STS  _segm_b,R30
001664 9508      	RET
                 
                 ;OPTIMIZER ADDED SUBROUTINE, CALLED 2 TIMES, CODE SIZE REDUCTION:9 WORDS
                 SUBOPT_0x12:
001665 e0e1      	LDI  R30,LOW(1)
001666 93e0 0162 	STS  _segm_a,R30
001668 e0e0      	LDI  R30,LOW(0)
001669 93e0 0163 	STS  _segm_b,R30
00166b 93e0 0164 	STS  _segm_c,R30
00166d e0e1      	LDI  R30,LOW(1)
00166e 93e0 0165 	STS  _segm_d,R30
001670 cfa0      	RJMP SUBOPT_0x7
                 
                 ;OPTIMIZER ADDED SUBROUTINE, CALLED 4 TIMES, CODE SIZE REDUCTION:9 WORDS
                 SUBOPT_0x13:
001671 e0e0      	LDI  R30,LOW(0)
001672 93e0 0162 	STS  _segm_a,R30
001674 e0e1      	LDI  R30,LOW(1)
001675 93e0 0163 	STS  _segm_b,R30
001677 9508      	RET
                 
                 ;OPTIMIZER ADDED SUBROUTINE, CALLED 4 TIMES, CODE SIZE REDUCTION:18 WORDS
                 SUBOPT_0x14:
001678 e0e1      	LDI  R30,LOW(1)
001679 93e0 0166 	STS  _segm_e,R30
00167b e0e0      	LDI  R30,LOW(0)
00167c 93e0 0167 	STS  _segm_f,R30
00167e e0e1      	LDI  R30,LOW(1)
00167f 93e0 0168 	STS  _segm_g,R30
001681 9508      	RET
                 
                 ;OPTIMIZER ADDED SUBROUTINE, CALLED 2 TIMES, CODE SIZE REDUCTION:3 WORDS
                 SUBOPT_0x15:
001682 e0e0      	LDI  R30,LOW(0)
001683 93e0 0164 	STS  _segm_c,R30
001685 93e0 0165 	STS  _segm_d,R30
001687 cf89      	RJMP SUBOPT_0x7
                 
                 ;OPTIMIZER ADDED SUBROUTINE, CALLED 2 TIMES, CODE SIZE REDUCTION:3 WORDS
                 SUBOPT_0x16:
001688 e0e0      	LDI  R30,LOW(0)
001689 93e0 0164 	STS  _segm_c,R30
00168b e0e1      	LDI  R30,LOW(1)
00168c 93e0 0165 	STS  _segm_d,R30
00168e cf82      	RJMP SUBOPT_0x7
                 
                 ;OPTIMIZER ADDED SUBROUTINE, CALLED 4 TIMES, CODE SIZE REDUCTION:9 WORDS
                 SUBOPT_0x17:
00168f e0e0      	LDI  R30,LOW(0)
001690 93e0 0164 	STS  _segm_c,R30
001692 93e0 0165 	STS  _segm_d,R30
001694 9508      	RET
                 
                 ;OPTIMIZER ADDED SUBROUTINE, CALLED 7 TIMES, CODE SIZE REDUCTION:9 WORDS
                 SUBOPT_0x18:
001695 e0f0      	LDI  R31,0
001696 fde7      	SBRC R30,7
001697 efff      	SER  R31
001698 9731      	SBIW R30,1
001699 9508      	RET
                 
                 ;OPTIMIZER ADDED SUBROUTINE, CALLED 2 TIMES, CODE SIZE REDUCTION:1 WORDS
                 SUBOPT_0x19:
00169a e0e1      	LDI  R30,LOW(1)
00169b 93e0 017b 	STS  _REDAGAVIMAS,R30
00169d e0e0      	LDI  R30,LOW(0)
00169e 93e0 016f 	STS  _MYGTUKAS_6,R30
0016a0 9508      	RET
                 
                 ;OPTIMIZER ADDED SUBROUTINE, CALLED 6 TIMES, CODE SIZE REDUCTION:7 WORDS
                 SUBOPT_0x1A:
0016a1 91a0 0183 	LDS  R26,_viena_laikrodzio_sekunde
0016a3 91b0 0184 	LDS  R27,_viena_laikrodzio_sekunde+1
0016a5 9508      	RET
                 
                 ;OPTIMIZER ADDED SUBROUTINE, CALLED 2 TIMES, CODE SIZE REDUCTION:4 WORDS
                 SUBOPT_0x1B:
0016a6 91a0 0187 	LDS  R26,_laikrodzio_valandos
0016a8 e0b0      	LDI  R27,0
0016a9 fda7      	SBRC R26,7
0016aa efbf      	SER  R27
0016ab e0ea      	LDI  R30,LOW(10)
0016ac e0f0      	LDI  R31,HIGH(10)
0016ad 940e 1707 	CALL __DIVW21
0016af 9508      	RET
                 
                 ;OPTIMIZER ADDED SUBROUTINE, CALLED 2 TIMES, CODE SIZE REDUCTION:5 WORDS
                 SUBOPT_0x1C:
0016b0 e0aa      	LDI  R26,LOW(10)
0016b1 e0b0      	LDI  R27,HIGH(10)
0016b2 940e 16ef 	CALL __MULW12
0016b4 01df      	MOVW R26,R30
0016b5 01fb      	MOVW R30,R22
0016b6 1bea      	SUB  R30,R26
0016b7 0bfb      	SBC  R31,R27
0016b8 93e0 0161 	STS  _a,R30
0016ba 9508      	RET
                 
                 ;OPTIMIZER ADDED SUBROUTINE, CALLED 2 TIMES, CODE SIZE REDUCTION:4 WORDS
                 SUBOPT_0x1D:
0016bb 91a0 0186 	LDS  R26,_laikrodzio_minutes
0016bd e0b0      	LDI  R27,0
0016be fda7      	SBRC R26,7
0016bf efbf      	SER  R27
0016c0 e0ea      	LDI  R30,LOW(10)
0016c1 e0f0      	LDI  R31,HIGH(10)
0016c2 940e 1707 	CALL __DIVW21
0016c4 9508      	RET
                 
                 ;OPTIMIZER ADDED SUBROUTINE, CALLED 5 TIMES, CODE SIZE REDUCTION:13 WORDS
                 SUBOPT_0x1E:
0016c5 e0e0      	LDI  R30,LOW(0)
0016c6 93e0 016a 	STS  _MYGTUKAS_1,R30
0016c8 93e0 016e 	STS  _MYGTUKAS_5,R30
0016ca 9508      	RET
                 
                 ;OPTIMIZER ADDED SUBROUTINE, CALLED 4 TIMES, CODE SIZE REDUCTION:3 WORDS
                 SUBOPT_0x1F:
0016cb 940e 16f4 	CALL __DIVW21U
0016cd 93e0 0161 	STS  _a,R30
0016cf 9508      	RET
                 
                 ;OPTIMIZER ADDED SUBROUTINE, CALLED 3 TIMES, CODE SIZE REDUCTION:7 WORDS
                 SUBOPT_0x20:
0016d0 940e 16e7 	CALL __MULW12U
0016d2 01df      	MOVW R26,R30
0016d3 01f4      	MOVW R30,R8
0016d4 1bea      	SUB  R30,R26
0016d5 0bfb      	SBC  R31,R27
0016d6 01df      	MOVW R26,R30
0016d7 9508      	RET
                 
                 ;OPTIMIZER ADDED SUBROUTINE, CALLED 2 TIMES, CODE SIZE REDUCTION:1 WORDS
                 SUBOPT_0x21:
0016d8 e0e0      	LDI  R30,LOW(0)
0016d9 93e0 018c 	STS  _pfet_desinysis,R30
0016db 93e0 018d 	STS  _nfet_kairysis,R30
0016dd 9508      	RET
                 
                 
                 	.CSEG
                 __ANEGW1:
0016de 95f1      	NEG  R31
0016df 95e1      	NEG  R30
0016e0 40f0      	SBCI R31,0
0016e1 9508      	RET
                 
                 __LSRW2:
0016e2 95f6      	LSR  R31
0016e3 95e7      	ROR  R30
0016e4 95f6      	LSR  R31
0016e5 95e7      	ROR  R30
0016e6 9508      	RET
                 
                 __MULW12U:
0016e7 9ffa      	MUL  R31,R26
0016e8 2df0      	MOV  R31,R0
0016e9 9feb      	MUL  R30,R27
0016ea 0df0      	ADD  R31,R0
0016eb 9fea      	MUL  R30,R26
0016ec 2de0      	MOV  R30,R0
0016ed 0df1      	ADD  R31,R1
0016ee 9508      	RET
                 
                 __MULW12:
0016ef d01c      	RCALL __CHKSIGNW
0016f0 dff6      	RCALL __MULW12U
0016f1 f40e      	BRTC __MULW121
0016f2 dfeb      	RCALL __ANEGW1
                 __MULW121:
0016f3 9508      	RET
                 
                 __DIVW21U:
0016f4 2400      	CLR  R0
0016f5 2411      	CLR  R1
0016f6 e190      	LDI  R25,16
                 __DIVW21U1:
0016f7 0faa      	LSL  R26
0016f8 1fbb      	ROL  R27
0016f9 1c00      	ROL  R0
0016fa 1c11      	ROL  R1
0016fb 1a0e      	SUB  R0,R30
0016fc 0a1f      	SBC  R1,R31
0016fd f418      	BRCC __DIVW21U2
0016fe 0e0e      	ADD  R0,R30
0016ff 1e1f      	ADC  R1,R31
001700 c001      	RJMP __DIVW21U3
                 __DIVW21U2:
001701 60a1      	SBR  R26,1
                 __DIVW21U3:
001702 959a      	DEC  R25
001703 f799      	BRNE __DIVW21U1
001704 01fd      	MOVW R30,R26
001705 01d0      	MOVW R26,R0
001706 9508      	RET
                 
                 __DIVW21:
001707 d004      	RCALL __CHKSIGNW
001708 dfeb      	RCALL __DIVW21U
001709 f40e      	BRTC __DIVW211
00170a dfd3      	RCALL __ANEGW1
                 __DIVW211:
00170b 9508      	RET
                 
                 __CHKSIGNW:
00170c 94e8      	CLT
00170d fff7      	SBRS R31,7
00170e c002      	RJMP __CHKSW1
00170f dfce      	RCALL __ANEGW1
001710 9468      	SET
                 __CHKSW1:
001711 ffb7      	SBRS R27,7
001712 c006      	RJMP __CHKSW2
001713 95a0      	COM  R26
001714 95b0      	COM  R27
001715 9611      	ADIW R26,1
001716 f800      	BLD  R0,0
001717 9403      	INC  R0
001718 fa00      	BST  R0,0
                 __CHKSW2:
001719 9508      	RET
                 
                 __SAVELOCR6:
00171a 935a      	ST   -Y,R21
                 __SAVELOCR5:
00171b 934a      	ST   -Y,R20
                 __SAVELOCR4:
00171c 933a      	ST   -Y,R19
                 __SAVELOCR3:
00171d 932a      	ST   -Y,R18
                 __SAVELOCR2:
00171e 931a      	ST   -Y,R17
00171f 930a      	ST   -Y,R16
001720 9508      	RET
                 
                 __LOADLOCR6:
001721 815d      	LDD  R21,Y+5
                 __LOADLOCR5:
001722 814c      	LDD  R20,Y+4
                 __LOADLOCR4:
001723 813b      	LDD  R19,Y+3
                 __LOADLOCR3:
001724 812a      	LDD  R18,Y+2
                 __LOADLOCR2:
001725 8119      	LDD  R17,Y+1
001726 8108      	LD   R16,Y
001727 9508      	RET
                 
                 ;END OF CODE MARKER
                 __END_OF_CODE:


RESOURCE USE INFORMATION
------------------------

Notice:
The register and instruction counts are symbol table hit counts,
and hence implicitly used resources are not counted, eg, the
'lpm' instruction without operands implicitly uses r0 and z,
none of which are counted.

x,y,z are separate entities in the symbol table and are
counted separately from r26..r31 here.

.dseg memory usage only counts static data declared with .byte

ATmega16 register use summary:
r0 :  11 r1 :   5 r2 :   0 r3 :   0 r4 :  10 r5 :   2 r6 :  33 r7 :  11 
r8 :  39 r9 :  15 r10:   8 r11:   3 r12:   2 r13:   1 r14:   0 r15:   0 
r16:   4 r17:   3 r18:   4 r19:   3 r20:   4 r21:   3 r22:   3 r23:   0 
r24:   4 r25:   3 r26:1324 r27:  36 r28:   3 r29:   1 r30:1648 r31:  87 
x  :   2 y  :  16 z  :   0 
Registers used: 29 out of 35 (82.9%)

ATmega16 instruction use summary:
.lds  :   0 .lds.l:   0 .sts  :   0 .sts.l:   0 adc   :   1 add   :   3 
adiw  :   9 and   :   0 andi  :   0 asr   :   0 bclr  :   0 bld   :   1 
brbc  :   0 brbs  :   0 brcc  :   1 brcs  :   0 break :   0 breq  :  30 
brge  :   4 brhc  :   0 brhs  :   0 brid  :   0 brie  :   0 brlo  :  14 
brlt  :   3 brmi  :   0 brne  : 714 brpl  :   0 brsh  :   8 brtc  :   2 
brts  :   0 brvc  :   0 brvs  :   0 bset  :   0 bst   :   1 call  : 161 
cbi   :  35 cbr   :   0 clc   :   0 clh   :   0 cli   :   1 cln   :   0 
clr   :   8 cls   :   0 clt   :   1 clv   :   0 clz   :   0 com   :   2 
cp    :  48 cpc   :  20 cpi   : 706 cpse  :   0 dec   :   2 des   :   0 
eor   :   0 fmul  :   0 fmuls :   0 fmulsu:   0 icall :   0 ijmp  :   0 
in    :   0 inc   :   5 jmp   :  29 ld    :   1 ldd   :   7 ldi   : 718 
lds   : 745 lpm   :   0 lsl   :   1 lsr   :   4 mov   :  15 movw  :  42 
mul   :   3 muls  :   0 mulsu :   0 neg   :   2 nop   :   0 or    :   0 
ori   :   0 out   :  38 pop   :   0 push  :   0 rcall :  30 ret   :  50 
reti  :   0 rjmp  :  77 rol   :   3 ror   :   4 sbc   :   7 sbci  :   4 
sbi   :  25 sbic  :   8 sbis  :  13 sbiw  :   7 sbr   :   1 sbrc  :   7 
sbrs  :   2 sec   :   0 seh   :   0 sei   :   0 sen   :   0 ser   :   7 
ses   :   0 set   :   1 sev   :   0 sez   :   0 sleep :   0 spm   :   0 
st    :   8 std   :   2 sts   : 662 sub   :   7 subi  :  14 swap  :   0 
tst   :   7 wdr   :   0 
Instructions used: 58 out of 116 (50.0%)

ATmega16 memory use summary [bytes]:
Segment   Begin    End      Code   Data   Used    Size   Use%
---------------------------------------------------------------
[.cseg] 0x000000 0x002e50  11856      0  11856   16384  72.4%
[.dseg] 0x000060 0x00018f      0     47     47    1024   4.6%
[.eseg] 0x000000 0x000000      0      0      0     512   0.0%

Assembly complete, 0 errors, 7 warnings
