
;CodeVisionAVR C Compiler V2.04.4a Advanced
;(C) Copyright 1998-2009 Pavel Haiduc, HP InfoTech s.r.l.
;http://www.hpinfotech.com

;Chip type                : ATmega16
;Program type             : Application
;Clock frequency          : 8.000000 MHz
;Memory model             : Small
;Optimize for             : Size
;(s)printf features       : int, width
;(s)scanf features        : int, width
;External RAM size        : 0
;Data Stack size          : 256 byte(s)
;Heap size                : 0 byte(s)
;Promote 'char' to 'int'  : Yes
;'char' is unsigned       : Yes
;8 bit enums              : Yes
;global 'const' stored in FLASH: No
;Enhanced core instructions    : On
;Smart register allocation     : On
;Automatic register allocation : On

	#pragma AVRPART ADMIN PART_NAME ATmega16
	#pragma AVRPART MEMORY PROG_FLASH 16384
	#pragma AVRPART MEMORY EEPROM 512
	#pragma AVRPART MEMORY INT_SRAM SIZE 1024
	#pragma AVRPART MEMORY INT_SRAM START_ADDR 0x60

	.LISTMAC
	.EQU UDRE=0x5
	.EQU RXC=0x7
	.EQU USR=0xB
	.EQU UDR=0xC
	.EQU SPSR=0xE
	.EQU SPDR=0xF
	.EQU EERE=0x0
	.EQU EEWE=0x1
	.EQU EEMWE=0x2
	.EQU EECR=0x1C
	.EQU EEDR=0x1D
	.EQU EEARL=0x1E
	.EQU EEARH=0x1F
	.EQU WDTCR=0x21
	.EQU MCUCR=0x35
	.EQU GICR=0x3B
	.EQU SPL=0x3D
	.EQU SPH=0x3E
	.EQU SREG=0x3F

	.DEF R0X0=R0
	.DEF R0X1=R1
	.DEF R0X2=R2
	.DEF R0X3=R3
	.DEF R0X4=R4
	.DEF R0X5=R5
	.DEF R0X6=R6
	.DEF R0X7=R7
	.DEF R0X8=R8
	.DEF R0X9=R9
	.DEF R0XA=R10
	.DEF R0XB=R11
	.DEF R0XC=R12
	.DEF R0XD=R13
	.DEF R0XE=R14
	.DEF R0XF=R15
	.DEF R0X10=R16
	.DEF R0X11=R17
	.DEF R0X12=R18
	.DEF R0X13=R19
	.DEF R0X14=R20
	.DEF R0X15=R21
	.DEF R0X16=R22
	.DEF R0X17=R23
	.DEF R0X18=R24
	.DEF R0X19=R25
	.DEF R0X1A=R26
	.DEF R0X1B=R27
	.DEF R0X1C=R28
	.DEF R0X1D=R29
	.DEF R0X1E=R30
	.DEF R0X1F=R31

	.MACRO __CPD1N
	CPI  R30,LOW(@0)
	LDI  R26,HIGH(@0)
	CPC  R31,R26
	LDI  R26,BYTE3(@0)
	CPC  R22,R26
	LDI  R26,BYTE4(@0)
	CPC  R23,R26
	.ENDM

	.MACRO __CPD2N
	CPI  R26,LOW(@0)
	LDI  R30,HIGH(@0)
	CPC  R27,R30
	LDI  R30,BYTE3(@0)
	CPC  R24,R30
	LDI  R30,BYTE4(@0)
	CPC  R25,R30
	.ENDM

	.MACRO __CPWRR
	CP   R@0,R@2
	CPC  R@1,R@3
	.ENDM

	.MACRO __CPWRN
	CPI  R@0,LOW(@2)
	LDI  R30,HIGH(@2)
	CPC  R@1,R30
	.ENDM

	.MACRO __ADDB1MN
	SUBI R30,LOW(-@0-(@1))
	.ENDM

	.MACRO __ADDB2MN
	SUBI R26,LOW(-@0-(@1))
	.ENDM

	.MACRO __ADDW1MN
	SUBI R30,LOW(-@0-(@1))
	SBCI R31,HIGH(-@0-(@1))
	.ENDM

	.MACRO __ADDW2MN
	SUBI R26,LOW(-@0-(@1))
	SBCI R27,HIGH(-@0-(@1))
	.ENDM

	.MACRO __ADDW1FN
	SUBI R30,LOW(-2*@0-(@1))
	SBCI R31,HIGH(-2*@0-(@1))
	.ENDM

	.MACRO __ADDD1FN
	SUBI R30,LOW(-2*@0-(@1))
	SBCI R31,HIGH(-2*@0-(@1))
	SBCI R22,BYTE3(-2*@0-(@1))
	.ENDM

	.MACRO __ADDD1N
	SUBI R30,LOW(-@0)
	SBCI R31,HIGH(-@0)
	SBCI R22,BYTE3(-@0)
	SBCI R23,BYTE4(-@0)
	.ENDM

	.MACRO __ADDD2N
	SUBI R26,LOW(-@0)
	SBCI R27,HIGH(-@0)
	SBCI R24,BYTE3(-@0)
	SBCI R25,BYTE4(-@0)
	.ENDM

	.MACRO __SUBD1N
	SUBI R30,LOW(@0)
	SBCI R31,HIGH(@0)
	SBCI R22,BYTE3(@0)
	SBCI R23,BYTE4(@0)
	.ENDM

	.MACRO __SUBD2N
	SUBI R26,LOW(@0)
	SBCI R27,HIGH(@0)
	SBCI R24,BYTE3(@0)
	SBCI R25,BYTE4(@0)
	.ENDM

	.MACRO __ANDBMNN
	LDS  R30,@0+(@1)
	ANDI R30,LOW(@2)
	STS  @0+(@1),R30
	.ENDM

	.MACRO __ANDWMNN
	LDS  R30,@0+(@1)
	ANDI R30,LOW(@2)
	STS  @0+(@1),R30
	LDS  R30,@0+(@1)+1
	ANDI R30,HIGH(@2)
	STS  @0+(@1)+1,R30
	.ENDM

	.MACRO __ANDD1N
	ANDI R30,LOW(@0)
	ANDI R31,HIGH(@0)
	ANDI R22,BYTE3(@0)
	ANDI R23,BYTE4(@0)
	.ENDM

	.MACRO __ANDD2N
	ANDI R26,LOW(@0)
	ANDI R27,HIGH(@0)
	ANDI R24,BYTE3(@0)
	ANDI R25,BYTE4(@0)
	.ENDM

	.MACRO __ORBMNN
	LDS  R30,@0+(@1)
	ORI  R30,LOW(@2)
	STS  @0+(@1),R30
	.ENDM

	.MACRO __ORWMNN
	LDS  R30,@0+(@1)
	ORI  R30,LOW(@2)
	STS  @0+(@1),R30
	LDS  R30,@0+(@1)+1
	ORI  R30,HIGH(@2)
	STS  @0+(@1)+1,R30
	.ENDM

	.MACRO __ORD1N
	ORI  R30,LOW(@0)
	ORI  R31,HIGH(@0)
	ORI  R22,BYTE3(@0)
	ORI  R23,BYTE4(@0)
	.ENDM

	.MACRO __ORD2N
	ORI  R26,LOW(@0)
	ORI  R27,HIGH(@0)
	ORI  R24,BYTE3(@0)
	ORI  R25,BYTE4(@0)
	.ENDM

	.MACRO __DELAY_USB
	LDI  R24,LOW(@0)
__DELAY_USB_LOOP:
	DEC  R24
	BRNE __DELAY_USB_LOOP
	.ENDM

	.MACRO __DELAY_USW
	LDI  R24,LOW(@0)
	LDI  R25,HIGH(@0)
__DELAY_USW_LOOP:
	SBIW R24,1
	BRNE __DELAY_USW_LOOP
	.ENDM

	.MACRO __GETD1S
	LDD  R30,Y+@0
	LDD  R31,Y+@0+1
	LDD  R22,Y+@0+2
	LDD  R23,Y+@0+3
	.ENDM

	.MACRO __GETD2S
	LDD  R26,Y+@0
	LDD  R27,Y+@0+1
	LDD  R24,Y+@0+2
	LDD  R25,Y+@0+3
	.ENDM

	.MACRO __PUTD1S
	STD  Y+@0,R30
	STD  Y+@0+1,R31
	STD  Y+@0+2,R22
	STD  Y+@0+3,R23
	.ENDM

	.MACRO __PUTD2S
	STD  Y+@0,R26
	STD  Y+@0+1,R27
	STD  Y+@0+2,R24
	STD  Y+@0+3,R25
	.ENDM

	.MACRO __PUTDZ2
	STD  Z+@0,R26
	STD  Z+@0+1,R27
	STD  Z+@0+2,R24
	STD  Z+@0+3,R25
	.ENDM

	.MACRO __CLRD1S
	STD  Y+@0,R30
	STD  Y+@0+1,R30
	STD  Y+@0+2,R30
	STD  Y+@0+3,R30
	.ENDM

	.MACRO __POINTB1MN
	LDI  R30,LOW(@0+(@1))
	.ENDM

	.MACRO __POINTW1MN
	LDI  R30,LOW(@0+(@1))
	LDI  R31,HIGH(@0+(@1))
	.ENDM

	.MACRO __POINTD1M
	LDI  R30,LOW(@0)
	LDI  R31,HIGH(@0)
	LDI  R22,BYTE3(@0)
	LDI  R23,BYTE4(@0)
	.ENDM

	.MACRO __POINTW1FN
	LDI  R30,LOW(2*@0+(@1))
	LDI  R31,HIGH(2*@0+(@1))
	.ENDM

	.MACRO __POINTD1FN
	LDI  R30,LOW(2*@0+(@1))
	LDI  R31,HIGH(2*@0+(@1))
	LDI  R22,BYTE3(2*@0+(@1))
	LDI  R23,BYTE4(2*@0+(@1))
	.ENDM

	.MACRO __POINTB2MN
	LDI  R26,LOW(@0+(@1))
	.ENDM

	.MACRO __POINTW2MN
	LDI  R26,LOW(@0+(@1))
	LDI  R27,HIGH(@0+(@1))
	.ENDM

	.MACRO __POINTBRM
	LDI  R@0,LOW(@1)
	.ENDM

	.MACRO __POINTWRM
	LDI  R@0,LOW(@2)
	LDI  R@1,HIGH(@2)
	.ENDM

	.MACRO __POINTBRMN
	LDI  R@0,LOW(@1+(@2))
	.ENDM

	.MACRO __POINTWRMN
	LDI  R@0,LOW(@2+(@3))
	LDI  R@1,HIGH(@2+(@3))
	.ENDM

	.MACRO __POINTWRFN
	LDI  R@0,LOW(@2*2+(@3))
	LDI  R@1,HIGH(@2*2+(@3))
	.ENDM

	.MACRO __GETD1N
	LDI  R30,LOW(@0)
	LDI  R31,HIGH(@0)
	LDI  R22,BYTE3(@0)
	LDI  R23,BYTE4(@0)
	.ENDM

	.MACRO __GETD2N
	LDI  R26,LOW(@0)
	LDI  R27,HIGH(@0)
	LDI  R24,BYTE3(@0)
	LDI  R25,BYTE4(@0)
	.ENDM

	.MACRO __GETB1MN
	LDS  R30,@0+(@1)
	.ENDM

	.MACRO __GETB1HMN
	LDS  R31,@0+(@1)
	.ENDM

	.MACRO __GETW1MN
	LDS  R30,@0+(@1)
	LDS  R31,@0+(@1)+1
	.ENDM

	.MACRO __GETD1MN
	LDS  R30,@0+(@1)
	LDS  R31,@0+(@1)+1
	LDS  R22,@0+(@1)+2
	LDS  R23,@0+(@1)+3
	.ENDM

	.MACRO __GETBRMN
	LDS  R@0,@1+(@2)
	.ENDM

	.MACRO __GETWRMN
	LDS  R@0,@2+(@3)
	LDS  R@1,@2+(@3)+1
	.ENDM

	.MACRO __GETWRZ
	LDD  R@0,Z+@2
	LDD  R@1,Z+@2+1
	.ENDM

	.MACRO __GETD2Z
	LDD  R26,Z+@0
	LDD  R27,Z+@0+1
	LDD  R24,Z+@0+2
	LDD  R25,Z+@0+3
	.ENDM

	.MACRO __GETB2MN
	LDS  R26,@0+(@1)
	.ENDM

	.MACRO __GETW2MN
	LDS  R26,@0+(@1)
	LDS  R27,@0+(@1)+1
	.ENDM

	.MACRO __GETD2MN
	LDS  R26,@0+(@1)
	LDS  R27,@0+(@1)+1
	LDS  R24,@0+(@1)+2
	LDS  R25,@0+(@1)+3
	.ENDM

	.MACRO __PUTB1MN
	STS  @0+(@1),R30
	.ENDM

	.MACRO __PUTW1MN
	STS  @0+(@1),R30
	STS  @0+(@1)+1,R31
	.ENDM

	.MACRO __PUTD1MN
	STS  @0+(@1),R30
	STS  @0+(@1)+1,R31
	STS  @0+(@1)+2,R22
	STS  @0+(@1)+3,R23
	.ENDM

	.MACRO __PUTB1EN
	LDI  R26,LOW(@0+(@1))
	LDI  R27,HIGH(@0+(@1))
	CALL __EEPROMWRB
	.ENDM

	.MACRO __PUTW1EN
	LDI  R26,LOW(@0+(@1))
	LDI  R27,HIGH(@0+(@1))
	CALL __EEPROMWRW
	.ENDM

	.MACRO __PUTD1EN
	LDI  R26,LOW(@0+(@1))
	LDI  R27,HIGH(@0+(@1))
	CALL __EEPROMWRD
	.ENDM

	.MACRO __PUTBR0MN
	STS  @0+(@1),R0
	.ENDM

	.MACRO __PUTBMRN
	STS  @0+(@1),R@2
	.ENDM

	.MACRO __PUTWMRN
	STS  @0+(@1),R@2
	STS  @0+(@1)+1,R@3
	.ENDM

	.MACRO __PUTBZR
	STD  Z+@1,R@0
	.ENDM

	.MACRO __PUTWZR
	STD  Z+@2,R@0
	STD  Z+@2+1,R@1
	.ENDM

	.MACRO __GETW1R
	MOV  R30,R@0
	MOV  R31,R@1
	.ENDM

	.MACRO __GETW2R
	MOV  R26,R@0
	MOV  R27,R@1
	.ENDM

	.MACRO __GETWRN
	LDI  R@0,LOW(@2)
	LDI  R@1,HIGH(@2)
	.ENDM

	.MACRO __PUTW1R
	MOV  R@0,R30
	MOV  R@1,R31
	.ENDM

	.MACRO __PUTW2R
	MOV  R@0,R26
	MOV  R@1,R27
	.ENDM

	.MACRO __ADDWRN
	SUBI R@0,LOW(-@2)
	SBCI R@1,HIGH(-@2)
	.ENDM

	.MACRO __ADDWRR
	ADD  R@0,R@2
	ADC  R@1,R@3
	.ENDM

	.MACRO __SUBWRN
	SUBI R@0,LOW(@2)
	SBCI R@1,HIGH(@2)
	.ENDM

	.MACRO __SUBWRR
	SUB  R@0,R@2
	SBC  R@1,R@3
	.ENDM

	.MACRO __ANDWRN
	ANDI R@0,LOW(@2)
	ANDI R@1,HIGH(@2)
	.ENDM

	.MACRO __ANDWRR
	AND  R@0,R@2
	AND  R@1,R@3
	.ENDM

	.MACRO __ORWRN
	ORI  R@0,LOW(@2)
	ORI  R@1,HIGH(@2)
	.ENDM

	.MACRO __ORWRR
	OR   R@0,R@2
	OR   R@1,R@3
	.ENDM

	.MACRO __EORWRR
	EOR  R@0,R@2
	EOR  R@1,R@3
	.ENDM

	.MACRO __GETWRS
	LDD  R@0,Y+@2
	LDD  R@1,Y+@2+1
	.ENDM

	.MACRO __PUTBSR
	STD  Y+@1,R@0
	.ENDM

	.MACRO __PUTWSR
	STD  Y+@2,R@0
	STD  Y+@2+1,R@1
	.ENDM

	.MACRO __MOVEWRR
	MOV  R@0,R@2
	MOV  R@1,R@3
	.ENDM

	.MACRO __INWR
	IN   R@0,@2
	IN   R@1,@2+1
	.ENDM

	.MACRO __OUTWR
	OUT  @2+1,R@1
	OUT  @2,R@0
	.ENDM

	.MACRO __CALL1MN
	LDS  R30,@0+(@1)
	LDS  R31,@0+(@1)+1
	ICALL
	.ENDM

	.MACRO __CALL1FN
	LDI  R30,LOW(2*@0+(@1))
	LDI  R31,HIGH(2*@0+(@1))
	CALL __GETW1PF
	ICALL
	.ENDM

	.MACRO __CALL2EN
	LDI  R26,LOW(@0+(@1))
	LDI  R27,HIGH(@0+(@1))
	CALL __EEPROMRDW
	ICALL
	.ENDM

	.MACRO __GETW1STACK
	IN   R26,SPL
	IN   R27,SPH
	ADIW R26,@0+1
	LD   R30,X+
	LD   R31,X
	.ENDM

	.MACRO __GETD1STACK
	IN   R26,SPL
	IN   R27,SPH
	ADIW R26,@0+1
	LD   R30,X+
	LD   R31,X+
	LD   R22,X
	.ENDM

	.MACRO __NBST
	BST  R@0,@1
	IN   R30,SREG
	LDI  R31,0x40
	EOR  R30,R31
	OUT  SREG,R30
	.ENDM


	.MACRO __PUTB1SN
	LDD  R26,Y+@0
	LDD  R27,Y+@0+1
	SUBI R26,LOW(-@1)
	SBCI R27,HIGH(-@1)
	ST   X,R30
	.ENDM

	.MACRO __PUTW1SN
	LDD  R26,Y+@0
	LDD  R27,Y+@0+1
	SUBI R26,LOW(-@1)
	SBCI R27,HIGH(-@1)
	ST   X+,R30
	ST   X,R31
	.ENDM

	.MACRO __PUTD1SN
	LDD  R26,Y+@0
	LDD  R27,Y+@0+1
	SUBI R26,LOW(-@1)
	SBCI R27,HIGH(-@1)
	CALL __PUTDP1
	.ENDM

	.MACRO __PUTB1SNS
	LDD  R26,Y+@0
	LDD  R27,Y+@0+1
	ADIW R26,@1
	ST   X,R30
	.ENDM

	.MACRO __PUTW1SNS
	LDD  R26,Y+@0
	LDD  R27,Y+@0+1
	ADIW R26,@1
	ST   X+,R30
	ST   X,R31
	.ENDM

	.MACRO __PUTD1SNS
	LDD  R26,Y+@0
	LDD  R27,Y+@0+1
	ADIW R26,@1
	CALL __PUTDP1
	.ENDM

	.MACRO __PUTB1PMN
	LDS  R26,@0
	LDS  R27,@0+1
	SUBI R26,LOW(-@1)
	SBCI R27,HIGH(-@1)
	ST   X,R30
	.ENDM

	.MACRO __PUTW1PMN
	LDS  R26,@0
	LDS  R27,@0+1
	SUBI R26,LOW(-@1)
	SBCI R27,HIGH(-@1)
	ST   X+,R30
	ST   X,R31
	.ENDM

	.MACRO __PUTD1PMN
	LDS  R26,@0
	LDS  R27,@0+1
	SUBI R26,LOW(-@1)
	SBCI R27,HIGH(-@1)
	CALL __PUTDP1
	.ENDM

	.MACRO __PUTB1PMNS
	LDS  R26,@0
	LDS  R27,@0+1
	ADIW R26,@1
	ST   X,R30
	.ENDM

	.MACRO __PUTW1PMNS
	LDS  R26,@0
	LDS  R27,@0+1
	ADIW R26,@1
	ST   X+,R30
	ST   X,R31
	.ENDM

	.MACRO __PUTD1PMNS
	LDS  R26,@0
	LDS  R27,@0+1
	ADIW R26,@1
	CALL __PUTDP1
	.ENDM

	.MACRO __PUTB1RN
	MOVW R26,R@0
	SUBI R26,LOW(-@1)
	SBCI R27,HIGH(-@1)
	ST   X,R30
	.ENDM

	.MACRO __PUTW1RN
	MOVW R26,R@0
	SUBI R26,LOW(-@1)
	SBCI R27,HIGH(-@1)
	ST   X+,R30
	ST   X,R31
	.ENDM

	.MACRO __PUTD1RN
	MOVW R26,R@0
	SUBI R26,LOW(-@1)
	SBCI R27,HIGH(-@1)
	CALL __PUTDP1
	.ENDM

	.MACRO __PUTB1RNS
	MOVW R26,R@0
	ADIW R26,@1
	ST   X,R30
	.ENDM

	.MACRO __PUTW1RNS
	MOVW R26,R@0
	ADIW R26,@1
	ST   X+,R30
	ST   X,R31
	.ENDM

	.MACRO __PUTD1RNS
	MOVW R26,R@0
	ADIW R26,@1
	CALL __PUTDP1
	.ENDM

	.MACRO __PUTB1RON
	MOV  R26,R@0
	MOV  R27,R@1
	SUBI R26,LOW(-@2)
	SBCI R27,HIGH(-@2)
	ST   X,R30
	.ENDM

	.MACRO __PUTW1RON
	MOV  R26,R@0
	MOV  R27,R@1
	SUBI R26,LOW(-@2)
	SBCI R27,HIGH(-@2)
	ST   X+,R30
	ST   X,R31
	.ENDM

	.MACRO __PUTD1RON
	MOV  R26,R@0
	MOV  R27,R@1
	SUBI R26,LOW(-@2)
	SBCI R27,HIGH(-@2)
	CALL __PUTDP1
	.ENDM

	.MACRO __PUTB1RONS
	MOV  R26,R@0
	MOV  R27,R@1
	ADIW R26,@2
	ST   X,R30
	.ENDM

	.MACRO __PUTW1RONS
	MOV  R26,R@0
	MOV  R27,R@1
	ADIW R26,@2
	ST   X+,R30
	ST   X,R31
	.ENDM

	.MACRO __PUTD1RONS
	MOV  R26,R@0
	MOV  R27,R@1
	ADIW R26,@2
	CALL __PUTDP1
	.ENDM


	.MACRO __GETB1SX
	MOVW R30,R28
	SUBI R30,LOW(-@0)
	SBCI R31,HIGH(-@0)
	LD   R30,Z
	.ENDM

	.MACRO __GETB1HSX
	MOVW R30,R28
	SUBI R30,LOW(-@0)
	SBCI R31,HIGH(-@0)
	LD   R31,Z
	.ENDM

	.MACRO __GETW1SX
	MOVW R30,R28
	SUBI R30,LOW(-@0)
	SBCI R31,HIGH(-@0)
	LD   R0,Z+
	LD   R31,Z
	MOV  R30,R0
	.ENDM

	.MACRO __GETD1SX
	MOVW R30,R28
	SUBI R30,LOW(-@0)
	SBCI R31,HIGH(-@0)
	LD   R0,Z+
	LD   R1,Z+
	LD   R22,Z+
	LD   R23,Z
	MOVW R30,R0
	.ENDM

	.MACRO __GETB2SX
	MOVW R26,R28
	SUBI R26,LOW(-@0)
	SBCI R27,HIGH(-@0)
	LD   R26,X
	.ENDM

	.MACRO __GETW2SX
	MOVW R26,R28
	SUBI R26,LOW(-@0)
	SBCI R27,HIGH(-@0)
	LD   R0,X+
	LD   R27,X
	MOV  R26,R0
	.ENDM

	.MACRO __GETD2SX
	MOVW R26,R28
	SUBI R26,LOW(-@0)
	SBCI R27,HIGH(-@0)
	LD   R0,X+
	LD   R1,X+
	LD   R24,X+
	LD   R25,X
	MOVW R26,R0
	.ENDM

	.MACRO __GETBRSX
	MOVW R30,R28
	SUBI R30,LOW(-@1)
	SBCI R31,HIGH(-@1)
	LD   R@0,Z
	.ENDM

	.MACRO __GETWRSX
	MOVW R30,R28
	SUBI R30,LOW(-@2)
	SBCI R31,HIGH(-@2)
	LD   R@0,Z+
	LD   R@1,Z
	.ENDM

	.MACRO __GETBRSX2
	MOVW R26,R28
	SUBI R26,LOW(-@1)
	SBCI R27,HIGH(-@1)
	LD   R@0,X
	.ENDM

	.MACRO __GETWRSX2
	MOVW R26,R28
	SUBI R26,LOW(-@2)
	SBCI R27,HIGH(-@2)
	LD   R@0,X+
	LD   R@1,X
	.ENDM

	.MACRO __LSLW8SX
	MOVW R30,R28
	SUBI R30,LOW(-@0)
	SBCI R31,HIGH(-@0)
	LD   R31,Z
	CLR  R30
	.ENDM

	.MACRO __PUTB1SX
	MOVW R26,R28
	SUBI R26,LOW(-@0)
	SBCI R27,HIGH(-@0)
	ST   X,R30
	.ENDM

	.MACRO __PUTW1SX
	MOVW R26,R28
	SUBI R26,LOW(-@0)
	SBCI R27,HIGH(-@0)
	ST   X+,R30
	ST   X,R31
	.ENDM

	.MACRO __PUTD1SX
	MOVW R26,R28
	SUBI R26,LOW(-@0)
	SBCI R27,HIGH(-@0)
	ST   X+,R30
	ST   X+,R31
	ST   X+,R22
	ST   X,R23
	.ENDM

	.MACRO __CLRW1SX
	MOVW R26,R28
	SUBI R26,LOW(-@0)
	SBCI R27,HIGH(-@0)
	ST   X+,R30
	ST   X,R30
	.ENDM

	.MACRO __CLRD1SX
	MOVW R26,R28
	SUBI R26,LOW(-@0)
	SBCI R27,HIGH(-@0)
	ST   X+,R30
	ST   X+,R30
	ST   X+,R30
	ST   X,R30
	.ENDM

	.MACRO __PUTB2SX
	MOVW R30,R28
	SUBI R30,LOW(-@0)
	SBCI R31,HIGH(-@0)
	ST   Z,R26
	.ENDM

	.MACRO __PUTW2SX
	MOVW R30,R28
	SUBI R30,LOW(-@0)
	SBCI R31,HIGH(-@0)
	ST   Z+,R26
	ST   Z,R27
	.ENDM

	.MACRO __PUTD2SX
	MOVW R30,R28
	SUBI R30,LOW(-@0)
	SBCI R31,HIGH(-@0)
	ST   Z+,R26
	ST   Z+,R27
	ST   Z+,R24
	ST   Z,R25
	.ENDM

	.MACRO __PUTBSRX
	MOVW R30,R28
	SUBI R30,LOW(-@1)
	SBCI R31,HIGH(-@1)
	ST   Z,R@0
	.ENDM

	.MACRO __PUTWSRX
	MOVW R30,R28
	SUBI R30,LOW(-@2)
	SBCI R31,HIGH(-@2)
	ST   Z+,R@0
	ST   Z,R@1
	.ENDM

	.MACRO __PUTB1SNX
	MOVW R26,R28
	SUBI R26,LOW(-@0)
	SBCI R27,HIGH(-@0)
	LD   R0,X+
	LD   R27,X
	MOV  R26,R0
	SUBI R26,LOW(-@1)
	SBCI R27,HIGH(-@1)
	ST   X,R30
	.ENDM

	.MACRO __PUTW1SNX
	MOVW R26,R28
	SUBI R26,LOW(-@0)
	SBCI R27,HIGH(-@0)
	LD   R0,X+
	LD   R27,X
	MOV  R26,R0
	SUBI R26,LOW(-@1)
	SBCI R27,HIGH(-@1)
	ST   X+,R30
	ST   X,R31
	.ENDM

	.MACRO __PUTD1SNX
	MOVW R26,R28
	SUBI R26,LOW(-@0)
	SBCI R27,HIGH(-@0)
	LD   R0,X+
	LD   R27,X
	MOV  R26,R0
	SUBI R26,LOW(-@1)
	SBCI R27,HIGH(-@1)
	ST   X+,R30
	ST   X+,R31
	ST   X+,R22
	ST   X,R23
	.ENDM

	.MACRO __MULBRR
	MULS R@0,R@1
	MOVW R30,R0
	.ENDM

	.MACRO __MULBRRU
	MUL  R@0,R@1
	MOVW R30,R0
	.ENDM

	.MACRO __MULBRR0
	MULS R@0,R@1
	.ENDM

	.MACRO __MULBRRU0
	MUL  R@0,R@1
	.ENDM

	.MACRO __MULBNWRU
	LDI  R26,@2
	MUL  R26,R@0
	MOVW R30,R0
	MUL  R26,R@1
	ADD  R31,R0
	.ENDM

;NAME DEFINITIONS FOR GLOBAL VARIABLES ALLOCATED TO REGISTERS
	.DEF _Timer1=R4
	.DEF __lcd_x=R7
	.DEF __lcd_y=R6
	.DEF __lcd_maxx=R9

	.CSEG
	.ORG 0x00

;INTERRUPT VECTORS
	JMP  __RESET
	JMP  0x00
	JMP  0x00
	JMP  0x00
	JMP  0x00
	JMP  0x00
	JMP  0x00
	JMP  0x00
	JMP  0x00
	JMP  0x00
	JMP  0x00
	JMP  0x00
	JMP  0x00
	JMP  0x00
	JMP  0x00
	JMP  0x00
	JMP  0x00
	JMP  0x00
	JMP  0x00
	JMP  0x00
	JMP  0x00

_0x0:
	.DB  0x20,0x20,0x20,0x20,0x20,0x20,0x20,0x20
	.DB  0x20,0x20,0x20,0x20,0x20,0x20,0x20,0x54
	.DB  0x0,0x20,0x20,0x20,0x20,0x20,0x20,0x20
	.DB  0x20,0x20,0x20,0x20,0x20,0x20,0x20,0x54
	.DB  0x6F,0x0,0x20,0x20,0x20,0x20,0x20,0x20
	.DB  0x20,0x20,0x20,0x20,0x20,0x20,0x20,0x54
	.DB  0x6F,0x6D,0x0,0x20,0x20,0x20,0x20,0x20
	.DB  0x20,0x20,0x20,0x20,0x20,0x20,0x20,0x54
	.DB  0x6F,0x6D,0x61,0x0,0x20,0x20,0x20,0x20
	.DB  0x20,0x20,0x20,0x20,0x20,0x20,0x20,0x54
	.DB  0x6F,0x6D,0x61,0x73,0x0,0x20,0x20,0x20
	.DB  0x20,0x20,0x20,0x20,0x20,0x20,0x20,0x54
	.DB  0x6F,0x6D,0x61,0x73,0x20,0x0,0x20,0x20
	.DB  0x20,0x20,0x20,0x20,0x20,0x20,0x20,0x54
	.DB  0x6F,0x6D,0x61,0x73,0x20,0x56,0x0,0x20
	.DB  0x20,0x20,0x20,0x20,0x20,0x20,0x20,0x54
	.DB  0x6F,0x6D,0x61,0x73,0x20,0x56,0x61,0x0
	.DB  0x20,0x20,0x20,0x20,0x20,0x20,0x20,0x54
	.DB  0x6F,0x6D,0x61,0x73,0x20,0x56,0x61,0x6E
	.DB  0x0,0x20,0x20,0x20,0x20,0x20,0x20,0x54
	.DB  0x6F,0x6D,0x61,0x73,0x20,0x56,0x61,0x6E
	.DB  0x61,0x0,0x20,0x20,0x20,0x20,0x20,0x54
	.DB  0x6F,0x6D,0x61,0x73,0x20,0x56,0x61,0x6E
	.DB  0x61,0x67,0x0,0x20,0x20,0x20,0x20,0x54
	.DB  0x6F,0x6D,0x61,0x73,0x20,0x56,0x61,0x6E
	.DB  0x61,0x67,0x61,0x0,0x20,0x20,0x20,0x54
	.DB  0x6F,0x6D,0x61,0x73,0x20,0x56,0x61,0x6E
	.DB  0x61,0x67,0x61,0x73,0x0,0x20,0x20,0x54
	.DB  0x6F,0x6D,0x61,0x73,0x20,0x56,0x61,0x6E
	.DB  0x61,0x67,0x61,0x73,0x20,0x0,0x20,0x54
	.DB  0x6F,0x6D,0x61,0x73,0x20,0x56,0x61,0x6E
	.DB  0x61,0x67,0x61,0x73,0x20,0x20,0x0,0x54
	.DB  0x6F,0x6D,0x61,0x73,0x20,0x56,0x61,0x6E
	.DB  0x61,0x67,0x61,0x73,0x20,0x20,0x20,0x0
	.DB  0x6F,0x6D,0x61,0x73,0x20,0x56,0x61,0x6E
	.DB  0x61,0x67,0x61,0x73,0x20,0x20,0x20,0x20
	.DB  0x0,0x6D,0x61,0x73,0x20,0x56,0x61,0x6E
	.DB  0x61,0x67,0x61,0x73,0x20,0x20,0x20,0x20
	.DB  0x20,0x0,0x61,0x73,0x20,0x56,0x61,0x6E
	.DB  0x61,0x67,0x61,0x73,0x20,0x20,0x20,0x20
	.DB  0x20,0x20,0x0,0x73,0x20,0x56,0x61,0x6E
	.DB  0x61,0x67,0x61,0x73,0x20,0x20,0x20,0x20
	.DB  0x20,0x20,0x20,0x0,0x20,0x56,0x61,0x6E
	.DB  0x61,0x67,0x61,0x73,0x20,0x20,0x20,0x20
	.DB  0x20,0x20,0x20,0x20,0x0,0x56,0x61,0x6E
	.DB  0x61,0x67,0x61,0x73,0x20,0x20,0x20,0x20
	.DB  0x20,0x20,0x20,0x20,0x20,0x0,0x61,0x6E
	.DB  0x61,0x67,0x61,0x73,0x20,0x20,0x20,0x20
	.DB  0x20,0x20,0x20,0x20,0x20,0x20,0x0,0x6E
	.DB  0x61,0x67,0x61,0x73,0x20,0x20,0x20,0x20
	.DB  0x20,0x20,0x20,0x20,0x20,0x20,0x20,0x0
	.DB  0x61,0x67,0x61,0x73,0x20,0x20,0x20,0x20
	.DB  0x20,0x20,0x20,0x20,0x20,0x20,0x20,0x20
	.DB  0x0,0x67,0x61,0x73,0x20,0x20,0x20,0x20
	.DB  0x20,0x20,0x20,0x20,0x20,0x20,0x20,0x20
	.DB  0x20,0x0,0x61,0x73,0x20,0x20,0x20,0x20
	.DB  0x20,0x20,0x20,0x20,0x20,0x20,0x20,0x20
	.DB  0x20,0x20,0x0,0x73,0x20,0x20,0x20,0x20
	.DB  0x20,0x20,0x20,0x20,0x20,0x20,0x20,0x20
	.DB  0x20,0x20,0x20,0x0
_0x2000003:
	.DB  0x80,0xC0

__GLOBAL_INI_TBL:
	.DW  0x11
	.DW  _0x9
	.DW  _0x0*2

	.DW  0x11
	.DW  _0x9+17
	.DW  _0x0*2+17

	.DW  0x11
	.DW  _0x9+34
	.DW  _0x0*2+34

	.DW  0x11
	.DW  _0x9+51
	.DW  _0x0*2+51

	.DW  0x11
	.DW  _0x9+68
	.DW  _0x0*2+68

	.DW  0x11
	.DW  _0x9+85
	.DW  _0x0*2+85

	.DW  0x11
	.DW  _0x9+102
	.DW  _0x0*2+102

	.DW  0x11
	.DW  _0x9+119
	.DW  _0x0*2+119

	.DW  0x11
	.DW  _0x9+136
	.DW  _0x0*2+136

	.DW  0x11
	.DW  _0x9+153
	.DW  _0x0*2+153

	.DW  0x11
	.DW  _0x9+170
	.DW  _0x0*2+170

	.DW  0x11
	.DW  _0x9+187
	.DW  _0x0*2+187

	.DW  0x11
	.DW  _0x9+204
	.DW  _0x0*2+204

	.DW  0x11
	.DW  _0x9+221
	.DW  _0x0*2+221

	.DW  0x11
	.DW  _0x9+238
	.DW  _0x0*2+238

	.DW  0x11
	.DW  _0x9+255
	.DW  _0x0*2+255

	.DW  0x11
	.DW  _0x9+272
	.DW  _0x0*2+272

	.DW  0x11
	.DW  _0x9+289
	.DW  _0x0*2+289

	.DW  0x11
	.DW  _0x9+306
	.DW  _0x0*2+306

	.DW  0x11
	.DW  _0x9+323
	.DW  _0x0*2+323

	.DW  0x11
	.DW  _0x9+340
	.DW  _0x0*2+340

	.DW  0x11
	.DW  _0x9+357
	.DW  _0x0*2+357

	.DW  0x11
	.DW  _0x9+374
	.DW  _0x0*2+374

	.DW  0x11
	.DW  _0x9+391
	.DW  _0x0*2+391

	.DW  0x11
	.DW  _0x9+408
	.DW  _0x0*2+408

	.DW  0x11
	.DW  _0x9+425
	.DW  _0x0*2+425

	.DW  0x11
	.DW  _0x9+442
	.DW  _0x0*2+442

	.DW  0x11
	.DW  _0x9+459
	.DW  _0x0*2+459

	.DW  0x02
	.DW  __base_y_G100
	.DW  _0x2000003*2

_0xFFFFFFFF:
	.DW  0

__RESET:
	CLI
	CLR  R30
	OUT  EECR,R30

;INTERRUPT VECTORS ARE PLACED
;AT THE START OF FLASH
	LDI  R31,1
	OUT  GICR,R31
	OUT  GICR,R30
	OUT  MCUCR,R30

;DISABLE WATCHDOG
	LDI  R31,0x18
	OUT  WDTCR,R31
	OUT  WDTCR,R30

;CLEAR R2-R14
	LDI  R24,(14-2)+1
	LDI  R26,2
	CLR  R27
__CLEAR_REG:
	ST   X+,R30
	DEC  R24
	BRNE __CLEAR_REG

;CLEAR SRAM
	LDI  R24,LOW(0x400)
	LDI  R25,HIGH(0x400)
	LDI  R26,0x60
__CLEAR_SRAM:
	ST   X+,R30
	SBIW R24,1
	BRNE __CLEAR_SRAM

;GLOBAL VARIABLES INITIALIZATION
	LDI  R30,LOW(__GLOBAL_INI_TBL*2)
	LDI  R31,HIGH(__GLOBAL_INI_TBL*2)
__GLOBAL_INI_NEXT:
	LPM  R24,Z+
	LPM  R25,Z+
	SBIW R24,0
	BREQ __GLOBAL_INI_END
	LPM  R26,Z+
	LPM  R27,Z+
	LPM  R0,Z+
	LPM  R1,Z+
	MOVW R22,R30
	MOVW R30,R0
__GLOBAL_INI_LOOP:
	LPM  R0,Z+
	ST   X+,R0
	SBIW R24,1
	BRNE __GLOBAL_INI_LOOP
	MOVW R30,R22
	RJMP __GLOBAL_INI_NEXT
__GLOBAL_INI_END:

;STACK POINTER INITIALIZATION
	LDI  R30,LOW(0x45F)
	OUT  SPL,R30
	LDI  R30,HIGH(0x45F)
	OUT  SPH,R30

;DATA STACK POINTER INITIALIZATION
	LDI  R28,LOW(0x160)
	LDI  R29,HIGH(0x160)

	JMP  _main

	.ESEG
	.ORG 0

	.DSEG
	.ORG 0x160

	.CSEG
;/*****************************************************
;This program was produced by the
;CodeWizardAVR V2.04.4a Advanced
;Automatic Program Generator
;© Copyright 1998-2009 Pavel Haiduc, HP InfoTech s.r.l.
;http://www.hpinfotech.com
;
;Project :
;Version :
;Date    : 4/16/2011
;Author  : NeVaDa
;Company : namai
;Comments:
;
;
;Chip type               : ATmega16
;Program type            : Application
;AVR Core Clock frequency: 8.000000 MHz
;Memory model            : Small
;External RAM size       : 0
;Data Stack size         : 256
;*****************************************************/
;
;#include <mega16.h>
	#ifndef __SLEEP_DEFINED__
	#define __SLEEP_DEFINED__
	.EQU __se_bit=0x40
	.EQU __sm_mask=0xB0
	.EQU __sm_powerdown=0x20
	.EQU __sm_powersave=0x30
	.EQU __sm_standby=0xA0
	.EQU __sm_ext_standby=0xB0
	.EQU __sm_adc_noise_red=0x10
	.SET power_ctrl_reg=mcucr
	#endif
;
;// Alphanumeric LCD Module functions
;#asm
   .equ __lcd_port=0x15 ;PORTC
; 0000 001D #endasm
;#include <lcd.h>
;#include <delay.h>
;
;// Declare your global variables here
;unsigned int Timer1;
;void main(void)
; 0000 0024 {

	.CSEG
_main:
; 0000 0025 // Declare your local variables here
; 0000 0026 
; 0000 0027 // Input/Output Ports initialization
; 0000 0028 // Port A initialization
; 0000 0029 // Func7=In Func6=In Func5=In Func4=In Func3=In Func2=In Func1=In Func0=In
; 0000 002A // State7=T State6=T State5=T State4=T State3=T State2=T State1=T State0=T
; 0000 002B PORTA=0x00;
	LDI  R30,LOW(0)
	OUT  0x1B,R30
; 0000 002C DDRA=0x00;
	OUT  0x1A,R30
; 0000 002D 
; 0000 002E // Port B initialization
; 0000 002F // Func7=In Func6=In Func5=In Func4=In Func3=In Func2=In Func1=In Func0=In
; 0000 0030 // State7=T State6=T State5=T State4=T State3=T State2=T State1=T State0=T
; 0000 0031 PORTB=0x00;
	OUT  0x18,R30
; 0000 0032 DDRB=0x00;
	OUT  0x17,R30
; 0000 0033 
; 0000 0034 // Port C initialization
; 0000 0035 // Func7=In Func6=In Func5=In Func4=In Func3=In Func2=In Func1=In Func0=In
; 0000 0036 // State7=T State6=T State5=T State4=T State3=T State2=T State1=T State0=T
; 0000 0037 PORTC=0x00;
	OUT  0x15,R30
; 0000 0038 DDRC=0x00;
	OUT  0x14,R30
; 0000 0039 
; 0000 003A // Port D initialization
; 0000 003B // Func7=In Func6=In Func5=In Func4=In Func3=In Func2=In Func1=In Func0=In
; 0000 003C // State7=T State6=T State5=T State4=T State3=T State2=T State1=T State0=T
; 0000 003D PORTD=0x00;
	OUT  0x12,R30
; 0000 003E DDRD=0x00;
	OUT  0x11,R30
; 0000 003F 
; 0000 0040 // Timer/Counter 0 initialization
; 0000 0041 // Clock source: System Clock
; 0000 0042 // Clock value: Timer 0 Stopped
; 0000 0043 // Mode: Normal top=FFh
; 0000 0044 // OC0 output: Disconnected
; 0000 0045 TCCR0=0x00;
	OUT  0x33,R30
; 0000 0046 TCNT0=0x00;
	OUT  0x32,R30
; 0000 0047 OCR0=0x00;
	OUT  0x3C,R30
; 0000 0048 
; 0000 0049 // Timer/Counter 1 initialization
; 0000 004A // Clock source: System Clock
; 0000 004B // Clock value: Timer1 Stopped
; 0000 004C // Mode: Normal top=FFFFh
; 0000 004D // OC1A output: Discon.
; 0000 004E // OC1B output: Discon.
; 0000 004F // Noise Canceler: Off
; 0000 0050 // Input Capture on Falling Edge
; 0000 0051 // Timer1 Overflow Interrupt: Off
; 0000 0052 // Input Capture Interrupt: Off
; 0000 0053 // Compare A Match Interrupt: Off
; 0000 0054 // Compare B Match Interrupt: Off
; 0000 0055 TCCR1A=0x00;
	OUT  0x2F,R30
; 0000 0056 TCCR1B=0x00;
	OUT  0x2E,R30
; 0000 0057 TCNT1H=0x00;
	OUT  0x2D,R30
; 0000 0058 TCNT1L=0x00;
	OUT  0x2C,R30
; 0000 0059 ICR1H=0x00;
	OUT  0x27,R30
; 0000 005A ICR1L=0x00;
	OUT  0x26,R30
; 0000 005B OCR1AH=0x00;
	OUT  0x2B,R30
; 0000 005C OCR1AL=0x00;
	OUT  0x2A,R30
; 0000 005D OCR1BH=0x00;
	OUT  0x29,R30
; 0000 005E OCR1BL=0x00;
	OUT  0x28,R30
; 0000 005F 
; 0000 0060 // Timer/Counter 2 initialization
; 0000 0061 // Clock source: System Clock
; 0000 0062 // Clock value: Timer2 Stopped
; 0000 0063 // Mode: Normal top=FFh
; 0000 0064 // OC2 output: Disconnected
; 0000 0065 ASSR=0x00;
	OUT  0x22,R30
; 0000 0066 TCCR2=0x00;
	OUT  0x25,R30
; 0000 0067 TCNT2=0x00;
	OUT  0x24,R30
; 0000 0068 OCR2=0x00;
	OUT  0x23,R30
; 0000 0069 
; 0000 006A // External Interrupt(s) initialization
; 0000 006B // INT0: Off
; 0000 006C // INT1: Off
; 0000 006D // INT2: Off
; 0000 006E MCUCR=0x00;
	OUT  0x35,R30
; 0000 006F MCUCSR=0x00;
	OUT  0x34,R30
; 0000 0070 
; 0000 0071 // Timer(s)/Counter(s) Interrupt(s) initialization
; 0000 0072 TIMSK=0x00;
	OUT  0x39,R30
; 0000 0073 
; 0000 0074 // Analog Comparator initialization
; 0000 0075 // Analog Comparator: Off
; 0000 0076 // Analog Comparator Input Capture by Timer/Counter 1: Off
; 0000 0077 ACSR=0x80;
	LDI  R30,LOW(128)
	OUT  0x8,R30
; 0000 0078 SFIOR=0x00;
	LDI  R30,LOW(0)
	OUT  0x30,R30
; 0000 0079 
; 0000 007A // LCD module initialization
; 0000 007B lcd_init(16);
	LDI  R30,LOW(16)
	ST   -Y,R30
	CALL _lcd_init
; 0000 007C 
; 0000 007D     while (1){
_0x3:
; 0000 007E     char Padetis;
; 0000 007F     Timer1++;
	SBIW R28,1
;	Padetis -> Y+0
	MOVW R30,R4
	ADIW R30,1
	MOVW R4,R30
; 0000 0080     Padetis = Timer1/200;
	MOVW R26,R4
	LDI  R30,LOW(200)
	LDI  R31,HIGH(200)
	CALL __DIVW21U
	ST   Y,R30
; 0000 0081         if(Timer1>=5800){
	LDI  R30,LOW(5800)
	LDI  R31,HIGH(5800)
	CP   R4,R30
	CPC  R5,R31
	BRLO _0x6
; 0000 0082         Timer1 = 0;
	CLR  R4
	CLR  R5
; 0000 0083         }
; 0000 0084         if(Padetis*200==Timer1){
_0x6:
	LD   R26,Y
	LDI  R27,0
	LDI  R30,LOW(200)
	LDI  R31,HIGH(200)
	CALL __MULW12
	CP   R4,R30
	CPC  R5,R31
	BREQ PC+3
	JMP _0x7
; 0000 0085         lcd_clear();
	CALL _lcd_clear
; 0000 0086             if(Padetis==1){      lcd_puts("               T");}
	LD   R26,Y
	CPI  R26,LOW(0x1)
	BRNE _0x8
	__POINTW1MN _0x9,0
	RJMP _0x41
; 0000 0087             else if(Padetis==2){ lcd_puts("              To");}
_0x8:
	LD   R26,Y
	CPI  R26,LOW(0x2)
	BRNE _0xB
	__POINTW1MN _0x9,17
	RJMP _0x41
; 0000 0088             else if(Padetis==3){ lcd_puts("             Tom");}
_0xB:
	LD   R26,Y
	CPI  R26,LOW(0x3)
	BRNE _0xD
	__POINTW1MN _0x9,34
	RJMP _0x41
; 0000 0089             else if(Padetis==4){ lcd_puts("            Toma");}
_0xD:
	LD   R26,Y
	CPI  R26,LOW(0x4)
	BRNE _0xF
	__POINTW1MN _0x9,51
	RJMP _0x41
; 0000 008A             else if(Padetis==5){ lcd_puts("           Tomas");}
_0xF:
	LD   R26,Y
	CPI  R26,LOW(0x5)
	BRNE _0x11
	__POINTW1MN _0x9,68
	RJMP _0x41
; 0000 008B             else if(Padetis==6){ lcd_puts("          Tomas ");}
_0x11:
	LD   R26,Y
	CPI  R26,LOW(0x6)
	BRNE _0x13
	__POINTW1MN _0x9,85
	RJMP _0x41
; 0000 008C             else if(Padetis==7){ lcd_puts("         Tomas V");}
_0x13:
	LD   R26,Y
	CPI  R26,LOW(0x7)
	BRNE _0x15
	__POINTW1MN _0x9,102
	RJMP _0x41
; 0000 008D             else if(Padetis==8){ lcd_puts("        Tomas Va");}
_0x15:
	LD   R26,Y
	CPI  R26,LOW(0x8)
	BRNE _0x17
	__POINTW1MN _0x9,119
	RJMP _0x41
; 0000 008E             else if(Padetis==9){ lcd_puts("       Tomas Van");}
_0x17:
	LD   R26,Y
	CPI  R26,LOW(0x9)
	BRNE _0x19
	__POINTW1MN _0x9,136
	RJMP _0x41
; 0000 008F             else if(Padetis==10){lcd_puts("      Tomas Vana");}
_0x19:
	LD   R26,Y
	CPI  R26,LOW(0xA)
	BRNE _0x1B
	__POINTW1MN _0x9,153
	RJMP _0x41
; 0000 0090             else if(Padetis==11){lcd_puts("     Tomas Vanag");}
_0x1B:
	LD   R26,Y
	CPI  R26,LOW(0xB)
	BRNE _0x1D
	__POINTW1MN _0x9,170
	RJMP _0x41
; 0000 0091             else if(Padetis==12){lcd_puts("    Tomas Vanaga");}
_0x1D:
	LD   R26,Y
	CPI  R26,LOW(0xC)
	BRNE _0x1F
	__POINTW1MN _0x9,187
	RJMP _0x41
; 0000 0092             else if(Padetis==13){lcd_puts("   Tomas Vanagas");}
_0x1F:
	LD   R26,Y
	CPI  R26,LOW(0xD)
	BRNE _0x21
	__POINTW1MN _0x9,204
	RJMP _0x41
; 0000 0093             else if(Padetis==14){lcd_puts("  Tomas Vanagas ");}
_0x21:
	LD   R26,Y
	CPI  R26,LOW(0xE)
	BRNE _0x23
	__POINTW1MN _0x9,221
	RJMP _0x41
; 0000 0094             else if(Padetis==15){lcd_puts(" Tomas Vanagas  ");}
_0x23:
	LD   R26,Y
	CPI  R26,LOW(0xF)
	BRNE _0x25
	__POINTW1MN _0x9,238
	RJMP _0x41
; 0000 0095             else if(Padetis==16){lcd_puts("Tomas Vanagas   ");}
_0x25:
	LD   R26,Y
	CPI  R26,LOW(0x10)
	BRNE _0x27
	__POINTW1MN _0x9,255
	RJMP _0x41
; 0000 0096             else if(Padetis==17){lcd_puts("omas Vanagas    ");}
_0x27:
	LD   R26,Y
	CPI  R26,LOW(0x11)
	BRNE _0x29
	__POINTW1MN _0x9,272
	RJMP _0x41
; 0000 0097             else if(Padetis==18){lcd_puts("mas Vanagas     ");}
_0x29:
	LD   R26,Y
	CPI  R26,LOW(0x12)
	BRNE _0x2B
	__POINTW1MN _0x9,289
	RJMP _0x41
; 0000 0098             else if(Padetis==19){lcd_puts("as Vanagas      ");}
_0x2B:
	LD   R26,Y
	CPI  R26,LOW(0x13)
	BRNE _0x2D
	__POINTW1MN _0x9,306
	RJMP _0x41
; 0000 0099             else if(Padetis==20){lcd_puts("s Vanagas       ");}
_0x2D:
	LD   R26,Y
	CPI  R26,LOW(0x14)
	BRNE _0x2F
	__POINTW1MN _0x9,323
	RJMP _0x41
; 0000 009A             else if(Padetis==21){lcd_puts(" Vanagas        ");}
_0x2F:
	LD   R26,Y
	CPI  R26,LOW(0x15)
	BRNE _0x31
	__POINTW1MN _0x9,340
	RJMP _0x41
; 0000 009B             else if(Padetis==22){lcd_puts("Vanagas         ");}
_0x31:
	LD   R26,Y
	CPI  R26,LOW(0x16)
	BRNE _0x33
	__POINTW1MN _0x9,357
	RJMP _0x41
; 0000 009C             else if(Padetis==23){lcd_puts("anagas          ");}
_0x33:
	LD   R26,Y
	CPI  R26,LOW(0x17)
	BRNE _0x35
	__POINTW1MN _0x9,374
	RJMP _0x41
; 0000 009D             else if(Padetis==24){lcd_puts("nagas           ");}
_0x35:
	LD   R26,Y
	CPI  R26,LOW(0x18)
	BRNE _0x37
	__POINTW1MN _0x9,391
	RJMP _0x41
; 0000 009E             else if(Padetis==25){lcd_puts("agas            ");}
_0x37:
	LD   R26,Y
	CPI  R26,LOW(0x19)
	BRNE _0x39
	__POINTW1MN _0x9,408
	RJMP _0x41
; 0000 009F             else if(Padetis==26){lcd_puts("gas             ");}
_0x39:
	LD   R26,Y
	CPI  R26,LOW(0x1A)
	BRNE _0x3B
	__POINTW1MN _0x9,425
	RJMP _0x41
; 0000 00A0             else if(Padetis==27){lcd_puts("as              ");}
_0x3B:
	LD   R26,Y
	CPI  R26,LOW(0x1B)
	BRNE _0x3D
	__POINTW1MN _0x9,442
	RJMP _0x41
; 0000 00A1             else if(Padetis==28){lcd_puts("s               ");}
_0x3D:
	LD   R26,Y
	CPI  R26,LOW(0x1C)
	BRNE _0x3F
	__POINTW1MN _0x9,459
_0x41:
	ST   -Y,R31
	ST   -Y,R30
	CALL _lcd_puts
; 0000 00A2         }
_0x3F:
; 0000 00A3     delay_ms(1);
_0x7:
	LDI  R30,LOW(1)
	LDI  R31,HIGH(1)
	ST   -Y,R31
	ST   -Y,R30
	CALL _delay_ms
; 0000 00A4     };
	ADIW R28,1
	RJMP _0x3
; 0000 00A5 }
_0x40:
	RJMP _0x40

	.DSEG
_0x9:
	.BYTE 0x1DC
    .equ __lcd_direction=__lcd_port-1
    .equ __lcd_pin=__lcd_port-2
    .equ __lcd_rs=0
    .equ __lcd_rd=1
    .equ __lcd_enable=2
    .equ __lcd_busy_flag=7

	.DSEG

	.CSEG
__lcd_delay_G100:
    ldi   r31,15
__lcd_delay0:
    dec   r31
    brne  __lcd_delay0
	RET
__lcd_ready:
    in    r26,__lcd_direction
    andi  r26,0xf                 ;set as input
    out   __lcd_direction,r26
    sbi   __lcd_port,__lcd_rd     ;RD=1
    cbi   __lcd_port,__lcd_rs     ;RS=0
__lcd_busy:
	RCALL __lcd_delay_G100
    sbi   __lcd_port,__lcd_enable ;EN=1
	RCALL __lcd_delay_G100
    in    r26,__lcd_pin
    cbi   __lcd_port,__lcd_enable ;EN=0
	RCALL __lcd_delay_G100
    sbi   __lcd_port,__lcd_enable ;EN=1
	RCALL __lcd_delay_G100
    cbi   __lcd_port,__lcd_enable ;EN=0
    sbrc  r26,__lcd_busy_flag
    rjmp  __lcd_busy
	RET
__lcd_write_nibble_G100:
    andi  r26,0xf0
    or    r26,r27
    out   __lcd_port,r26          ;write
    sbi   __lcd_port,__lcd_enable ;EN=1
	CALL __lcd_delay_G100
    cbi   __lcd_port,__lcd_enable ;EN=0
	CALL __lcd_delay_G100
	RET
__lcd_write_data:
    cbi  __lcd_port,__lcd_rd 	  ;RD=0
    in    r26,__lcd_direction
    ori   r26,0xf0 | (1<<__lcd_rs) | (1<<__lcd_rd) | (1<<__lcd_enable) ;set as output
    out   __lcd_direction,r26
    in    r27,__lcd_port
    andi  r27,0xf
    ld    r26,y
	RCALL __lcd_write_nibble_G100
    ld    r26,y
    swap  r26
	RCALL __lcd_write_nibble_G100
    sbi   __lcd_port,__lcd_rd     ;RD=1
	JMP  _0x2020001
__lcd_read_nibble_G100:
    sbi   __lcd_port,__lcd_enable ;EN=1
	CALL __lcd_delay_G100
    in    r30,__lcd_pin           ;read
    cbi   __lcd_port,__lcd_enable ;EN=0
	CALL __lcd_delay_G100
    andi  r30,0xf0
	RET
_lcd_read_byte0_G100:
	CALL __lcd_delay_G100
	RCALL __lcd_read_nibble_G100
    mov   r26,r30
	RCALL __lcd_read_nibble_G100
    cbi   __lcd_port,__lcd_rd     ;RD=0
    swap  r30
    or    r30,r26
	RET
_lcd_gotoxy:
	CALL __lcd_ready
	LD   R30,Y
	LDI  R31,0
	SUBI R30,LOW(-__base_y_G100)
	SBCI R31,HIGH(-__base_y_G100)
	LD   R30,Z
	LDD  R26,Y+1
	ADD  R30,R26
	ST   -Y,R30
	CALL __lcd_write_data
	LDD  R7,Y+1
	LDD  R6,Y+0
	ADIW R28,2
	RET
_lcd_clear:
	CALL __lcd_ready
	LDI  R30,LOW(2)
	ST   -Y,R30
	CALL __lcd_write_data
	CALL __lcd_ready
	LDI  R30,LOW(12)
	ST   -Y,R30
	CALL __lcd_write_data
	CALL __lcd_ready
	LDI  R30,LOW(1)
	ST   -Y,R30
	CALL __lcd_write_data
	LDI  R30,LOW(0)
	MOV  R6,R30
	MOV  R7,R30
	RET
_lcd_putchar:
    push r30
    push r31
    ld   r26,y
    set
    cpi  r26,10
    breq __lcd_putchar1
    clt
	CP   R7,R9
	BRLO _0x2000004
	__lcd_putchar1:
	INC  R6
	LDI  R30,LOW(0)
	ST   -Y,R30
	ST   -Y,R6
	RCALL _lcd_gotoxy
	brts __lcd_putchar0
_0x2000004:
	INC  R7
    rcall __lcd_ready
    sbi  __lcd_port,__lcd_rs ;RS=1
    ld   r26,y
    st   -y,r26
    rcall __lcd_write_data
__lcd_putchar0:
    pop  r31
    pop  r30
	JMP  _0x2020001
_lcd_puts:
	ST   -Y,R17
_0x2000005:
	LDD  R26,Y+1
	LDD  R27,Y+1+1
	LD   R30,X+
	STD  Y+1,R26
	STD  Y+1+1,R27
	MOV  R17,R30
	CPI  R30,0
	BREQ _0x2000007
	ST   -Y,R17
	RCALL _lcd_putchar
	RJMP _0x2000005
_0x2000007:
	LDD  R17,Y+0
	ADIW R28,3
	RET
__long_delay_G100:
    clr   r26
    clr   r27
__long_delay0:
    sbiw  r26,1         ;2 cycles
    brne  __long_delay0 ;2 cycles
	RET
__lcd_init_write_G100:
    cbi  __lcd_port,__lcd_rd 	  ;RD=0
    in    r26,__lcd_direction
    ori   r26,0xf7                ;set as output
    out   __lcd_direction,r26
    in    r27,__lcd_port
    andi  r27,0xf
    ld    r26,y
	CALL __lcd_write_nibble_G100
    sbi   __lcd_port,__lcd_rd     ;RD=1
	RJMP _0x2020001
_lcd_init:
    cbi   __lcd_port,__lcd_enable ;EN=0
    cbi   __lcd_port,__lcd_rs     ;RS=0
	LDD  R9,Y+0
	LD   R30,Y
	SUBI R30,-LOW(128)
	__PUTB1MN __base_y_G100,2
	LD   R30,Y
	SUBI R30,-LOW(192)
	__PUTB1MN __base_y_G100,3
	RCALL SUBOPT_0x0
	RCALL SUBOPT_0x0
	RCALL SUBOPT_0x0
	RCALL __long_delay_G100
	LDI  R30,LOW(32)
	ST   -Y,R30
	RCALL __lcd_init_write_G100
	RCALL __long_delay_G100
	LDI  R30,LOW(40)
	RCALL SUBOPT_0x1
	LDI  R30,LOW(4)
	RCALL SUBOPT_0x1
	LDI  R30,LOW(133)
	RCALL SUBOPT_0x1
    in    r26,__lcd_direction
    andi  r26,0xf                 ;set as input
    out   __lcd_direction,r26
    sbi   __lcd_port,__lcd_rd     ;RD=1
	CALL _lcd_read_byte0_G100
	CPI  R30,LOW(0x5)
	BREQ _0x200000B
	LDI  R30,LOW(0)
	RJMP _0x2020001
_0x200000B:
	CALL __lcd_ready
	LDI  R30,LOW(6)
	ST   -Y,R30
	CALL __lcd_write_data
	CALL _lcd_clear
	LDI  R30,LOW(1)
_0x2020001:
	ADIW R28,1
	RET

	.DSEG
__base_y_G100:
	.BYTE 0x4

	.CSEG
;OPTIMIZER ADDED SUBROUTINE, CALLED 3 TIMES, CODE SIZE REDUCTION:5 WORDS
SUBOPT_0x0:
	CALL __long_delay_G100
	LDI  R30,LOW(48)
	ST   -Y,R30
	RJMP __lcd_init_write_G100

;OPTIMIZER ADDED SUBROUTINE, CALLED 3 TIMES, CODE SIZE REDUCTION:3 WORDS
SUBOPT_0x1:
	ST   -Y,R30
	CALL __lcd_write_data
	JMP  __long_delay_G100


	.CSEG
_delay_ms:
	ld   r30,y+
	ld   r31,y+
	adiw r30,0
	breq __delay_ms1
__delay_ms0:
	__DELAY_USW 0x7D0
	wdr
	sbiw r30,1
	brne __delay_ms0
__delay_ms1:
	ret

__ANEGW1:
	NEG  R31
	NEG  R30
	SBCI R31,0
	RET

__MULW12U:
	MUL  R31,R26
	MOV  R31,R0
	MUL  R30,R27
	ADD  R31,R0
	MUL  R30,R26
	MOV  R30,R0
	ADD  R31,R1
	RET

__MULW12:
	RCALL __CHKSIGNW
	RCALL __MULW12U
	BRTC __MULW121
	RCALL __ANEGW1
__MULW121:
	RET

__DIVW21U:
	CLR  R0
	CLR  R1
	LDI  R25,16
__DIVW21U1:
	LSL  R26
	ROL  R27
	ROL  R0
	ROL  R1
	SUB  R0,R30
	SBC  R1,R31
	BRCC __DIVW21U2
	ADD  R0,R30
	ADC  R1,R31
	RJMP __DIVW21U3
__DIVW21U2:
	SBR  R26,1
__DIVW21U3:
	DEC  R25
	BRNE __DIVW21U1
	MOVW R30,R26
	MOVW R26,R0
	RET

__CHKSIGNW:
	CLT
	SBRS R31,7
	RJMP __CHKSW1
	RCALL __ANEGW1
	SET
__CHKSW1:
	SBRS R27,7
	RJMP __CHKSW2
	COM  R26
	COM  R27
	ADIW R26,1
	BLD  R0,0
	INC  R0
	BST  R0,0
__CHKSW2:
	RET

;END OF CODE MARKER
__END_OF_CODE:
